
flash.hex:     file format ihex


Disassembly of section .sec1:

00000000 <.sec1>:
       0:	0c 94 45 06 	jmp	0xc8a	;  0xc8a
       4:	0c 94 8c 06 	jmp	0xd18	;  0xd18
       8:	0c 94 8c 06 	jmp	0xd18	;  0xd18
       c:	0c 94 8c 06 	jmp	0xd18	;  0xd18
      10:	0c 94 8c 06 	jmp	0xd18	;  0xd18
      14:	0c 94 8c 06 	jmp	0xd18	;  0xd18
      18:	0c 94 8c 06 	jmp	0xd18	;  0xd18
      1c:	0c 94 8c 06 	jmp	0xd18	;  0xd18
      20:	0c 94 8c 06 	jmp	0xd18	;  0xd18
      24:	0c 94 8c 06 	jmp	0xd18	;  0xd18
      28:	0c 94 89 29 	jmp	0x5312	;  0x5312
      2c:	0c 94 5d 2a 	jmp	0x54ba	;  0x54ba
      30:	0c 94 90 1b 	jmp	0x3720	;  0x3720
      34:	0c 94 8c 06 	jmp	0xd18	;  0xd18
      38:	0c 94 8c 06 	jmp	0xd18	;  0xd18
      3c:	0c 94 8c 06 	jmp	0xd18	;  0xd18
      40:	0c 94 8c 06 	jmp	0xd18	;  0xd18
      44:	0c 94 8c 06 	jmp	0xd18	;  0xd18
      48:	0c 94 8c 06 	jmp	0xd18	;  0xd18
      4c:	0c 94 8c 06 	jmp	0xd18	;  0xd18
      50:	0c 94 8c 06 	jmp	0xd18	;  0xd18
      54:	0c 94 e7 1b 	jmp	0x37ce	;  0x37ce
      58:	0c 94 8c 06 	jmp	0xd18	;  0xd18
      5c:	0c 94 8c 06 	jmp	0xd18	;  0xd18
      60:	0c 94 8c 06 	jmp	0xd18	;  0xd18
      64:	0c 94 8c 06 	jmp	0xd18	;  0xd18
      68:	0c 94 8c 06 	jmp	0xd18	;  0xd18
      6c:	0c 94 8c 06 	jmp	0xd18	;  0xd18
      70:	0c 94 8c 06 	jmp	0xd18	;  0xd18
      74:	0c 94 8c 06 	jmp	0xd18	;  0xd18
      78:	0c 94 8c 06 	jmp	0xd18	;  0xd18
      7c:	0c 94 8c 06 	jmp	0xd18	;  0xd18
      80:	0c 94 8c 06 	jmp	0xd18	;  0xd18
      84:	0c 94 8c 06 	jmp	0xd18	;  0xd18
      88:	0c 94 8c 06 	jmp	0xd18	;  0xd18
      8c:	0c 94 8c 06 	jmp	0xd18	;  0xd18
      90:	0c 94 8c 06 	jmp	0xd18	;  0xd18
      94:	0c 94 8c 06 	jmp	0xd18	;  0xd18
      98:	0c 94 8c 06 	jmp	0xd18	;  0xd18
      9c:	0c 94 8c 06 	jmp	0xd18	;  0xd18
      a0:	0c 94 8c 06 	jmp	0xd18	;  0xd18
      a4:	0c 94 8c 06 	jmp	0xd18	;  0xd18
      a8:	0c 94 8c 06 	jmp	0xd18	;  0xd18
      ac:	66 6c       	ori	r22, 0xC6	; 198
      ae:	61 67       	ori	r22, 0x71	; 113
      b0:	7b 64       	ori	r23, 0x4B	; 75
      b2:	34 74       	andi	r19, 0x44	; 68
      b4:	61 5f       	subi	r22, 0xF1	; 241
      b6:	33 78       	andi	r19, 0x83	; 131
      b8:	66 31       	cpi	r22, 0x16	; 22
      ba:	6c 5f       	subi	r22, 0xFC	; 252
      bc:	72 33       	cpi	r23, 0x32	; 50
      be:	76 33       	cpi	r23, 0x36	; 54
      c0:	72 73       	andi	r23, 0x32	; 50
      c2:	33 5f       	subi	r19, 0xF3	; 243
      c4:	33 6e       	ori	r19, 0xE3	; 227
      c6:	67 31       	cpi	r22, 0x17	; 23
      c8:	6e 33       	cpi	r22, 0x3E	; 62
      ca:	33 72       	andi	r19, 0x23	; 35
      cc:	31 6e       	ori	r19, 0xE1	; 225
      ce:	67 7d       	andi	r22, 0xD7	; 215
      d0:	00 42       	sbci	r16, 0x20	; 32
      d2:	45 47       	sbci	r20, 0x75	; 117
      d4:	49 4e       	sbci	r20, 0xE9	; 233
      d6:	4e 49       	sbci	r20, 0x9E	; 158
      d8:	4e 47       	sbci	r20, 0x7E	; 126
      da:	20 44       	sbci	r18, 0x40	; 64
      dc:	41 54       	subi	r20, 0x41	; 65
      de:	41 20       	and	r4, r1
      e0:	45 58       	subi	r20, 0x85	; 133
      e2:	46 49       	sbci	r20, 0x96	; 150
      e4:	4c 00       	.word	0x004c	; ????
      e6:	01 51       	subi	r16, 0x11	; 17
      e8:	54 00       	.word	0x0054	; ????
      ea:	55 00       	.word	0x0055	; ????
      ec:	4c 00       	.word	0x004c	; ????
      ee:	24 00       	.word	0x0024	; ????
      f0:	25 00       	.word	0x0025	; ????
      f2:	26 00       	.word	0x0026	; ????
      f4:	56 00       	.word	0x0056	; ????
      f6:	21 00       	.word	0x0021	; ????
      f8:	22 00       	.word	0x0022	; ????
      fa:	23 00       	.word	0x0023	; ????
      fc:	57 00       	.word	0x0057	; ????
      fe:	1e 00       	.word	0x001e	; ????
     100:	1f 00       	.word	0x001f	; ????
     102:	20 00       	.word	0x0020	; ????
     104:	58 00       	.word	0x0058	; ????
     106:	27 00       	.word	0x0027	; ????
     108:	36 00       	.word	0x0036	; ????
     10a:	63 00       	.word	0x0063	; ????
     10c:	2a 00       	.word	0x002a	; ????
     10e:	01 00       	.word	0x0001	; ????
     110:	08 5d       	subi	r16, 0xD8	; 216
     112:	55 00       	.word	0x0055	; ????
     114:	4c 00       	.word	0x004c	; ????
     116:	24 00       	.word	0x0024	; ????
     118:	25 00       	.word	0x0025	; ????
     11a:	26 00       	.word	0x0026	; ????
     11c:	56 00       	.word	0x0056	; ????
     11e:	04 00       	.word	0x0004	; ????
     120:	52 00       	.word	0x0052	; ????
     122:	05 00       	.word	0x0005	; ????
     124:	57 00       	.word	0x0057	; ????
     126:	50 00       	.word	0x0050	; ????
     128:	51 00       	.word	0x0051	; ????
     12a:	4f 00       	.word	0x004f	; ????
     12c:	58 00       	.word	0x0058	; ????
     12e:	27 00       	.word	0x0027	; ????
     130:	36 00       	.word	0x0036	; ????
     132:	63 00       	.word	0x0063	; ????
     134:	2a 00       	.word	0x002a	; ????
     136:	44 45       	sbci	r20, 0x54	; 84
     138:	42 55       	subi	r20, 0x52	; 82
     13a:	47 3a       	cpi	r20, 0xA7	; 167
     13c:	20 64       	ori	r18, 0x40	; 64
     13e:	69 73       	andi	r22, 0x39	; 57
     140:	61 62       	ori	r22, 0x21	; 33
     142:	6c 65       	ori	r22, 0x5C	; 92
     144:	64 2e       	mov	r6, r20
     146:	0a 00       	.word	0x000a	; ????
     148:	44 45       	sbci	r20, 0x54	; 84
     14a:	42 55       	subi	r20, 0x52	; 82
     14c:	47 3a       	cpi	r20, 0xA7	; 167
     14e:	20 65       	ori	r18, 0x50	; 80
     150:	6e 61       	ori	r22, 0x1E	; 30
     152:	62 6c       	ori	r22, 0xC2	; 194
     154:	65 64       	ori	r22, 0x45	; 69
     156:	2e 0a       	sbc	r2, r30
	...
     160:	00 2a       	or	r0, r16
     162:	2b 28       	or	r2, r11
	...
     174:	29 00       	.word	0x0029	; ????
     176:	00 00       	nop
     178:	00 2c       	mov	r0, r0
     17a:	1e 34       	cpi	r17, 0x4E	; 78
     17c:	20 21       	and	r18, r0
     17e:	22 24       	eor	r2, r2
     180:	34 26       	eor	r3, r20
     182:	27 25       	eor	r18, r7
     184:	2e 36       	cpi	r18, 0x6E	; 110
     186:	2d 37       	cpi	r18, 0x7D	; 125
     188:	38 27       	eor	r19, r24
     18a:	1e 1f       	adc	r17, r30
     18c:	20 21       	and	r18, r0
     18e:	22 23       	and	r18, r18
     190:	24 25       	eor	r18, r4
     192:	26 33       	cpi	r18, 0x36	; 54
     194:	33 36       	cpi	r19, 0x63	; 99
     196:	2e 37       	cpi	r18, 0x7E	; 126
     198:	38 1f       	adc	r19, r24
     19a:	04 05       	cpc	r16, r4
     19c:	06 07       	cpc	r16, r22
     19e:	08 09       	sbc	r16, r8
     1a0:	0a 0b       	sbc	r16, r26
     1a2:	0c 0d       	add	r16, r12
     1a4:	0e 0f       	add	r16, r30
     1a6:	10 11       	cpse	r17, r0
     1a8:	12 13       	cpse	r17, r18
     1aa:	14 15       	cp	r17, r4
     1ac:	16 17       	cp	r17, r22
     1ae:	18 19       	sub	r17, r8
     1b0:	1a 1b       	sub	r17, r26
     1b2:	1c 1d       	adc	r17, r12
     1b4:	2f 31       	cpi	r18, 0x1F	; 31
     1b6:	30 23       	and	r19, r16
     1b8:	2d 35       	cpi	r18, 0x5D	; 93
     1ba:	04 05       	cpc	r16, r4
     1bc:	06 07       	cpc	r16, r22
     1be:	08 09       	sbc	r16, r8
     1c0:	0a 0b       	sbc	r16, r26
     1c2:	0c 0d       	add	r16, r12
     1c4:	0e 0f       	add	r16, r30
     1c6:	10 11       	cpse	r17, r0
     1c8:	12 13       	cpse	r17, r18
     1ca:	14 15       	cp	r17, r4
     1cc:	16 17       	cp	r17, r22
     1ce:	18 19       	sub	r17, r8
     1d0:	1a 1b       	sub	r17, r26
     1d2:	1c 1d       	adc	r17, r12
     1d4:	2f 31       	cpi	r18, 0x1F	; 31
     1d6:	30 35       	cpi	r19, 0x50	; 80
     1d8:	4c 00       	.word	0x004c	; ????
	...
     1ea:	00 00       	nop
     1ec:	00 7e       	andi	r16, 0xE0	; 224
     1ee:	0f 00       	.word	0x000f	; ????
     1f0:	d4 ff       	sbrs	r29, 4
     1f2:	ff ff       	.word	0xffff	; ????
     1f4:	c7 00       	.word	0x00c7	; ????
     1f6:	00 00       	nop
     1f8:	78 0a       	sbc	r7, r24
     1fa:	00 25       	eor	r16, r0
     1fc:	30 38       	cpi	r19, 0x80	; 128
     1fe:	62 00       	.word	0x0062	; ????
     200:	3a 20       	and	r3, r10
     202:	00 25       	eor	r16, r0
     204:	30 32       	cpi	r19, 0x20	; 32
     206:	58 00       	.word	0x0058	; ????
     208:	0a 72       	andi	r16, 0x2A	; 42
     20a:	2f 63       	ori	r18, 0x3F	; 63
     20c:	20 30       	cpi	r18, 0x00	; 0
     20e:	31 32       	cpi	r19, 0x21	; 33
     210:	33 34       	cpi	r19, 0x43	; 67
     212:	35 36       	cpi	r19, 0x65	; 101
     214:	37 0a       	sbc	r3, r23
     216:	00 0a       	sbc	r0, r16
     218:	00 25       	eor	r16, r0
     21a:	30 32       	cpi	r19, 0x20	; 32
     21c:	58 20       	and	r5, r8
     21e:	00 6b       	ori	r16, 0xB0	; 176
     220:	65 79       	andi	r22, 0x95	; 149
     222:	62 6f       	ori	r22, 0xF2	; 242
     224:	61 72       	andi	r22, 0x21	; 33
     226:	64 5f       	subi	r22, 0xF4	; 244
     228:	72 65       	ori	r23, 0x52	; 82
     22a:	70 6f       	ori	r23, 0xF0	; 240
     22c:	72 74       	andi	r23, 0x42	; 66
     22e:	3a 20       	and	r3, r10
     230:	00 0a       	sbc	r0, r16
     232:	00 25       	eor	r16, r0
     234:	30 32       	cpi	r19, 0x20	; 32
     236:	58 00       	.word	0x0058	; ????
     238:	6b 65       	ori	r22, 0x5B	; 91
     23a:	79 62       	ori	r23, 0x29	; 41
     23c:	6f 61       	ori	r22, 0x1F	; 31
     23e:	72 64       	ori	r23, 0x42	; 66
     240:	5f 73       	andi	r21, 0x3F	; 63
     242:	65 74       	andi	r22, 0x45	; 69
     244:	5f 6c       	ori	r21, 0xCF	; 207
     246:	65 64       	ori	r22, 0x45	; 69
     248:	3a 20       	and	r3, r10
     24a:	00 29       	or	r16, r0
     24c:	0a 00       	.word	0x000a	; ????
     24e:	25 75       	andi	r18, 0x55	; 85
     250:	00 2f       	mov	r16, r16
     252:	00 25       	eor	r16, r0
     254:	75 00       	.word	0x0075	; ????
     256:	5d 28       	or	r5, r13
     258:	00 25       	eor	r16, r0
     25a:	64 00       	.word	0x0064	; ????
     25c:	20 00       	.word	0x0020	; ????
     25e:	25 64       	ori	r18, 0x45	; 69
     260:	00 20       	and	r0, r0
     262:	00 25       	eor	r16, r0
     264:	64 00       	.word	0x0064	; ????
     266:	20 00       	.word	0x0020	; ????
     268:	25 64       	ori	r18, 0x45	; 69
     26a:	00 7c       	andi	r16, 0xC0	; 192
     26c:	00 25       	eor	r16, r0
     26e:	30 32       	cpi	r19, 0x20	; 32
     270:	58 00       	.word	0x0058	; ????
     272:	6d 6f       	ori	r22, 0xFD	; 253
     274:	75 73       	andi	r23, 0x35	; 53
     276:	65 6b       	ori	r22, 0xB5	; 181
     278:	65 79       	andi	r22, 0x95	; 149
     27a:	20 5b       	subi	r18, 0xB0	; 176
     27c:	62 74       	andi	r22, 0x42	; 66
     27e:	6e 7c       	andi	r22, 0xCE	; 206
     280:	78 20       	and	r7, r8
     282:	79 20       	and	r7, r9
     284:	76 20       	and	r7, r6
     286:	68 5d       	subi	r22, 0xD8	; 216
     288:	28 72       	andi	r18, 0x28	; 40
     28a:	65 70       	andi	r22, 0x05	; 5
     28c:	2f 61       	ori	r18, 0x1F	; 31
     28e:	63 6c       	ori	r22, 0xC3	; 195
     290:	29 3a       	cpi	r18, 0xA9	; 169
     292:	20 5b       	subi	r18, 0xB0	; 176
     294:	00 6d       	ori	r16, 0xD0	; 208
     296:	6b 5f       	subi	r22, 0xFB	; 251
     298:	77 68       	ori	r23, 0x87	; 135
     29a:	65 65       	ori	r22, 0x55	; 85
     29c:	6c 5f       	subi	r22, 0xFC	; 252
     29e:	74 69       	ori	r23, 0x94	; 148
     2a0:	6d 65       	ori	r22, 0x5D	; 93
     2a2:	5f 74       	andi	r21, 0x4F	; 79
     2a4:	6f 5f       	subi	r22, 0xFF	; 255
     2a6:	6d 61       	ori	r22, 0x1D	; 29
     2a8:	78 20       	and	r7, r8
     2aa:	3d 20       	and	r3, r13
     2ac:	25 64       	ori	r18, 0x45	; 69
     2ae:	0a 00       	.word	0x000a	; ????
     2b0:	6d 6b       	ori	r22, 0xBD	; 189
     2b2:	5f 77       	andi	r21, 0x7F	; 127
     2b4:	68 65       	ori	r22, 0x58	; 88
     2b6:	65 6c       	ori	r22, 0xC5	; 197
     2b8:	5f 6d       	ori	r21, 0xDF	; 223
     2ba:	61 78       	andi	r22, 0x81	; 129
     2bc:	5f 73       	andi	r21, 0x3F	; 63
     2be:	70 65       	ori	r23, 0x50	; 80
     2c0:	65 64       	ori	r22, 0x45	; 69
     2c2:	20 3d       	cpi	r18, 0xD0	; 208
     2c4:	20 25       	eor	r18, r0
     2c6:	64 0a       	sbc	r6, r20
     2c8:	00 6d       	ori	r16, 0xD0	; 208
     2ca:	6b 5f       	subi	r22, 0xFB	; 251
     2cc:	74 69       	ori	r23, 0x94	; 148
     2ce:	6d 65       	ori	r22, 0x5D	; 93
     2d0:	5f 74       	andi	r21, 0x4F	; 79
     2d2:	6f 5f       	subi	r22, 0xFF	; 255
     2d4:	6d 61       	ori	r22, 0x1D	; 29
     2d6:	78 20       	and	r7, r8
     2d8:	3d 20       	and	r3, r13
     2da:	25 64       	ori	r18, 0x45	; 69
     2dc:	0a 00       	.word	0x000a	; ????
     2de:	6d 6b       	ori	r22, 0xBD	; 189
     2e0:	5f 6d       	ori	r21, 0xDF	; 223
     2e2:	61 78       	andi	r22, 0x81	; 129
     2e4:	5f 73       	andi	r21, 0x3F	; 63
     2e6:	70 65       	ori	r23, 0x50	; 80
     2e8:	65 64       	ori	r22, 0x45	; 69
     2ea:	20 3d       	cpi	r18, 0xD0	; 208
     2ec:	20 25       	eor	r18, r0
     2ee:	64 0a       	sbc	r6, r20
     2f0:	00 6d       	ori	r16, 0xD0	; 208
     2f2:	6b 5f       	subi	r22, 0xFB	; 251
     2f4:	69 6e       	ori	r22, 0xE9	; 233
     2f6:	74 65       	ori	r23, 0x54	; 84
     2f8:	72 76       	andi	r23, 0x62	; 98
     2fa:	61 6c       	ori	r22, 0xC1	; 193
     2fc:	20 3d       	cpi	r18, 0xD0	; 208
     2fe:	20 25       	eor	r18, r0
     300:	64 0a       	sbc	r6, r20
     302:	00 6d       	ori	r16, 0xD0	; 208
     304:	6b 5f       	subi	r22, 0xFB	; 251
     306:	64 65       	ori	r22, 0x54	; 84
     308:	6c 61       	ori	r22, 0x1C	; 28
     30a:	79 20       	and	r7, r9
     30c:	3d 20       	and	r3, r13
     30e:	25 64       	ori	r18, 0x45	; 69
     310:	0a 00       	.word	0x000a	; ????
     312:	6d 6b       	ori	r22, 0xBD	; 189
     314:	5f 77       	andi	r21, 0x7F	; 127
     316:	68 65       	ori	r22, 0x58	; 88
     318:	65 6c       	ori	r22, 0xC5	; 197
     31a:	5f 74       	andi	r21, 0x4F	; 79
     31c:	69 6d       	ori	r22, 0xD9	; 217
     31e:	65 5f       	subi	r22, 0xF5	; 245
     320:	74 6f       	ori	r23, 0xF4	; 244
     322:	5f 6d       	ori	r21, 0xDF	; 223
     324:	61 78       	andi	r22, 0x81	; 129
     326:	20 3d       	cpi	r18, 0xD0	; 208
     328:	20 25       	eor	r18, r0
     32a:	64 0a       	sbc	r6, r20
     32c:	00 6d       	ori	r16, 0xD0	; 208
     32e:	6b 5f       	subi	r22, 0xFB	; 251
     330:	77 68       	ori	r23, 0x87	; 135
     332:	65 65       	ori	r22, 0x55	; 85
     334:	6c 5f       	subi	r22, 0xFC	; 252
     336:	6d 61       	ori	r22, 0x1D	; 29
     338:	78 5f       	subi	r23, 0xF8	; 248
     33a:	73 70       	andi	r23, 0x03	; 3
     33c:	65 65       	ori	r22, 0x55	; 85
     33e:	64 20       	and	r6, r4
     340:	3d 20       	and	r3, r13
     342:	25 64       	ori	r18, 0x45	; 69
     344:	0a 00       	.word	0x000a	; ????
     346:	6d 6b       	ori	r22, 0xBD	; 189
     348:	5f 74       	andi	r21, 0x4F	; 79
     34a:	69 6d       	ori	r22, 0xD9	; 217
     34c:	65 5f       	subi	r22, 0xF5	; 245
     34e:	74 6f       	ori	r23, 0xF4	; 244
     350:	5f 6d       	ori	r21, 0xDF	; 223
     352:	61 78       	andi	r22, 0x81	; 129
     354:	20 3d       	cpi	r18, 0xD0	; 208
     356:	20 25       	eor	r18, r0
     358:	64 0a       	sbc	r6, r20
     35a:	00 6d       	ori	r16, 0xD0	; 208
     35c:	6b 5f       	subi	r22, 0xFB	; 251
     35e:	6d 61       	ori	r22, 0x1D	; 29
     360:	78 5f       	subi	r23, 0xF8	; 248
     362:	73 70       	andi	r23, 0x03	; 3
     364:	65 65       	ori	r22, 0x55	; 85
     366:	64 20       	and	r6, r4
     368:	3d 20       	and	r3, r13
     36a:	25 64       	ori	r18, 0x45	; 69
     36c:	0a 00       	.word	0x000a	; ????
     36e:	6d 6b       	ori	r22, 0xBD	; 189
     370:	5f 69       	ori	r21, 0x9F	; 159
     372:	6e 74       	andi	r22, 0x4E	; 78
     374:	65 72       	andi	r22, 0x25	; 37
     376:	76 61       	ori	r23, 0x16	; 22
     378:	6c 20       	and	r6, r12
     37a:	3d 20       	and	r3, r13
     37c:	25 64       	ori	r18, 0x45	; 69
     37e:	0a 00       	.word	0x000a	; ????
     380:	6d 6b       	ori	r22, 0xBD	; 189
     382:	5f 64       	ori	r21, 0x4F	; 79
     384:	65 6c       	ori	r22, 0xC5	; 197
     386:	61 79       	andi	r22, 0x91	; 145
     388:	20 3d       	cpi	r18, 0xD0	; 208
     38a:	20 25       	eor	r18, r0
     38c:	64 0a       	sbc	r6, r20
     38e:	00 0a       	sbc	r0, r16
     390:	00 25       	eor	r16, r0
     392:	75 00       	.word	0x0075	; ????
     394:	36 3a       	cpi	r19, 0xA6	; 166
     396:	20 77       	andi	r18, 0x70	; 112
     398:	68 65       	ori	r22, 0x58	; 88
     39a:	65 6c       	ori	r22, 0xC5	; 197
     39c:	5f 74       	andi	r21, 0x4F	; 79
     39e:	69 6d       	ori	r22, 0xD9	; 217
     3a0:	65 5f       	subi	r22, 0xF5	; 245
     3a2:	74 6f       	ori	r23, 0xF4	; 244
     3a4:	5f 6d       	ori	r21, 0xDF	; 223
     3a6:	61 78       	andi	r22, 0x81	; 129
     3a8:	3a 20       	and	r3, r10
     3aa:	00 0a       	sbc	r0, r16
     3ac:	00 25       	eor	r16, r0
     3ae:	75 00       	.word	0x0075	; ????
     3b0:	35 3a       	cpi	r19, 0xA5	; 165
     3b2:	20 77       	andi	r18, 0x70	; 112
     3b4:	68 65       	ori	r22, 0x58	; 88
     3b6:	65 6c       	ori	r22, 0xC5	; 197
     3b8:	5f 6d       	ori	r21, 0xDF	; 223
     3ba:	61 78       	andi	r22, 0x81	; 129
     3bc:	5f 73       	andi	r21, 0x3F	; 63
     3be:	70 65       	ori	r23, 0x50	; 80
     3c0:	65 64       	ori	r22, 0x45	; 69
     3c2:	3a 20       	and	r3, r10
     3c4:	00 0a       	sbc	r0, r16
     3c6:	00 25       	eor	r16, r0
     3c8:	75 00       	.word	0x0075	; ????
     3ca:	34 3a       	cpi	r19, 0xA4	; 164
     3cc:	20 74       	andi	r18, 0x40	; 64
     3ce:	69 6d       	ori	r22, 0xD9	; 217
     3d0:	65 5f       	subi	r22, 0xF5	; 245
     3d2:	74 6f       	ori	r23, 0xF4	; 244
     3d4:	5f 6d       	ori	r21, 0xDF	; 223
     3d6:	61 78       	andi	r22, 0x81	; 129
     3d8:	3a 20       	and	r3, r10
     3da:	00 0a       	sbc	r0, r16
     3dc:	00 25       	eor	r16, r0
     3de:	75 00       	.word	0x0075	; ????
     3e0:	33 3a       	cpi	r19, 0xA3	; 163
     3e2:	20 6d       	ori	r18, 0xD0	; 208
     3e4:	61 78       	andi	r22, 0x81	; 129
     3e6:	5f 73       	andi	r21, 0x3F	; 63
     3e8:	70 65       	ori	r23, 0x50	; 80
     3ea:	65 64       	ori	r22, 0x45	; 69
     3ec:	3a 20       	and	r3, r10
     3ee:	00 0a       	sbc	r0, r16
     3f0:	00 25       	eor	r16, r0
     3f2:	75 00       	.word	0x0075	; ????
     3f4:	32 3a       	cpi	r19, 0xA2	; 162
     3f6:	20 69       	ori	r18, 0x90	; 144
     3f8:	6e 74       	andi	r22, 0x4E	; 78
     3fa:	65 72       	andi	r22, 0x25	; 37
     3fc:	76 61       	ori	r23, 0x16	; 22
     3fe:	6c 28       	or	r6, r12
     400:	6d 73       	andi	r22, 0x3D	; 61
     402:	29 3a       	cpi	r18, 0xA9	; 169
     404:	20 00       	.word	0x0020	; ????
     406:	0a 00       	.word	0x000a	; ????
     408:	25 75       	andi	r18, 0x55	; 85
     40a:	00 31       	cpi	r16, 0x10	; 16
     40c:	3a 20       	and	r3, r10
     40e:	64 65       	ori	r22, 0x54	; 84
     410:	6c 61       	ori	r22, 0x1C	; 28
     412:	79 28       	or	r7, r9
     414:	2a 31       	cpi	r18, 0x1A	; 26
     416:	30 6d       	ori	r19, 0xD0	; 208
     418:	73 29       	or	r23, r3
     41a:	3a 20       	and	r3, r10
     41c:	00 0a       	sbc	r0, r16
     41e:	09 2d       	mov	r16, r9
     420:	20 56       	subi	r18, 0x60	; 96
     422:	61 6c       	ori	r22, 0xC1	; 193
     424:	75 65       	ori	r23, 0x55	; 85
     426:	73 20       	and	r7, r3
     428:	2d 0a       	sbc	r2, r29
     42a:	00 4d       	sbci	r16, 0xD0	; 208
     42c:	3e 00       	.word	0x003e	; ????
     42e:	4d 25       	eor	r20, r13
     430:	64 3e       	cpi	r22, 0xE4	; 228
     432:	20 00       	.word	0x0020	; ????
     434:	3f 00       	.word	0x003f	; ????
     436:	73 65       	ori	r23, 0x53	; 83
     438:	74 20       	and	r7, r4
     43a:	64 65       	ori	r22, 0x54	; 84
     43c:	66 61       	ori	r22, 0x16	; 22
     43e:	75 6c       	ori	r23, 0xC5	; 197
     440:	74 0a       	sbc	r7, r20
     442:	00 43       	sbci	r16, 0x30	; 48
     444:	3e 20       	and	r3, r14
     446:	00 77       	andi	r16, 0x70	; 112
     448:	68 65       	ori	r22, 0x58	; 88
     44a:	72 65       	ori	r23, 0x52	; 82
     44c:	20 64       	ori	r18, 0x40	; 64
     44e:	65 6c       	ori	r22, 0xC5	; 197
     450:	74 61       	ori	r23, 0x14	; 20
     452:	3a 20       	and	r3, r10
     454:	63 75       	andi	r22, 0x53	; 83
     456:	72 73       	andi	r23, 0x32	; 50
     458:	6f 72       	andi	r22, 0x2F	; 47
     45a:	3d 25       	eor	r19, r13
     45c:	64 2c       	mov	r6, r4
     45e:	20 77       	andi	r18, 0x70	; 112
     460:	68 65       	ori	r22, 0x58	; 88
     462:	65 6c       	ori	r22, 0xC5	; 197
     464:	3d 25       	eor	r19, r13
     466:	64 0a       	sbc	r6, r20
     468:	53 65       	ori	r21, 0x53	; 83
     46a:	65 20       	and	r6, r5
     46c:	68 74       	andi	r22, 0x48	; 72
     46e:	74 70       	andi	r23, 0x04	; 4
     470:	3a 2f       	mov	r19, r26
     472:	2f 65       	ori	r18, 0x5F	; 95
     474:	6e 2e       	mov	r6, r30
     476:	77 69       	ori	r23, 0x97	; 151
     478:	6b 69       	ori	r22, 0x9B	; 155
     47a:	70 65       	ori	r23, 0x50	; 80
     47c:	64 69       	ori	r22, 0x94	; 148
     47e:	61 2e       	mov	r6, r17
     480:	6f 72       	andi	r22, 0x2F	; 47
     482:	67 2f       	mov	r22, r23
     484:	77 69       	ori	r23, 0x97	; 151
     486:	6b 69       	ori	r22, 0x9B	; 155
     488:	2f 4d       	sbci	r18, 0xDF	; 223
     48a:	6f 75       	andi	r22, 0x5F	; 95
     48c:	73 65       	ori	r23, 0x53	; 83
     48e:	5f 6b       	ori	r21, 0xBF	; 191
     490:	65 79       	andi	r22, 0x95	; 149
     492:	73 0a       	sbc	r7, r19
     494:	00 0a       	sbc	r0, r16
     496:	09 2d       	mov	r16, r9
     498:	20 4d       	sbci	r18, 0xD0	; 208
     49a:	6f 75       	andi	r22, 0x5F	; 95
     49c:	73 65       	ori	r23, 0x53	; 83
     49e:	6b 65       	ori	r22, 0x5B	; 91
     4a0:	79 20       	and	r7, r9
     4a2:	2d 0a       	sbc	r2, r29
     4a4:	45 53       	subi	r20, 0x35	; 53
     4a6:	43 2f       	mov	r20, r19
     4a8:	71 3a       	cpi	r23, 0xA1	; 161
     4aa:	09 71       	andi	r16, 0x19	; 25
     4ac:	75 69       	ori	r23, 0x95	; 149
     4ae:	74 0a       	sbc	r7, r20
     4b0:	31 3a       	cpi	r19, 0xA1	; 161
     4b2:	09 64       	ori	r16, 0x49	; 73
     4b4:	65 6c       	ori	r22, 0xC5	; 197
     4b6:	61 79       	andi	r22, 0x91	; 145
     4b8:	28 2a       	or	r2, r24
     4ba:	31 30       	cpi	r19, 0x01	; 1
     4bc:	6d 73       	andi	r22, 0x3D	; 61
     4be:	29 0a       	sbc	r2, r25
     4c0:	32 3a       	cpi	r19, 0xA2	; 162
     4c2:	09 69       	ori	r16, 0x99	; 153
     4c4:	6e 74       	andi	r22, 0x4E	; 78
     4c6:	65 72       	andi	r22, 0x25	; 37
     4c8:	76 61       	ori	r23, 0x16	; 22
     4ca:	6c 28       	or	r6, r12
     4cc:	6d 73       	andi	r22, 0x3D	; 61
     4ce:	29 0a       	sbc	r2, r25
     4d0:	33 3a       	cpi	r19, 0xA3	; 163
     4d2:	09 6d       	ori	r16, 0xD9	; 217
     4d4:	61 78       	andi	r22, 0x81	; 129
     4d6:	5f 73       	andi	r21, 0x3F	; 63
     4d8:	70 65       	ori	r23, 0x50	; 80
     4da:	65 64       	ori	r22, 0x45	; 69
     4dc:	0a 34       	cpi	r16, 0x4A	; 74
     4de:	3a 09       	sbc	r19, r10
     4e0:	74 69       	ori	r23, 0x94	; 148
     4e2:	6d 65       	ori	r22, 0x5D	; 93
     4e4:	5f 74       	andi	r21, 0x4F	; 79
     4e6:	6f 5f       	subi	r22, 0xFF	; 255
     4e8:	6d 61       	ori	r22, 0x1D	; 29
     4ea:	78 0a       	sbc	r7, r24
     4ec:	35 3a       	cpi	r19, 0xA5	; 165
     4ee:	09 77       	andi	r16, 0x79	; 121
     4f0:	68 65       	ori	r22, 0x58	; 88
     4f2:	65 6c       	ori	r22, 0xC5	; 197
     4f4:	5f 6d       	ori	r21, 0xDF	; 223
     4f6:	61 78       	andi	r22, 0x81	; 129
     4f8:	5f 73       	andi	r21, 0x3F	; 63
     4fa:	70 65       	ori	r23, 0x50	; 80
     4fc:	65 64       	ori	r22, 0x45	; 69
     4fe:	0a 36       	cpi	r16, 0x6A	; 106
     500:	3a 09       	sbc	r19, r10
     502:	77 68       	ori	r23, 0x87	; 135
     504:	65 65       	ori	r22, 0x55	; 85
     506:	6c 5f       	subi	r22, 0xFC	; 252
     508:	74 69       	ori	r23, 0x94	; 148
     50a:	6d 65       	ori	r22, 0x5D	; 93
     50c:	5f 74       	andi	r21, 0x4F	; 79
     50e:	6f 5f       	subi	r22, 0xFF	; 255
     510:	6d 61       	ori	r22, 0x1D	; 29
     512:	78 0a       	sbc	r7, r24
     514:	0a 70       	andi	r16, 0x0A	; 10
     516:	3a 09       	sbc	r19, r10
     518:	70 72       	andi	r23, 0x20	; 32
     51a:	69 6e       	ori	r22, 0xE9	; 233
     51c:	74 20       	and	r7, r4
     51e:	76 61       	ori	r23, 0x16	; 22
     520:	6c 75       	andi	r22, 0x5C	; 92
     522:	65 73       	andi	r22, 0x35	; 53
     524:	0a 64       	ori	r16, 0x4A	; 74
     526:	3a 09       	sbc	r19, r10
     528:	73 65       	ori	r23, 0x53	; 83
     52a:	74 20       	and	r7, r4
     52c:	64 65       	ori	r22, 0x54	; 84
     52e:	66 61       	ori	r22, 0x16	; 22
     530:	75 6c       	ori	r23, 0xC5	; 197
     532:	74 73       	andi	r23, 0x34	; 52
     534:	0a 75       	andi	r16, 0x5A	; 90
     536:	70 3a       	cpi	r23, 0xA0	; 160
     538:	09 2b       	or	r16, r25
     53a:	31 0a       	sbc	r3, r17
     53c:	64 6f       	ori	r22, 0xF4	; 244
     53e:	77 6e       	ori	r23, 0xE7	; 231
     540:	3a 09       	sbc	r19, r10
     542:	2d 31       	cpi	r18, 0x1D	; 29
     544:	0a 70       	andi	r16, 0x0A	; 10
     546:	67 75       	andi	r22, 0x57	; 87
     548:	70 3a       	cpi	r23, 0xA0	; 160
     54a:	09 2b       	or	r16, r25
     54c:	31 30       	cpi	r19, 0x01	; 1
     54e:	0a 70       	andi	r16, 0x0A	; 10
     550:	67 64       	ori	r22, 0x47	; 71
     552:	6f 77       	andi	r22, 0x7F	; 127
     554:	6e 3a       	cpi	r22, 0xAE	; 174
     556:	09 2d       	mov	r16, r9
     558:	31 30       	cpi	r19, 0x01	; 1
     55a:	0a 0a       	sbc	r0, r26
     55c:	73 70       	andi	r23, 0x03	; 3
     55e:	65 65       	ori	r22, 0x55	; 85
     560:	64 20       	and	r6, r4
     562:	3d 20       	and	r3, r13
     564:	64 65       	ori	r22, 0x54	; 84
     566:	6c 74       	andi	r22, 0x4C	; 76
     568:	61 20       	and	r6, r1
     56a:	2a 20       	and	r2, r10
     56c:	6d 61       	ori	r22, 0x1D	; 29
     56e:	78 5f       	subi	r23, 0xF8	; 248
     570:	73 70       	andi	r23, 0x03	; 3
     572:	65 65       	ori	r22, 0x55	; 85
     574:	64 20       	and	r6, r4
     576:	2a 20       	and	r2, r10
     578:	28 72       	andi	r18, 0x28	; 40
     57a:	65 70       	andi	r22, 0x05	; 5
     57c:	65 61       	ori	r22, 0x15	; 21
     57e:	74 20       	and	r7, r4
     580:	2f 20       	and	r2, r15
     582:	74 69       	ori	r23, 0x94	; 148
     584:	6d 65       	ori	r22, 0x5D	; 93
     586:	5f 74       	andi	r21, 0x4F	; 79
     588:	6f 5f       	subi	r22, 0xFF	; 255
     58a:	6d 61       	ori	r22, 0x1D	; 29
     58c:	78 29       	or	r23, r8
     58e:	0a 00       	.word	0x000a	; ????
     590:	3f 00       	.word	0x003f	; ????
     592:	4d 3e       	cpi	r20, 0xED	; 237
     594:	20 00       	.word	0x0020	; ????
     596:	43 3e       	cpi	r20, 0xE3	; 227
     598:	20 00       	.word	0x0020	; ????
     59a:	4c 25       	eor	r20, r12
     59c:	64 0a       	sbc	r6, r20
     59e:	00 74       	andi	r16, 0x40	; 64
     5a0:	69 6d       	ori	r22, 0xD9	; 217
     5a2:	65 72       	andi	r22, 0x25	; 37
     5a4:	5f 72       	andi	r21, 0x2F	; 47
     5a6:	65 61       	ori	r22, 0x15	; 21
     5a8:	64 33       	cpi	r22, 0x34	; 52
     5aa:	32 28       	or	r3, r2
     5ac:	29 3a       	cpi	r18, 0xA9	; 169
     5ae:	20 25       	eor	r18, r0
     5b0:	30 34       	cpi	r19, 0x40	; 64
     5b2:	6c 58       	subi	r22, 0x8C	; 140
     5b4:	0a 00       	.word	0x000a	; ????
     5b6:	6b 65       	ori	r22, 0x5B	; 91
     5b8:	79 62       	ori	r23, 0x29	; 41
     5ba:	6f 61       	ori	r22, 0x1F	; 31
     5bc:	72 64       	ori	r23, 0x42	; 66
     5be:	5f 69       	ori	r21, 0x9F	; 159
     5c0:	64 6c       	ori	r22, 0xC4	; 196
     5c2:	65 3a       	cpi	r22, 0xA5	; 165
     5c4:	20 25       	eor	r18, r0
     5c6:	58 0a       	sbc	r5, r24
     5c8:	00 6b       	ori	r16, 0xB0	; 176
     5ca:	65 79       	andi	r22, 0x95	; 149
     5cc:	62 6f       	ori	r22, 0xF2	; 242
     5ce:	61 72       	andi	r22, 0x21	; 33
     5d0:	64 5f       	subi	r22, 0xF4	; 244
     5d2:	70 72       	andi	r23, 0x20	; 32
     5d4:	6f 74       	andi	r22, 0x4F	; 79
     5d6:	6f 63       	ori	r22, 0x3F	; 63
     5d8:	6f 6c       	ori	r22, 0xCF	; 207
     5da:	3a 20       	and	r3, r10
     5dc:	25 58       	subi	r18, 0x85	; 133
     5de:	0a 00       	.word	0x000a	; ????
     5e0:	68 6f       	ori	r22, 0xF8	; 248
     5e2:	73 74       	andi	r23, 0x43	; 67
     5e4:	5f 6b       	ori	r21, 0xBF	; 191
     5e6:	65 79       	andi	r22, 0x95	; 149
     5e8:	62 6f       	ori	r22, 0xF2	; 242
     5ea:	61 72       	andi	r22, 0x21	; 33
     5ec:	64 5f       	subi	r22, 0xF4	; 244
     5ee:	6c 65       	ori	r22, 0x5C	; 92
     5f0:	64 73       	andi	r22, 0x34	; 52
     5f2:	28 29       	or	r18, r8
     5f4:	3a 20       	and	r3, r10
     5f6:	25 58       	subi	r18, 0x85	; 133
     5f8:	0a 00       	.word	0x000a	; ????
     5fa:	0a 09       	sbc	r16, r10
     5fc:	2d 20       	and	r2, r13
     5fe:	53 74       	andi	r21, 0x43	; 67
     600:	61 74       	andi	r22, 0x41	; 65
     602:	75 73       	andi	r23, 0x35	; 53
     604:	20 2d       	mov	r18, r0
     606:	0a 00       	.word	0x000a	; ????
     608:	47 43       	sbci	r20, 0x37	; 55
     60a:	43 3a       	cpi	r20, 0xA3	; 163
     60c:	20 38       	cpi	r18, 0x80	; 128
     60e:	2e 34       	cpi	r18, 0x4E	; 78
     610:	2e 30       	cpi	r18, 0x0E	; 14
     612:	20 41       	sbci	r18, 0x10	; 16
     614:	56 52       	subi	r21, 0x26	; 38
     616:	2d 4c       	sbci	r18, 0xCD	; 205
     618:	49 42       	sbci	r20, 0x29	; 41
     61a:	43 3a       	cpi	r20, 0xA3	; 163
     61c:	20 32       	cpi	r18, 0x20	; 32
     61e:	2e 30       	cpi	r18, 0x0E	; 14
     620:	2e 30       	cpi	r18, 0x0E	; 14
     622:	20 41       	sbci	r18, 0x10	; 16
     624:	56 52       	subi	r21, 0x26	; 38
     626:	5f 41       	sbci	r21, 0x1F	; 31
     628:	52 43       	sbci	r21, 0x32	; 50
     62a:	48 3a       	cpi	r20, 0xA8	; 168
     62c:	20 61       	ori	r18, 0x10	; 16
     62e:	76 72       	andi	r23, 0x26	; 38
     630:	35 0a       	sbc	r3, r21
     632:	00 4f       	sbci	r16, 0xF0	; 240
     634:	50 54       	subi	r21, 0x40	; 64
     636:	49 4f       	sbci	r20, 0xF9	; 249
     638:	4e 53       	subi	r20, 0x3E	; 62
     63a:	3a 20       	and	r3, r10
     63c:	4c 55       	subi	r20, 0x5C	; 92
     63e:	46 41       	sbci	r20, 0x16	; 22
     640:	20 4d       	sbci	r18, 0xD0	; 208
     642:	4f 55       	subi	r20, 0x5F	; 95
     644:	53 45       	sbci	r21, 0x53	; 83
     646:	4b 45       	sbci	r20, 0x5B	; 91
     648:	59 20       	and	r5, r9
     64a:	45 58       	subi	r20, 0x85	; 133
     64c:	54 52       	subi	r21, 0x24	; 36
     64e:	41 4b       	sbci	r20, 0xB1	; 177
     650:	45 59       	subi	r20, 0x95	; 149
     652:	20 43       	sbci	r18, 0x30	; 48
     654:	4f 4e       	sbci	r20, 0xEF	; 239
     656:	53 4f       	sbci	r21, 0xF3	; 243
     658:	4c 45       	sbci	r20, 0x5C	; 92
     65a:	20 43       	sbci	r18, 0x30	; 48
     65c:	4f 4d       	sbci	r20, 0xDF	; 223
     65e:	4d 41       	sbci	r20, 0x1D	; 29
     660:	4e 44       	sbci	r20, 0x4E	; 78
     662:	20 34       	cpi	r18, 0x40	; 64
     664:	30 39       	cpi	r19, 0x90	; 144
     666:	36 0a       	sbc	r3, r22
     668:	00 42       	sbci	r16, 0x20	; 32
     66a:	55 49       	sbci	r21, 0x95	; 149
     66c:	4c 44       	sbci	r20, 0x4C	; 76
     66e:	3a 20       	and	r3, r10
     670:	22 30       	cpi	r18, 0x02	; 2
     672:	2e 39       	cpi	r18, 0x9E	; 158
     674:	2e 31       	cpi	r18, 0x1E	; 30
     676:	30 2d       	mov	r19, r0
     678:	34 31       	cpi	r19, 0x14	; 20
     67a:	2d 67       	ori	r18, 0x7D	; 125
     67c:	66 34       	cpi	r22, 0x46	; 70
     67e:	32 30       	cpi	r19, 0x02	; 2
     680:	37 34       	cpi	r19, 0x47	; 71
     682:	22 20       	and	r2, r2
     684:	28 31       	cpi	r18, 0x18	; 24
     686:	37 3a       	cpi	r19, 0xA7	; 167
     688:	30 37       	cpi	r19, 0x70	; 112
     68a:	3a 32       	cpi	r19, 0x2A	; 42
     68c:	30 20       	and	r3, r0
     68e:	53 65       	ori	r21, 0x53	; 83
     690:	70 20       	and	r7, r0
     692:	20 32       	cpi	r18, 0x20	; 32
     694:	20 32       	cpi	r18, 0x20	; 32
     696:	30 32       	cpi	r19, 0x20	; 32
     698:	30 29       	or	r19, r0
     69a:	0a 00       	.word	0x000a	; ????
     69c:	56 49       	sbci	r21, 0x96	; 150
     69e:	44 3a       	cpi	r20, 0xA4	; 164
     6a0:	20 30       	cpi	r18, 0x00	; 0
     6a2:	78 46       	sbci	r23, 0x68	; 104
     6a4:	45 45       	sbci	r20, 0x55	; 85
     6a6:	44 28       	or	r4, r4
     6a8:	4b 65       	ori	r20, 0x5B	; 91
     6aa:	79 48       	sbci	r23, 0x89	; 137
     6ac:	69 76       	andi	r22, 0x69	; 105
     6ae:	65 29       	or	r22, r5
     6b0:	20 50       	subi	r18, 0x00	; 0
     6b2:	49 44       	sbci	r20, 0x49	; 73
     6b4:	3a 20       	and	r3, r10
     6b6:	30 78       	andi	r19, 0x80	; 128
     6b8:	36 30       	cpi	r19, 0x06	; 6
     6ba:	36 30       	cpi	r19, 0x06	; 6
     6bc:	28 6d       	ori	r18, 0xD8	; 216
     6be:	61 79       	andi	r22, 0x91	; 145
     6c0:	70 61       	ori	r23, 0x10	; 16
     6c2:	64 29       	or	r22, r4
     6c4:	20 56       	subi	r18, 0x60	; 96
     6c6:	45 52       	subi	r20, 0x25	; 37
     6c8:	3a 20       	and	r3, r10
     6ca:	30 78       	andi	r19, 0x80	; 128
     6cc:	30 30       	cpi	r19, 0x00	; 0
     6ce:	30 31       	cpi	r19, 0x10	; 16
     6d0:	0a 00       	.word	0x000a	; ????
     6d2:	44 45       	sbci	r20, 0x54	; 84
     6d4:	53 43       	sbci	r21, 0x33	; 51
     6d6:	3a 20       	and	r3, r10
     6d8:	42 75       	andi	r20, 0x52	; 82
     6da:	64 67       	ori	r22, 0x74	; 116
     6dc:	65 74       	andi	r22, 0x45	; 69
     6de:	2d 66       	ori	r18, 0x6D	; 109
     6e0:	72 69       	ori	r23, 0x92	; 146
     6e2:	65 6e       	ori	r22, 0xE5	; 229
     6e4:	64 6c       	ori	r22, 0xC4	; 196
     6e6:	79 20       	and	r7, r9
     6e8:	6e 75       	andi	r22, 0x5E	; 94
     6ea:	6d 70       	andi	r22, 0x0D	; 13
     6ec:	61 64       	ori	r22, 0x41	; 65
     6ee:	0a 00       	.word	0x000a	; ????
     6f0:	0a 09       	sbc	r16, r10
     6f2:	2d 20       	and	r2, r13
     6f4:	56 65       	ori	r21, 0x56	; 86
     6f6:	72 73       	andi	r23, 0x32	; 50
     6f8:	69 6f       	ori	r22, 0xF9	; 249
     6fa:	6e 20       	and	r6, r14
     6fc:	2d 0a       	sbc	r2, r29
     6fe:	00 0a       	sbc	r0, r16
     700:	09 2d       	mov	r16, r9
     702:	20 43       	sbci	r18, 0x30	; 48
     704:	6f 6e       	ori	r22, 0xEF	; 239
     706:	73 6f       	ori	r23, 0xF3	; 243
     708:	6c 65       	ori	r22, 0x5C	; 92
     70a:	20 2d       	mov	r18, r0
     70c:	0a 45       	sbci	r16, 0x5A	; 90
     70e:	53 43       	sbci	r21, 0x33	; 51
     710:	2f 71       	andi	r18, 0x1F	; 31
     712:	3a 09       	sbc	r19, r10
     714:	71 75       	andi	r23, 0x51	; 81
     716:	69 74       	andi	r22, 0x49	; 73
     718:	0a 6d       	ori	r16, 0xDA	; 218
     71a:	3a 09       	sbc	r19, r10
     71c:	6d 6f       	ori	r22, 0xFD	; 253
     71e:	75 73       	andi	r23, 0x35	; 53
     720:	65 6b       	ori	r22, 0xB5	; 181
     722:	65 79       	andi	r22, 0x95	; 149
     724:	0a 00       	.word	0x000a	; ????
     726:	0a 09       	sbc	r16, r10
     728:	2d 20       	and	r2, r13
     72a:	4d 61       	ori	r20, 0x1D	; 29
     72c:	67 69       	ori	r22, 0x97	; 151
     72e:	63 20       	and	r6, r3
     730:	2d 0a       	sbc	r2, r29
     732:	44 3a       	cpi	r20, 0xA4	; 164
     734:	09 44       	sbci	r16, 0x49	; 73
     736:	65 62       	ori	r22, 0x25	; 37
     738:	75 67       	ori	r23, 0x75	; 117
     73a:	20 4d       	sbci	r18, 0xD0	; 208
     73c:	65 73       	andi	r22, 0x35	; 53
     73e:	73 61       	ori	r23, 0x13	; 19
     740:	67 65       	ori	r22, 0x57	; 87
     742:	20 54       	subi	r18, 0x40	; 64
     744:	6f 67       	ori	r22, 0x7F	; 127
     746:	67 6c       	ori	r22, 0xC7	; 199
     748:	65 0a       	sbc	r6, r21
     74a:	58 3a       	cpi	r21, 0xA8	; 168
     74c:	09 4d       	sbci	r16, 0xD9	; 217
     74e:	61 74       	andi	r22, 0x41	; 65
     750:	72 69       	ori	r23, 0x92	; 146
     752:	78 20       	and	r7, r8
     754:	44 65       	ori	r20, 0x54	; 84
     756:	62 75       	andi	r22, 0x52	; 82
     758:	67 20       	and	r6, r7
     75a:	4d 6f       	ori	r20, 0xFD	; 253
     75c:	64 65       	ori	r22, 0x54	; 84
     75e:	20 54       	subi	r18, 0x40	; 64
     760:	6f 67       	ori	r22, 0x7F	; 127
     762:	67 6c       	ori	r22, 0xC7	; 199
     764:	65 20       	and	r6, r5
     766:	2d 20       	and	r2, r13
     768:	53 68       	ori	r21, 0x83	; 131
     76a:	6f 77       	andi	r22, 0x7F	; 127
     76c:	20 6b       	ori	r18, 0xB0	; 176
     76e:	65 79       	andi	r22, 0x95	; 149
     770:	70 72       	andi	r23, 0x20	; 32
     772:	65 73       	andi	r22, 0x35	; 53
     774:	73 65       	ori	r23, 0x53	; 83
     776:	73 20       	and	r7, r3
     778:	69 6e       	ori	r22, 0xE9	; 233
     77a:	20 6d       	ori	r18, 0xD0	; 208
     77c:	61 74       	andi	r22, 0x41	; 65
     77e:	72 69       	ori	r23, 0x92	; 146
     780:	78 20       	and	r7, r8
     782:	67 72       	andi	r22, 0x27	; 39
     784:	69 64       	ori	r22, 0x49	; 73
     786:	0a 4b       	sbci	r16, 0xBA	; 186
     788:	3a 09       	sbc	r19, r10
     78a:	4b 65       	ori	r20, 0x5B	; 91
     78c:	79 62       	ori	r23, 0x29	; 41
     78e:	6f 61       	ori	r22, 0x1F	; 31
     790:	72 64       	ori	r23, 0x42	; 66
     792:	20 44       	sbci	r18, 0x40	; 64
     794:	65 62       	ori	r22, 0x25	; 37
     796:	75 67       	ori	r23, 0x75	; 117
     798:	20 54       	subi	r18, 0x40	; 64
     79a:	6f 67       	ori	r22, 0x7F	; 127
     79c:	67 6c       	ori	r22, 0xC7	; 199
     79e:	65 20       	and	r6, r5
     7a0:	2d 20       	and	r2, r13
     7a2:	53 68       	ori	r21, 0x83	; 131
     7a4:	6f 77       	andi	r22, 0x7F	; 127
     7a6:	20 6b       	ori	r18, 0xB0	; 176
     7a8:	65 79       	andi	r22, 0x95	; 149
     7aa:	70 72       	andi	r23, 0x20	; 32
     7ac:	65 73       	andi	r22, 0x35	; 53
     7ae:	73 20       	and	r7, r3
     7b0:	72 65       	ori	r23, 0x52	; 82
     7b2:	70 6f       	ori	r23, 0xF0	; 240
     7b4:	72 74       	andi	r23, 0x42	; 66
     7b6:	0a 4d       	sbci	r16, 0xDA	; 218
     7b8:	3a 09       	sbc	r19, r10
     7ba:	44 65       	ori	r20, 0x54	; 84
     7bc:	62 75       	andi	r22, 0x52	; 82
     7be:	67 20       	and	r6, r7
     7c0:	4d 6f       	ori	r20, 0xFD	; 253
     7c2:	75 73       	andi	r23, 0x35	; 53
     7c4:	65 20       	and	r6, r5
     7c6:	54 6f       	ori	r21, 0xF4	; 244
     7c8:	67 67       	ori	r22, 0x77	; 119
     7ca:	6c 65       	ori	r22, 0x5C	; 92
     7cc:	0a 56       	subi	r16, 0x6A	; 106
     7ce:	3a 09       	sbc	r19, r10
     7d0:	56 65       	ori	r21, 0x56	; 86
     7d2:	72 73       	andi	r23, 0x32	; 50
     7d4:	69 6f       	ori	r22, 0xF9	; 249
     7d6:	6e 0a       	sbc	r6, r30
     7d8:	53 3a       	cpi	r21, 0xA3	; 163
     7da:	09 53       	subi	r16, 0x39	; 57
     7dc:	74 61       	ori	r23, 0x14	; 20
     7de:	74 75       	andi	r23, 0x54	; 84
     7e0:	73 0a       	sbc	r7, r19
     7e2:	43 3a       	cpi	r20, 0xA3	; 163
     7e4:	09 41       	sbci	r16, 0x19	; 25
     7e6:	63 74       	andi	r22, 0x43	; 67
     7e8:	69 76       	andi	r22, 0x69	; 105
     7ea:	61 74       	andi	r22, 0x41	; 65
     7ec:	65 20       	and	r6, r5
     7ee:	43 6f       	ori	r20, 0xF3	; 243
     7f0:	6e 73       	andi	r22, 0x3E	; 62
     7f2:	6f 6c       	ori	r22, 0xCF	; 207
     7f4:	65 20       	and	r6, r5
     7f6:	4d 6f       	ori	r20, 0xFD	; 253
     7f8:	64 65       	ori	r22, 0x54	; 84
     7fa:	0a 46       	sbci	r16, 0x6A	; 106
     7fc:	31 2d       	mov	r19, r1
     7fe:	46 31       	cpi	r20, 0x16	; 22
     800:	30 3a       	cpi	r19, 0xA0	; 160
     802:	09 53       	subi	r16, 0x39	; 57
     804:	77 69       	ori	r23, 0x97	; 151
     806:	74 63       	ori	r23, 0x34	; 52
     808:	68 20       	and	r6, r8
     80a:	74 6f       	ori	r23, 0xF4	; 244
     80c:	20 4c       	sbci	r18, 0xC0	; 192
     80e:	61 79       	andi	r22, 0x91	; 145
     810:	65 72       	andi	r22, 0x25	; 37
     812:	20 30       	cpi	r18, 0x00	; 0
     814:	2d 39       	cpi	r18, 0x9D	; 157
     816:	20 28       	or	r2, r0
     818:	46 31       	cpi	r20, 0x16	; 22
     81a:	30 20       	and	r3, r0
     81c:	3d 20       	and	r3, r13
     81e:	4c 30       	cpi	r20, 0x0C	; 12
     820:	29 0a       	sbc	r2, r25
     822:	30 2d       	mov	r19, r0
     824:	39 3a       	cpi	r19, 0xA9	; 169
     826:	09 53       	subi	r16, 0x39	; 57
     828:	77 69       	ori	r23, 0x97	; 151
     82a:	74 63       	ori	r23, 0x34	; 52
     82c:	68 20       	and	r6, r8
     82e:	74 6f       	ori	r23, 0xF4	; 244
     830:	20 4c       	sbci	r18, 0xC0	; 192
     832:	61 79       	andi	r22, 0x91	; 145
     834:	65 72       	andi	r22, 0x25	; 37
     836:	20 30       	cpi	r18, 0x00	; 0
     838:	2d 39       	cpi	r18, 0x9D	; 157
     83a:	0a 47       	sbci	r16, 0x7A	; 122
     83c:	52 41       	sbci	r21, 0x12	; 18
     83e:	56 45       	sbci	r21, 0x56	; 86
     840:	3a 09       	sbc	r19, r10
     842:	53 77       	andi	r21, 0x73	; 115
     844:	69 74       	andi	r22, 0x49	; 73
     846:	63 68       	ori	r22, 0x83	; 131
     848:	20 74       	andi	r18, 0x40	; 64
     84a:	6f 20       	and	r6, r15
     84c:	4c 61       	ori	r20, 0x1C	; 28
     84e:	79 65       	ori	r23, 0x59	; 89
     850:	72 20       	and	r7, r2
     852:	30 20       	and	r3, r0
     854:	28 61       	ori	r18, 0x18	; 24
     856:	6c 74       	andi	r22, 0x4C	; 76
     858:	65 72       	andi	r22, 0x25	; 37
     85a:	6e 61       	ori	r22, 0x1E	; 30
     85c:	74 65       	ori	r23, 0x54	; 84
     85e:	29 0a       	sbc	r2, r25
     860:	42 3a       	cpi	r20, 0xA2	; 162
     862:	09 4a       	sbci	r16, 0xA9	; 169
     864:	75 6d       	ori	r23, 0xD5	; 213
     866:	70 20       	and	r7, r0
     868:	74 6f       	ori	r23, 0xF4	; 244
     86a:	20 42       	sbci	r18, 0x20	; 32
     86c:	6f 6f       	ori	r22, 0xFF	; 255
     86e:	74 6c       	ori	r23, 0xC4	; 196
     870:	6f 61       	ori	r22, 0x1F	; 31
     872:	64 65       	ori	r22, 0x54	; 84
     874:	72 0a       	sbc	r7, r18
     876:	45 53       	subi	r20, 0x35	; 53
     878:	43 3a       	cpi	r20, 0xA3	; 163
     87a:	09 4a       	sbci	r16, 0xA9	; 169
     87c:	75 6d       	ori	r23, 0xD5	; 213
     87e:	70 20       	and	r7, r0
     880:	74 6f       	ori	r23, 0xF4	; 244
     882:	20 42       	sbci	r18, 0x20	; 32
     884:	6f 6f       	ori	r22, 0xFF	; 255
     886:	74 6c       	ori	r23, 0xC4	; 196
     888:	6f 61       	ori	r22, 0x1F	; 31
     88a:	64 65       	ori	r22, 0x54	; 84
     88c:	72 20       	and	r7, r2
     88e:	28 61       	ori	r18, 0x18	; 24
     890:	6c 74       	andi	r22, 0x4C	; 76
     892:	65 72       	andi	r22, 0x25	; 37
     894:	6e 61       	ori	r22, 0x1E	; 30
     896:	74 65       	ori	r23, 0x54	; 84
     898:	29 0a       	sbc	r2, r25
     89a:	45 3a       	cpi	r20, 0xA5	; 165
     89c:	09 50       	subi	r16, 0x09	; 9
     89e:	72 69       	ori	r23, 0x92	; 146
     8a0:	6e 74       	andi	r22, 0x4E	; 78
     8a2:	20 45       	sbci	r18, 0x50	; 80
     8a4:	45 50       	subi	r20, 0x05	; 5
     8a6:	52 4f       	sbci	r21, 0xF2	; 242
     8a8:	4d 20       	and	r4, r13
     8aa:	53 65       	ori	r21, 0x53	; 83
     8ac:	74 74       	andi	r23, 0x44	; 68
     8ae:	69 6e       	ori	r22, 0xE9	; 233
     8b0:	67 73       	andi	r22, 0x37	; 55
     8b2:	0a 42       	sbci	r16, 0x2A	; 42
     8b4:	53 50       	subi	r21, 0x03	; 3
     8b6:	41 43       	sbci	r20, 0x31	; 49
     8b8:	45 3a       	cpi	r20, 0xA5	; 165
     8ba:	09 43       	sbci	r16, 0x39	; 57
     8bc:	6c 65       	ori	r22, 0x5C	; 92
     8be:	61 72       	andi	r22, 0x21	; 33
     8c0:	20 45       	sbci	r18, 0x50	; 80
     8c2:	45 50       	subi	r20, 0x05	; 5
     8c4:	52 4f       	sbci	r21, 0xF2	; 242
     8c6:	4d 0a       	sbc	r4, r29
     8c8:	00 0a       	sbc	r0, r16
     8ca:	00 25       	eor	r16, r0
     8cc:	75 00       	.word	0x0075	; ????
     8ce:	2e 6e       	ori	r18, 0xEE	; 238
     8d0:	6b 72       	andi	r22, 0x2B	; 43
     8d2:	6f 3a       	cpi	r22, 0xAF	; 175
     8d4:	20 00       	.word	0x0020	; ????
     8d6:	0a 00       	.word	0x000a	; ????
     8d8:	25 75       	andi	r18, 0x55	; 85
     8da:	00 2e       	mov	r0, r16
     8dc:	73 77       	andi	r23, 0x73	; 115
     8de:	61 70       	andi	r22, 0x01	; 1
     8e0:	5f 62       	ori	r21, 0x2F	; 47
     8e2:	61 63       	ori	r22, 0x31	; 49
     8e4:	6b 73       	andi	r22, 0x3B	; 59
     8e6:	6c 61       	ori	r22, 0x1C	; 28
     8e8:	73 68       	ori	r23, 0x83	; 131
     8ea:	5f 62       	ori	r21, 0x2F	; 47
     8ec:	61 63       	ori	r22, 0x31	; 49
     8ee:	6b 73       	andi	r22, 0x3B	; 59
     8f0:	70 61       	ori	r23, 0x10	; 16
     8f2:	63 65       	ori	r22, 0x53	; 83
     8f4:	3a 20       	and	r3, r10
     8f6:	00 0a       	sbc	r0, r16
     8f8:	00 25       	eor	r16, r0
     8fa:	75 00       	.word	0x0075	; ????
     8fc:	2e 73       	andi	r18, 0x3E	; 62
     8fe:	77 61       	ori	r23, 0x17	; 23
     900:	70 5f       	subi	r23, 0xF0	; 240
     902:	67 72       	andi	r22, 0x27	; 39
     904:	61 76       	andi	r22, 0x61	; 97
     906:	65 5f       	subi	r22, 0xF5	; 245
     908:	65 73       	andi	r22, 0x35	; 53
     90a:	63 3a       	cpi	r22, 0xA3	; 163
     90c:	20 00       	.word	0x0020	; ????
     90e:	0a 00       	.word	0x000a	; ????
     910:	25 75       	andi	r18, 0x55	; 85
     912:	00 2e       	mov	r0, r16
     914:	6e 6f       	ori	r22, 0xFE	; 254
     916:	5f 67       	ori	r21, 0x7F	; 127
     918:	75 69       	ori	r23, 0x95	; 149
     91a:	3a 20       	and	r3, r10
     91c:	00 0a       	sbc	r0, r16
     91e:	00 25       	eor	r16, r0
     920:	75 00       	.word	0x0075	; ????
     922:	2e 73       	andi	r18, 0x3E	; 62
     924:	77 61       	ori	r23, 0x17	; 23
     926:	70 5f       	subi	r23, 0xF0	; 240
     928:	72 61       	ori	r23, 0x12	; 18
     92a:	6c 74       	andi	r22, 0x4C	; 76
     92c:	5f 72       	andi	r21, 0x2F	; 47
     92e:	67 75       	andi	r22, 0x57	; 87
     930:	69 3a       	cpi	r22, 0xA9	; 169
     932:	20 00       	.word	0x0020	; ????
     934:	0a 00       	.word	0x000a	; ????
     936:	25 75       	andi	r18, 0x55	; 85
     938:	00 2e       	mov	r0, r16
     93a:	73 77       	andi	r23, 0x73	; 115
     93c:	61 70       	andi	r22, 0x01	; 1
     93e:	5f 6c       	ori	r21, 0xCF	; 207
     940:	61 6c       	ori	r22, 0xC1	; 193
     942:	74 5f       	subi	r23, 0xF4	; 244
     944:	6c 67       	ori	r22, 0x7C	; 124
     946:	75 69       	ori	r23, 0x95	; 149
     948:	3a 20       	and	r3, r10
     94a:	00 0a       	sbc	r0, r16
     94c:	00 25       	eor	r16, r0
     94e:	75 00       	.word	0x0075	; ????
     950:	2e 73       	andi	r18, 0x3E	; 62
     952:	77 61       	ori	r23, 0x17	; 23
     954:	70 5f       	subi	r23, 0xF0	; 240
     956:	72 63       	ori	r23, 0x32	; 50
     958:	74 6c       	ori	r23, 0xC4	; 196
     95a:	5f 72       	andi	r21, 0x2F	; 47
     95c:	67 75       	andi	r22, 0x57	; 87
     95e:	69 3a       	cpi	r22, 0xA9	; 169
     960:	20 00       	.word	0x0020	; ????
     962:	0a 00       	.word	0x000a	; ????
     964:	25 75       	andi	r18, 0x55	; 85
     966:	00 2e       	mov	r0, r16
     968:	73 77       	andi	r23, 0x73	; 115
     96a:	61 70       	andi	r22, 0x01	; 1
     96c:	5f 6c       	ori	r21, 0xCF	; 207
     96e:	63 74       	andi	r22, 0x43	; 67
     970:	6c 5f       	subi	r22, 0xFC	; 252
     972:	6c 67       	ori	r22, 0x7C	; 124
     974:	75 69       	ori	r23, 0x95	; 149
     976:	3a 20       	and	r3, r10
     978:	00 0a       	sbc	r0, r16
     97a:	00 25       	eor	r16, r0
     97c:	75 00       	.word	0x0075	; ????
     97e:	2e 63       	ori	r18, 0x3E	; 62
     980:	61 70       	andi	r22, 0x01	; 1
     982:	73 6c       	ori	r23, 0xC3	; 195
     984:	6f 63       	ori	r22, 0x3F	; 63
     986:	6b 5f       	subi	r22, 0xFB	; 251
     988:	74 6f       	ori	r23, 0xF4	; 244
     98a:	5f 63       	ori	r21, 0x3F	; 63
     98c:	6f 6e       	ori	r22, 0xEF	; 239
     98e:	74 72       	andi	r23, 0x24	; 36
     990:	6f 6c       	ori	r22, 0xCF	; 207
     992:	3a 20       	and	r3, r10
     994:	00 0a       	sbc	r0, r16
     996:	00 25       	eor	r16, r0
     998:	75 00       	.word	0x0075	; ????
     99a:	2e 73       	andi	r18, 0x3E	; 62
     99c:	77 61       	ori	r23, 0x17	; 23
     99e:	70 5f       	subi	r23, 0xF0	; 240
     9a0:	63 6f       	ori	r22, 0xF3	; 243
     9a2:	6e 74       	andi	r22, 0x4E	; 78
     9a4:	72 6f       	ori	r23, 0xF2	; 242
     9a6:	6c 5f       	subi	r22, 0xFC	; 252
     9a8:	63 61       	ori	r22, 0x13	; 19
     9aa:	70 73       	andi	r23, 0x30	; 48
     9ac:	6c 6f       	ori	r22, 0xFC	; 252
     9ae:	63 6b       	ori	r22, 0xB3	; 179
     9b0:	3a 20       	and	r3, r10
     9b2:	00 0a       	sbc	r0, r16
     9b4:	00 25       	eor	r16, r0
     9b6:	30 32       	cpi	r19, 0x20	; 32
     9b8:	58 00       	.word	0x0058	; ????
     9ba:	6b 65       	ori	r22, 0x5B	; 91
     9bc:	79 6d       	ori	r23, 0xD9	; 217
     9be:	61 70       	andi	r22, 0x01	; 1
     9c0:	5f 63       	ori	r21, 0x3F	; 63
     9c2:	6f 6e       	ori	r22, 0xEF	; 239
     9c4:	66 69       	ori	r22, 0x96	; 150
     9c6:	67 2e       	mov	r6, r23
     9c8:	72 61       	ori	r23, 0x12	; 18
     9ca:	77 3a       	cpi	r23, 0xA7	; 167
     9cc:	20 00       	.word	0x0020	; ????
     9ce:	0a 00       	.word	0x000a	; ????
     9d0:	25 75       	andi	r18, 0x55	; 85
     9d2:	00 2e       	mov	r0, r16
     9d4:	6d 6f       	ori	r22, 0xFD	; 253
     9d6:	75 73       	andi	r23, 0x35	; 53
     9d8:	65 3a       	cpi	r22, 0xA5	; 165
     9da:	20 00       	.word	0x0020	; ????
     9dc:	0a 00       	.word	0x000a	; ????
     9de:	25 75       	andi	r18, 0x55	; 85
     9e0:	00 2e       	mov	r0, r16
     9e2:	6b 65       	ori	r22, 0x5B	; 91
     9e4:	79 62       	ori	r23, 0x29	; 41
     9e6:	6f 61       	ori	r22, 0x1F	; 31
     9e8:	72 64       	ori	r23, 0x42	; 66
     9ea:	3a 20       	and	r3, r10
     9ec:	00 0a       	sbc	r0, r16
     9ee:	00 25       	eor	r16, r0
     9f0:	75 00       	.word	0x0075	; ????
     9f2:	2e 6d       	ori	r18, 0xDE	; 222
     9f4:	61 74       	andi	r22, 0x41	; 65
     9f6:	72 69       	ori	r23, 0x92	; 146
     9f8:	78 3a       	cpi	r23, 0xA8	; 168
     9fa:	20 00       	.word	0x0020	; ????
     9fc:	0a 00       	.word	0x000a	; ????
     9fe:	25 75       	andi	r18, 0x55	; 85
     a00:	00 2e       	mov	r0, r16
     a02:	65 6e       	ori	r22, 0xE5	; 229
     a04:	61 62       	ori	r22, 0x21	; 33
     a06:	6c 65       	ori	r22, 0x5C	; 92
     a08:	3a 20       	and	r3, r10
     a0a:	00 0a       	sbc	r0, r16
     a0c:	00 25       	eor	r16, r0
     a0e:	30 32       	cpi	r19, 0x20	; 32
     a10:	58 00       	.word	0x0058	; ????
     a12:	64 65       	ori	r22, 0x54	; 84
     a14:	62 75       	andi	r22, 0x52	; 82
     a16:	67 5f       	subi	r22, 0xF7	; 247
     a18:	63 6f       	ori	r22, 0xF3	; 243
     a1a:	6e 66       	ori	r22, 0x6E	; 110
     a1c:	69 67       	ori	r22, 0x79	; 121
     a1e:	2e 72       	andi	r18, 0x2E	; 46
     a20:	61 77       	andi	r22, 0x71	; 113
     a22:	3a 20       	and	r3, r10
     a24:	00 0a       	sbc	r0, r16
     a26:	00 25       	eor	r16, r0
     a28:	75 00       	.word	0x0075	; ????
     a2a:	64 65       	ori	r22, 0x54	; 84
     a2c:	66 61       	ori	r22, 0x16	; 22
     a2e:	75 6c       	ori	r23, 0xC5	; 197
     a30:	74 5f       	subi	r23, 0xF4	; 244
     a32:	6c 61       	ori	r22, 0x1C	; 28
     a34:	79 65       	ori	r23, 0x59	; 89
     a36:	72 3a       	cpi	r23, 0xA2	; 162
     a38:	20 00       	.word	0x0020	; ????
     a3a:	3f 00       	.word	0x003f	; ????
     a3c:	0a 6d       	ori	r16, 0xDA	; 218
     a3e:	6f 75       	andi	r22, 0x5F	; 95
     a40:	73 65       	ori	r23, 0x53	; 83
     a42:	3a 20       	and	r3, r10
     a44:	6f 66       	ori	r22, 0x6F	; 111
     a46:	66 0a       	sbc	r6, r22
     a48:	00 0a       	sbc	r0, r16
     a4a:	6d 6f       	ori	r22, 0xFD	; 253
     a4c:	75 73       	andi	r23, 0x35	; 53
     a4e:	65 3a       	cpi	r22, 0xA5	; 165
     a50:	20 6f       	ori	r18, 0xF0	; 240
     a52:	6e 0a       	sbc	r6, r30
     a54:	00 0a       	sbc	r0, r16
     a56:	6b 65       	ori	r22, 0x5B	; 91
     a58:	79 62       	ori	r23, 0x29	; 41
     a5a:	6f 61       	ori	r22, 0x1F	; 31
     a5c:	72 64       	ori	r23, 0x42	; 66
     a5e:	3a 20       	and	r3, r10
     a60:	6f 66       	ori	r22, 0x6F	; 111
     a62:	66 0a       	sbc	r6, r22
     a64:	00 0a       	sbc	r0, r16
     a66:	6b 65       	ori	r22, 0x5B	; 91
     a68:	79 62       	ori	r23, 0x29	; 41
     a6a:	6f 61       	ori	r22, 0x1F	; 31
     a6c:	72 64       	ori	r23, 0x42	; 66
     a6e:	3a 20       	and	r3, r10
     a70:	6f 6e       	ori	r22, 0xEF	; 239
     a72:	0a 00       	.word	0x000a	; ????
     a74:	0a 6d       	ori	r16, 0xDA	; 218
     a76:	61 74       	andi	r22, 0x41	; 65
     a78:	72 69       	ori	r23, 0x92	; 146
     a7a:	78 3a       	cpi	r23, 0xA8	; 168
     a7c:	20 6f       	ori	r18, 0xF0	; 240
     a7e:	66 66       	ori	r22, 0x66	; 102
     a80:	0a 00       	.word	0x000a	; ????
     a82:	0a 6d       	ori	r16, 0xDA	; 218
     a84:	61 74       	andi	r22, 0x41	; 65
     a86:	72 69       	ori	r23, 0x92	; 146
     a88:	78 3a       	cpi	r23, 0xA8	; 168
     a8a:	20 6f       	ori	r18, 0xF0	; 240
     a8c:	6e 0a       	sbc	r6, r30
     a8e:	00 0a       	sbc	r0, r16
     a90:	64 65       	ori	r22, 0x54	; 84
     a92:	62 75       	andi	r22, 0x52	; 82
     a94:	67 3a       	cpi	r22, 0xA7	; 167
     a96:	20 6f       	ori	r18, 0xF0	; 240
     a98:	66 66       	ori	r22, 0x66	; 102
     a9a:	0a 00       	.word	0x000a	; ????
     a9c:	0a 64       	ori	r16, 0x4A	; 74
     a9e:	65 62       	ori	r22, 0x25	; 37
     aa0:	75 67       	ori	r23, 0x75	; 117
     aa2:	3a 20       	and	r3, r10
     aa4:	6f 6e       	ori	r22, 0xEF	; 239
     aa6:	0a 00       	.word	0x000a	; ????
     aa8:	0a 0a       	sbc	r0, r26
     aaa:	4a 75       	andi	r20, 0x5A	; 90
     aac:	6d 70       	andi	r22, 0x0D	; 13
     aae:	69 6e       	ori	r22, 0xE9	; 233
     ab0:	67 20       	and	r6, r7
     ab2:	74 6f       	ori	r23, 0xF4	; 244
     ab4:	20 62       	ori	r18, 0x20	; 32
     ab6:	6f 6f       	ori	r22, 0xFF	; 255
     ab8:	74 6c       	ori	r23, 0xC4	; 196
     aba:	6f 61       	ori	r22, 0x1F	; 31
     abc:	64 65       	ori	r22, 0x54	; 84
     abe:	72 2e       	mov	r7, r18
     ac0:	2e 2e       	mov	r2, r30
     ac2:	20 00       	.word	0x0020	; ????
     ac4:	43 3e       	cpi	r20, 0xE3	; 227
     ac6:	20 00       	.word	0x0020	; ????
     ac8:	43 6c       	ori	r20, 0xC3	; 195
     aca:	65 61       	ori	r22, 0x15	; 21
     acc:	72 69       	ori	r23, 0x92	; 146
     ace:	6e 67       	ori	r22, 0x7E	; 126
     ad0:	20 45       	sbci	r18, 0x50	; 80
     ad2:	45 50       	subi	r20, 0x05	; 5
     ad4:	52 4f       	sbci	r21, 0xF2	; 242
     ad6:	4d 0a       	sbc	r4, r29
     ad8:	00 65       	ori	r16, 0x50	; 80
     ada:	65 63       	ori	r22, 0x35	; 53
     adc:	6f 6e       	ori	r22, 0xEF	; 239
     ade:	66 69       	ori	r22, 0x96	; 150
     ae0:	67 3a       	cpi	r22, 0xA7	; 167
     ae2:	0a 00       	.word	0x000a	; ????
     ae4:	5b 73       	andi	r21, 0x3B	; 59
     ae6:	5d 00       	.word	0x005d	; ????
     ae8:	4b 65       	ori	r20, 0x5B	; 91
     aea:	79 62       	ori	r23, 0x29	; 41
     aec:	6f 61       	ori	r22, 0x1F	; 31
     aee:	72 64       	ori	r23, 0x42	; 66
     af0:	20 73       	andi	r18, 0x30	; 48
     af2:	74 61       	ori	r23, 0x14	; 20
     af4:	72 74       	andi	r23, 0x42	; 66
     af6:	2e 0a       	sbc	r2, r30
     af8:	00 5b       	subi	r16, 0xB0	; 176
     afa:	57 5d       	subi	r21, 0xD7	; 215
     afc:	00 5b       	subi	r16, 0xB0	; 176
     afe:	53 5d       	subi	r21, 0xD3	; 211
     b00:	00 5b       	subi	r16, 0xB0	; 176
     b02:	52 5d       	subi	r21, 0xD2	; 210
     b04:	00 5b       	subi	r16, 0xB0	; 176
     b06:	44 5d       	subi	r20, 0xD4	; 212
     b08:	00 5b       	subi	r16, 0xB0	; 176
     b0a:	43 5d       	subi	r20, 0xD3	; 211
     b0c:	00 04       	cpc	r0, r0
     b0e:	03 30       	cpi	r16, 0x03	; 3
     b10:	00 00       	nop
     b12:	00 0e       	add	r0, r16
     b14:	03 6d       	ori	r16, 0xD3	; 211
     b16:	00 61       	ori	r16, 0x10	; 16
     b18:	00 79       	andi	r16, 0x90	; 144
     b1a:	00 70       	andi	r16, 0x00	; 0
     b1c:	00 61       	ori	r16, 0x10	; 16
     b1e:	00 64       	ori	r16, 0x40	; 64
     b20:	00 00       	nop
     b22:	00 10       	cpse	r0, r0
     b24:	03 4b       	sbci	r16, 0xB3	; 179
     b26:	00 65       	ori	r16, 0x50	; 80
     b28:	00 79       	andi	r16, 0x90	; 144
     b2a:	00 48       	sbci	r16, 0x80	; 128
     b2c:	00 69       	ori	r16, 0x90	; 144
     b2e:	00 76       	andi	r16, 0x60	; 96
     b30:	00 65       	ori	r16, 0x50	; 80
     b32:	00 00       	nop
     b34:	00 04       	cpc	r0, r0
     b36:	03 09       	sbc	r16, r3
     b38:	04 09       	sbc	r16, r4
     b3a:	02 5b       	subi	r16, 0xB2	; 178
     b3c:	00 03       	mulsu	r16, r16
     b3e:	01 00       	.word	0x0001	; ????
     b40:	a0 fa       	bst	r10, 0
     b42:	09 04       	cpc	r0, r9
     b44:	00 00       	nop
     b46:	01 03       	mulsu	r16, r17
     b48:	01 01       	movw	r0, r2
     b4a:	00 09       	sbc	r16, r0
     b4c:	21 11       	cpse	r18, r1
     b4e:	01 00       	.word	0x0001	; ????
     b50:	01 22       	and	r0, r17
     b52:	40 00       	.word	0x0040	; ????
     b54:	07 05       	cpc	r16, r7
     b56:	81 03       	fmuls	r16, r17
     b58:	08 00       	.word	0x0008	; ????
     b5a:	0a 09       	sbc	r16, r10
     b5c:	04 01       	movw	r0, r8
     b5e:	00 01       	movw	r0, r0
     b60:	03 00       	.word	0x0003	; ????
     b62:	00 00       	nop
     b64:	09 21       	and	r16, r9
     b66:	11 01       	movw	r2, r2
     b68:	00 01       	movw	r0, r0
     b6a:	22 81       	ldd	r18, Z+2	; 0x02
     b6c:	00 07       	cpc	r16, r16
     b6e:	05 82       	std	Z+5, r0	; 0x05
     b70:	03 20       	and	r0, r3
     b72:	00 0a       	sbc	r0, r16
     b74:	09 04       	cpc	r0, r9
     b76:	02 00       	.word	0x0002	; ????
     b78:	02 03       	mulsu	r16, r18
     b7a:	00 00       	nop
     b7c:	00 09       	sbc	r16, r0
     b7e:	21 11       	cpse	r18, r1
     b80:	01 00       	.word	0x0001	; ????
     b82:	01 22       	and	r0, r17
     b84:	22 00       	.word	0x0022	; ????
     b86:	07 05       	cpc	r16, r7
     b88:	83 03       	fmuls	r16, r19
     b8a:	20 00       	.word	0x0020	; ????
     b8c:	01 07       	cpc	r16, r17
     b8e:	05 03       	mulsu	r16, r21
     b90:	03 20       	and	r0, r3
     b92:	00 01       	movw	r0, r0
     b94:	12 01       	movw	r2, r4
     b96:	10 01       	movw	r2, r0
     b98:	00 00       	nop
     b9a:	00 08       	sbc	r0, r0
     b9c:	ed fe       	.word	0xfeed	; ????
     b9e:	60 60       	ori	r22, 0x00	; 0
     ba0:	01 00       	.word	0x0001	; ????
     ba2:	01 02       	muls	r16, r17
     ba4:	03 01       	movw	r0, r6
     ba6:	06 31       	cpi	r16, 0x16	; 22
     ba8:	ff 09       	sbc	r31, r15
     baa:	74 a1       	ldd	r23, Z+36	; 0x24
     bac:	01 09       	sbc	r16, r1
     bae:	75 15       	cp	r23, r5
     bb0:	00 26       	eor	r0, r16
     bb2:	ff 00       	.word	0x00ff	; ????
     bb4:	95 20       	and	r9, r5
     bb6:	75 08       	sbc	r7, r5
     bb8:	81 02       	muls	r24, r17
     bba:	09 76       	andi	r16, 0x69	; 105
     bbc:	15 00       	.word	0x0015	; ????
     bbe:	26 ff       	sbrs	r18, 6
     bc0:	00 95       	com	r16
     bc2:	20 75       	andi	r18, 0x50	; 80
     bc4:	08 91       	.word	0x9108	; ????
     bc6:	02 c0       	rjmp	.+4      	;  0xbcc
     bc8:	05 01       	movw	r0, r10
     bca:	09 02       	muls	r16, r25
     bcc:	a1 01       	movw	r20, r2
     bce:	85 02       	muls	r24, r21
     bd0:	09 01       	movw	r0, r18
     bd2:	a1 00       	.word	0x00a1	; ????
     bd4:	05 09       	sbc	r16, r5
     bd6:	19 01       	movw	r2, r18
     bd8:	29 05       	cpc	r18, r9
     bda:	15 00       	.word	0x0015	; ????
     bdc:	25 01       	movw	r4, r10
     bde:	95 05       	cpc	r25, r5
     be0:	75 01       	movw	r14, r10
     be2:	81 02       	muls	r24, r17
     be4:	95 01       	movw	r18, r10
     be6:	75 03       	mulsu	r23, r21
     be8:	81 01       	movw	r16, r2
     bea:	05 01       	movw	r0, r10
     bec:	09 30       	cpi	r16, 0x09	; 9
     bee:	09 31       	cpi	r16, 0x19	; 25
     bf0:	15 81       	ldd	r17, Z+5	; 0x05
     bf2:	25 7f       	andi	r18, 0xF5	; 245
     bf4:	95 02       	muls	r25, r21
     bf6:	75 08       	sbc	r7, r5
     bf8:	81 06       	cpc	r8, r17
     bfa:	09 38       	cpi	r16, 0x89	; 137
     bfc:	15 81       	ldd	r17, Z+5	; 0x05
     bfe:	25 7f       	andi	r18, 0xF5	; 245
     c00:	95 01       	movw	r18, r10
     c02:	75 08       	sbc	r7, r5
     c04:	81 06       	cpc	r8, r17
     c06:	05 0c       	add	r0, r5
     c08:	0a 38       	cpi	r16, 0x8A	; 138
     c0a:	02 15       	cp	r16, r2
     c0c:	81 25       	eor	r24, r1
     c0e:	7f 95 01 75 	call	0x5eea02	;  0x5eea02
     c12:	08 81       	ld	r16, Y
     c14:	06 c0       	rjmp	.+12     	;  0xc22
     c16:	c0 05       	cpc	r28, r0
     c18:	01 09       	sbc	r16, r1
     c1a:	80 a1       	ldd	r24, Z+32	; 0x20
     c1c:	01 85       	ldd	r16, Z+9	; 0x09
     c1e:	03 19       	sub	r16, r3
     c20:	01 2a       	or	r0, r17
     c22:	b7 00       	.word	0x00b7	; ????
     c24:	15 01       	movw	r2, r10
     c26:	26 b7       	in	r18, 0x36	; 54
     c28:	00 95       	com	r16
     c2a:	01 75       	andi	r16, 0x51	; 81
     c2c:	10 81       	ld	r17, Z
     c2e:	00 c0       	rjmp	.+0      	;  0xc30
     c30:	05 0c       	add	r0, r5
     c32:	09 01       	movw	r0, r18
     c34:	a1 01       	movw	r20, r2
     c36:	85 04       	cpc	r8, r5
     c38:	19 01       	movw	r2, r18
     c3a:	2a a0       	ldd	r2, Y+34	; 0x22
     c3c:	02 15       	cp	r16, r2
     c3e:	01 26       	eor	r0, r17
     c40:	a0 02       	muls	r26, r16
     c42:	95 01       	movw	r18, r10
     c44:	75 10       	cpse	r7, r5
     c46:	81 00       	.word	0x0081	; ????
     c48:	c0 05       	cpc	r28, r0
     c4a:	01 09       	sbc	r16, r1
     c4c:	06 a1       	ldd	r16, Z+38	; 0x26
     c4e:	01 05       	cpc	r16, r1
     c50:	07 19       	sub	r16, r7
     c52:	e0 29       	or	r30, r0
     c54:	e7 15       	cp	r30, r7
     c56:	00 25       	eor	r16, r0
     c58:	01 95       	neg	r16
     c5a:	08 75       	andi	r16, 0x58	; 88
     c5c:	01 81       	ldd	r16, Z+1	; 0x01
     c5e:	02 95       	swap	r16
     c60:	01 75       	andi	r16, 0x51	; 81
     c62:	08 81       	ld	r16, Y
     c64:	01 05       	cpc	r16, r1
     c66:	07 19       	sub	r16, r7
     c68:	00 29       	or	r16, r0
     c6a:	ff 15       	cp	r31, r15
     c6c:	00 26       	eor	r0, r16
     c6e:	ff 00       	.word	0x00ff	; ????
     c70:	95 06       	cpc	r9, r21
     c72:	75 08       	sbc	r7, r5
     c74:	81 00       	.word	0x0081	; ????
     c76:	05 08       	sbc	r0, r5
     c78:	19 01       	movw	r2, r18
     c7a:	29 05       	cpc	r18, r9
     c7c:	95 05       	cpc	r25, r5
     c7e:	75 01       	movw	r14, r10
     c80:	91 02       	muls	r25, r17
     c82:	95 01       	movw	r18, r10
     c84:	75 03       	mulsu	r23, r21
     c86:	91 01       	movw	r18, r2
     c88:	c0 00       	.word	0x00c0	; ????
     c8a:	11 24       	eor	r1, r1
     c8c:	1f be       	out	0x3f, r1	; 63
     c8e:	cf ef       	ldi	r28, 0xFF	; 255
     c90:	da e0       	ldi	r29, 0x0A	; 10
     c92:	de bf       	out	0x3e, r29	; 62
     c94:	cd bf       	out	0x3d, r28	; 61
     c96:	04 b6       	in	r0, 0x34	; 52
     c98:	03 fe       	sbrs	r0, 3
     c9a:	27 c0       	rjmp	.+78     	;  0xcea
     c9c:	80 91 73 02 	lds	r24, 0x0273	;  0x800273
     ca0:	90 91 74 02 	lds	r25, 0x0274	;  0x800274
     ca4:	a0 91 75 02 	lds	r26, 0x0275	;  0x800275
     ca8:	b0 91 76 02 	lds	r27, 0x0276	;  0x800276
     cac:	87 30       	cpi	r24, 0x07	; 7
     cae:	90 4b       	sbci	r25, 0xB0	; 176
     cb0:	a7 40       	sbci	r26, 0x07	; 7
     cb2:	b0 4b       	sbci	r27, 0xB0	; 176
     cb4:	d1 f4       	brne	.+52     	;  0xcea
     cb6:	10 92 73 02 	sts	0x0273, r1	;  0x800273
     cba:	10 92 74 02 	sts	0x0274, r1	;  0x800274
     cbe:	10 92 75 02 	sts	0x0275, r1	;  0x800275
     cc2:	10 92 76 02 	sts	0x0276, r1	;  0x800276
     cc6:	14 be       	out	0x34, r1	; 52
     cc8:	84 b7       	in	r24, 0x34	; 52
     cca:	87 7f       	andi	r24, 0xF7	; 247
     ccc:	84 bf       	out	0x34, r24	; 52
     cce:	0f b6       	in	r0, 0x3f	; 63
     cd0:	f8 94       	cli
     cd2:	a8 95       	wdr
     cd4:	80 91 60 00 	lds	r24, 0x0060	;  0x800060
     cd8:	88 61       	ori	r24, 0x18	; 24
     cda:	80 93 60 00 	sts	0x0060, r24	;  0x800060
     cde:	10 92 60 00 	sts	0x0060, r1	;  0x800060
     ce2:	0f be       	out	0x3f, r0	; 63
     ce4:	e0 e0       	ldi	r30, 0x00	; 0
     ce6:	f8 e3       	ldi	r31, 0x38	; 56
     ce8:	09 95       	icall
     cea:	11 e0       	ldi	r17, 0x01	; 1
     cec:	a0 e0       	ldi	r26, 0x00	; 0
     cee:	b1 e0       	ldi	r27, 0x01	; 1
     cf0:	ec e8       	ldi	r30, 0x8C	; 140
     cf2:	f9 e5       	ldi	r31, 0x59	; 89
     cf4:	02 c0       	rjmp	.+4      	;  0xcfa
     cf6:	05 90       	lpm	r0, Z+
     cf8:	0d 92       	st	X+, r0
     cfa:	a2 3c       	cpi	r26, 0xC2	; 194
     cfc:	b1 07       	cpc	r27, r17
     cfe:	d9 f7       	brne	.-10     	;  0xcf6
     d00:	22 e0       	ldi	r18, 0x02	; 2
     d02:	a2 ec       	ldi	r26, 0xC2	; 194
     d04:	b1 e0       	ldi	r27, 0x01	; 1
     d06:	01 c0       	rjmp	.+2      	;  0xd0a
     d08:	1d 92       	st	X+, r1
     d0a:	a3 37       	cpi	r26, 0x73	; 115
     d0c:	b2 07       	cpc	r27, r18
     d0e:	e1 f7       	brne	.-8      	;  0xd08
     d10:	0e 94 af 26 	call	0x4d5e	;  0x4d5e
     d14:	0c 94 9c 2c 	jmp	0x5938	;  0x5938
     d18:	0c 94 00 00 	jmp	0	;  0x0
     d1c:	ff 93       	push	r31
     d1e:	ef 93       	push	r30
     d20:	e0 91 c2 01 	lds	r30, 0x01C2	;  0x8001c2
     d24:	f0 91 c3 01 	lds	r31, 0x01C3	;  0x8001c3
     d28:	30 97       	sbiw	r30, 0x00	; 0
     d2a:	09 f0       	breq	.+2      	;  0xd2e
     d2c:	09 95       	icall
     d2e:	ef 91       	pop	r30
     d30:	ff 91       	pop	r31
     d32:	08 95       	ret
     d34:	fc 01       	movw	r30, r24
     d36:	85 91       	lpm	r24, Z+
     d38:	80 30       	cpi	r24, 0x00	; 0
     d3a:	11 f0       	breq	.+4      	;  0xd40
     d3c:	ef df       	rcall	.-34     	;  0xd1c
     d3e:	fb cf       	rjmp	.-10     	;  0xd36
     d40:	08 95       	ret
     d42:	ff 27       	eor	r31, r31
     d44:	e0 e2       	ldi	r30, 0x20	; 32
     d46:	30 e2       	ldi	r19, 0x20	; 32
     d48:	47 ff       	sbrs	r20, 7
     d4a:	0c c0       	rjmp	.+24     	;  0xd64
     d4c:	41 95       	neg	r20
     d4e:	97 ff       	sbrs	r25, 7
     d50:	09 c0       	rjmp	.+18     	;  0xd64
     d52:	ed e2       	ldi	r30, 0x2D	; 45
     d54:	60 95       	com	r22
     d56:	70 95       	com	r23
     d58:	80 95       	com	r24
     d5a:	90 95       	com	r25
     d5c:	61 1d       	adc	r22, r1
     d5e:	71 1d       	adc	r23, r1
     d60:	81 1d       	adc	r24, r1
     d62:	91 1d       	adc	r25, r1
     d64:	27 ff       	sbrs	r18, 7
     d66:	02 c0       	rjmp	.+4      	;  0xd6c
     d68:	21 95       	neg	r18
     d6a:	30 e3       	ldi	r19, 0x30	; 48
     d6c:	50 e2       	ldi	r21, 0x20	; 32
     d6e:	aa 27       	eor	r26, r26
     d70:	66 0f       	add	r22, r22
     d72:	77 1f       	adc	r23, r23
     d74:	88 1f       	adc	r24, r24
     d76:	99 1f       	adc	r25, r25
     d78:	aa 1f       	adc	r26, r26
     d7a:	a4 17       	cp	r26, r20
     d7c:	10 f0       	brcs	.+4      	;  0xd82
     d7e:	a4 1b       	sub	r26, r20
     d80:	63 95       	inc	r22
     d82:	5a 95       	dec	r21
     d84:	a9 f7       	brne	.-22     	;  0xd70
     d86:	aa 30       	cpi	r26, 0x0A	; 10
     d88:	08 f0       	brcs	.+2      	;  0xd8c
     d8a:	a9 5f       	subi	r26, 0xF9	; 249
     d8c:	a0 5d       	subi	r26, 0xD0	; 208
     d8e:	af 93       	push	r26
     d90:	f3 95       	inc	r31
     d92:	61 15       	cp	r22, r1
     d94:	71 05       	cpc	r23, r1
     d96:	81 05       	cpc	r24, r1
     d98:	91 05       	cpc	r25, r1
     d9a:	41 f7       	brne	.-48     	;  0xd6c
     d9c:	ed 32       	cpi	r30, 0x2D	; 45
     d9e:	11 f4       	brne	.+4      	;  0xda4
     da0:	ef 93       	push	r30
     da2:	f3 95       	inc	r31
     da4:	f2 17       	cp	r31, r18
     da6:	18 f4       	brcc	.+6      	;  0xdae
     da8:	3f 93       	push	r19
     daa:	f3 95       	inc	r31
     dac:	fb cf       	rjmp	.-10     	;  0xda4
     dae:	8f 91       	pop	r24
     db0:	b5 df       	rcall	.-150    	;  0xd1c
     db2:	fa 95       	dec	r31
     db4:	e1 f7       	brne	.-8      	;  0xdae
     db6:	08 95       	ret
     db8:	e9 91       	ld	r30, Y+
     dba:	f9 91       	ld	r31, Y+
     dbc:	85 91       	lpm	r24, Z+
     dbe:	80 30       	cpi	r24, 0x00	; 0
     dc0:	21 f0       	breq	.+8      	;  0xdca
     dc2:	85 32       	cpi	r24, 0x25	; 37
     dc4:	19 f0       	breq	.+6      	;  0xdcc
     dc6:	aa df       	rcall	.-172    	;  0xd1c
     dc8:	f9 cf       	rjmp	.-14     	;  0xdbc
     dca:	08 95       	ret
     dcc:	20 e0       	ldi	r18, 0x00	; 0
     dce:	e8 94       	clt
     dd0:	55 91       	lpm	r21, Z+
     dd2:	55 32       	cpi	r21, 0x25	; 37
     dd4:	c1 f3       	breq	.-16     	;  0xdc6
     dd6:	50 33       	cpi	r21, 0x30	; 48
     dd8:	11 f4       	brne	.+4      	;  0xdde
     dda:	68 94       	set
     ddc:	55 91       	lpm	r21, Z+
     dde:	5a 33       	cpi	r21, 0x3A	; 58
     de0:	48 f4       	brcc	.+18     	;  0xdf4
     de2:	50 53       	subi	r21, 0x30	; 48
     de4:	90 f3       	brcs	.-28     	;  0xdca
     de6:	22 0f       	add	r18, r18
     de8:	02 2e       	mov	r0, r18
     dea:	22 0f       	add	r18, r18
     dec:	22 0f       	add	r18, r18
     dee:	20 0d       	add	r18, r0
     df0:	25 0f       	add	r18, r21
     df2:	f4 cf       	rjmp	.-24     	;  0xddc
     df4:	0e f4       	brtc	.+2      	;  0xdf8
     df6:	21 95       	neg	r18
     df8:	89 91       	ld	r24, Y+
     dfa:	99 91       	ld	r25, Y+
     dfc:	53 36       	cpi	r21, 0x63	; 99
     dfe:	19 f3       	breq	.-58     	;  0xdc6
     e00:	53 37       	cpi	r21, 0x73	; 115
     e02:	29 f1       	breq	.+74     	;  0xe4e
     e04:	53 35       	cpi	r21, 0x53	; 83
     e06:	59 f1       	breq	.+86     	;  0xe5e
     e08:	bc 01       	movw	r22, r24
     e0a:	88 27       	eor	r24, r24
     e0c:	99 27       	eor	r25, r25
     e0e:	e8 94       	clt
     e10:	5c 36       	cpi	r21, 0x6C	; 108
     e12:	21 f4       	brne	.+8      	;  0xe1c
     e14:	89 91       	ld	r24, Y+
     e16:	99 91       	ld	r25, Y+
     e18:	68 94       	set
     e1a:	55 91       	lpm	r21, Z+
     e1c:	54 36       	cpi	r21, 0x64	; 100
     e1e:	39 f4       	brne	.+14     	;  0xe2e
     e20:	46 ef       	ldi	r20, 0xF6	; 246
     e22:	7e f0       	brts	.+30     	;  0xe42
     e24:	77 ff       	sbrs	r23, 7
     e26:	0d c0       	rjmp	.+26     	;  0xe42
     e28:	8f ef       	ldi	r24, 0xFF	; 255
     e2a:	9f ef       	ldi	r25, 0xFF	; 255
     e2c:	0a c0       	rjmp	.+20     	;  0xe42
     e2e:	55 37       	cpi	r21, 0x75	; 117
     e30:	4a e0       	ldi	r20, 0x0A	; 10
     e32:	39 f0       	breq	.+14     	;  0xe42
     e34:	58 35       	cpi	r21, 0x58	; 88
     e36:	40 e1       	ldi	r20, 0x10	; 16
     e38:	21 f0       	breq	.+8      	;  0xe42
     e3a:	52 36       	cpi	r21, 0x62	; 98
     e3c:	42 e0       	ldi	r20, 0x02	; 2
     e3e:	09 f0       	breq	.+2      	;  0xe42
     e40:	08 95       	ret
     e42:	ff 93       	push	r31
     e44:	ef 93       	push	r30
     e46:	7d df       	rcall	.-262    	;  0xd42
     e48:	ef 91       	pop	r30
     e4a:	ff 91       	pop	r31
     e4c:	b7 cf       	rjmp	.-146    	;  0xdbc
     e4e:	ff 93       	push	r31
     e50:	ef 93       	push	r30
     e52:	fc 01       	movw	r30, r24
     e54:	81 91       	ld	r24, Z+
     e56:	80 30       	cpi	r24, 0x00	; 0
     e58:	b9 f3       	breq	.-18     	;  0xe48
     e5a:	60 df       	rcall	.-320    	;  0xd1c
     e5c:	fb cf       	rjmp	.-10     	;  0xe54
     e5e:	ff 93       	push	r31
     e60:	ef 93       	push	r30
     e62:	68 df       	rcall	.-304    	;  0xd34
     e64:	f1 cf       	rjmp	.-30     	;  0xe48
     e66:	df 93       	push	r29
     e68:	cf 93       	push	r28
     e6a:	cd b7       	in	r28, 0x3d	; 61
     e6c:	de b7       	in	r29, 0x3e	; 62
     e6e:	25 96       	adiw	r28, 0x05	; 5
     e70:	a3 df       	rcall	.-186    	;  0xdb8
     e72:	cf 91       	pop	r28
     e74:	df 91       	pop	r29
     e76:	08 95       	ret
     e78:	cf 93       	push	r28
     e7a:	df 93       	push	r29
     e7c:	cd b7       	in	r28, 0x3d	; 61
     e7e:	de b7       	in	r29, 0x3e	; 62
     e80:	c1 55       	subi	r28, 0x51	; 81
     e82:	d1 09       	sbc	r29, r1
     e84:	0f b6       	in	r0, 0x3f	; 63
     e86:	f8 94       	cli
     e88:	de bf       	out	0x3e, r29	; 62
     e8a:	0f be       	out	0x3f, r0	; 63
     e8c:	cd bf       	out	0x3d, r28	; 61
     e8e:	88 30       	cpi	r24, 0x08	; 8
     e90:	2d e5       	ldi	r18, 0x5D	; 93
     e92:	92 07       	cpc	r25, r18
     e94:	71 f0       	breq	.+28     	;  0xeb2
     e96:	89 30       	cpi	r24, 0x09	; 9
     e98:	9d 45       	sbci	r25, 0x5D	; 93
     e9a:	a1 f0       	breq	.+40     	;  0xec4
     e9c:	81 e0       	ldi	r24, 0x01	; 1
     e9e:	cf 5a       	subi	r28, 0xAF	; 175
     ea0:	df 4f       	sbci	r29, 0xFF	; 255
     ea2:	0f b6       	in	r0, 0x3f	; 63
     ea4:	f8 94       	cli
     ea6:	de bf       	out	0x3e, r29	; 62
     ea8:	0f be       	out	0x3f, r0	; 63
     eaa:	cd bf       	out	0x3d, r28	; 61
     eac:	df 91       	pop	r29
     eae:	cf 91       	pop	r28
     eb0:	08 95       	ret
     eb2:	fb 01       	movw	r30, r22
     eb4:	82 81       	ldd	r24, Z+2	; 0x02
     eb6:	88 23       	and	r24, r24
     eb8:	89 f3       	breq	.-30     	;  0xe9c
     eba:	81 ed       	ldi	r24, 0xD1	; 209
     ebc:	90 e0       	ldi	r25, 0x00	; 0
     ebe:	0e 94 c2 08 	call	0x1184	;  0x1184
     ec2:	ec cf       	rjmp	.-40     	;  0xe9c
     ec4:	86 e0       	ldi	r24, 0x06	; 6
     ec6:	e5 e1       	ldi	r30, 0x15	; 21
     ec8:	f1 e0       	ldi	r31, 0x01	; 1
     eca:	de 01       	movw	r26, r28
     ecc:	a4 5b       	subi	r26, 0xB4	; 180
     ece:	bf 4f       	sbci	r27, 0xFF	; 255
     ed0:	01 90       	ld	r0, Z+
     ed2:	0d 92       	st	X+, r0
     ed4:	8a 95       	dec	r24
     ed6:	e1 f7       	brne	.-8      	;  0xed0
     ed8:	86 e0       	ldi	r24, 0x06	; 6
     eda:	eb e1       	ldi	r30, 0x1B	; 27
     edc:	f1 e0       	ldi	r31, 0x01	; 1
     ede:	de 01       	movw	r26, r28
     ee0:	aa 5b       	subi	r26, 0xBA	; 186
     ee2:	bf 4f       	sbci	r27, 0xFF	; 255
     ee4:	01 90       	ld	r0, Z+
     ee6:	0d 92       	st	X+, r0
     ee8:	8a 95       	dec	r24
     eea:	e1 f7       	brne	.-8      	;  0xee4
     eec:	87 e0       	ldi	r24, 0x07	; 7
     eee:	e1 e2       	ldi	r30, 0x21	; 33
     ef0:	f1 e0       	ldi	r31, 0x01	; 1
     ef2:	de 01       	movw	r26, r28
     ef4:	df 96       	adiw	r26, 0x3f	; 63
     ef6:	01 90       	ld	r0, Z+
     ef8:	0d 92       	st	X+, r0
     efa:	8a 95       	dec	r24
     efc:	e1 f7       	brne	.-8      	;  0xef6
     efe:	89 e0       	ldi	r24, 0x09	; 9
     f00:	e8 e2       	ldi	r30, 0x28	; 40
     f02:	f1 e0       	ldi	r31, 0x01	; 1
     f04:	de 01       	movw	r26, r28
     f06:	d6 96       	adiw	r26, 0x36	; 54
     f08:	01 90       	ld	r0, Z+
     f0a:	0d 92       	st	X+, r0
     f0c:	8a 95       	dec	r24
     f0e:	e1 f7       	brne	.-8      	;  0xf08
     f10:	8d e0       	ldi	r24, 0x0D	; 13
     f12:	e1 e3       	ldi	r30, 0x31	; 49
     f14:	f1 e0       	ldi	r31, 0x01	; 1
     f16:	de 01       	movw	r26, r28
     f18:	99 96       	adiw	r26, 0x29	; 41
     f1a:	01 90       	ld	r0, Z+
     f1c:	0d 92       	st	X+, r0
     f1e:	8a 95       	dec	r24
     f20:	e1 f7       	brne	.-8      	;  0xf1a
     f22:	fb 01       	movw	r30, r22
     f24:	82 81       	ldd	r24, Z+2	; 0x02
     f26:	88 23       	and	r24, r24
     f28:	09 f4       	brne	.+2      	;  0xf2c
     f2a:	b8 cf       	rjmp	.-144    	;  0xe9c
     f2c:	be 01       	movw	r22, r28
     f2e:	64 5b       	subi	r22, 0xB4	; 180
     f30:	7f 4f       	sbci	r23, 0xFF	; 255
     f32:	ce 01       	movw	r24, r28
     f34:	01 96       	adiw	r24, 0x01	; 1
     f36:	0e 94 53 2c 	call	0x58a6	;  0x58a6
     f3a:	be 01       	movw	r22, r28
     f3c:	6a 5b       	subi	r22, 0xBA	; 186
     f3e:	7f 4f       	sbci	r23, 0xFF	; 255
     f40:	ce 01       	movw	r24, r28
     f42:	01 96       	adiw	r24, 0x01	; 1
     f44:	0e 94 48 2c 	call	0x5890	;  0x5890
     f48:	be 01       	movw	r22, r28
     f4a:	61 5c       	subi	r22, 0xC1	; 193
     f4c:	7f 4f       	sbci	r23, 0xFF	; 255
     f4e:	ce 01       	movw	r24, r28
     f50:	01 96       	adiw	r24, 0x01	; 1
     f52:	0e 94 48 2c 	call	0x5890	;  0x5890
     f56:	be 01       	movw	r22, r28
     f58:	6a 5c       	subi	r22, 0xCA	; 202
     f5a:	7f 4f       	sbci	r23, 0xFF	; 255
     f5c:	ce 01       	movw	r24, r28
     f5e:	01 96       	adiw	r24, 0x01	; 1
     f60:	0e 94 48 2c 	call	0x5890	;  0x5890
     f64:	be 01       	movw	r22, r28
     f66:	67 5d       	subi	r22, 0xD7	; 215
     f68:	7f 4f       	sbci	r23, 0xFF	; 255
     f6a:	ce 01       	movw	r24, r28
     f6c:	01 96       	adiw	r24, 0x01	; 1
     f6e:	0e 94 48 2c 	call	0x5890	;  0x5890
     f72:	8c ea       	ldi	r24, 0xAC	; 172
     f74:	90 e0       	ldi	r25, 0x00	; 0
     f76:	a3 cf       	rjmp	.-186    	;  0xebe
     f78:	81 e0       	ldi	r24, 0x01	; 1
     f7a:	08 95       	ret
     f7c:	0c 94 3c 07 	jmp	0xe78	;  0xe78
     f80:	08 95       	ret
     f82:	0c 94 c0 07 	jmp	0xf80	;  0xf80
     f86:	1f 93       	push	r17
     f88:	cf 93       	push	r28
     f8a:	df 93       	push	r29
     f8c:	00 d0       	rcall	.+0      	;  0xf8e
     f8e:	00 d0       	rcall	.+0      	;  0xf90
     f90:	0f 92       	push	r0
     f92:	cd b7       	in	r28, 0x3d	; 61
     f94:	de b7       	in	r29, 0x3e	; 62
     f96:	49 83       	std	Y+1, r20	; 0x01
     f98:	5a 83       	std	Y+2, r21	; 0x02
     f9a:	6b 83       	std	Y+3, r22	; 0x03
     f9c:	30 91 d7 01 	lds	r19, 0x01D7	;  0x8001d7
     fa0:	89 81       	ldd	r24, Y+1	; 0x01
     fa2:	9a 81       	ldd	r25, Y+2	; 0x02
     fa4:	31 11       	cpse	r19, r1
     fa6:	1d c0       	rjmp	.+58     	;  0xfe2
     fa8:	66 23       	and	r22, r22
     faa:	b9 f0       	breq	.+46     	;  0xfda
     fac:	22 23       	and	r18, r18
     fae:	a9 f0       	breq	.+42     	;  0xfda
     fb0:	0e 94 de 18 	call	0x31bc	;  0x31bc
     fb4:	18 2f       	mov	r17, r24
     fb6:	68 2f       	mov	r22, r24
     fb8:	89 81       	ldd	r24, Y+1	; 0x01
     fba:	9a 81       	ldd	r25, Y+2	; 0x02
     fbc:	0e 94 8b 18 	call	0x3116	;  0x3116
     fc0:	69 81       	ldd	r22, Y+1	; 0x01
     fc2:	7a 81       	ldd	r23, Y+2	; 0x02
     fc4:	81 2f       	mov	r24, r17
     fc6:	0f 90       	pop	r0
     fc8:	0f 90       	pop	r0
     fca:	0f 90       	pop	r0
     fcc:	0f 90       	pop	r0
     fce:	0f 90       	pop	r0
     fd0:	df 91       	pop	r29
     fd2:	cf 91       	pop	r28
     fd4:	1f 91       	pop	r17
     fd6:	0c 94 46 09 	jmp	0x128c	;  0x128c
     fda:	0e 94 b7 18 	call	0x316e	;  0x316e
     fde:	18 2f       	mov	r17, r24
     fe0:	ef cf       	rjmp	.-34     	;  0xfc0
     fe2:	0e 94 de 18 	call	0x31bc	;  0x31bc
     fe6:	69 81       	ldd	r22, Y+1	; 0x01
     fe8:	7a 81       	ldd	r23, Y+2	; 0x02
     fea:	ed cf       	rjmp	.-38     	;  0xfc6
     fec:	fc 01       	movw	r30, r24
     fee:	26 2f       	mov	r18, r22
     ff0:	40 81       	ld	r20, Z
     ff2:	51 81       	ldd	r21, Z+1	; 0x01
     ff4:	62 81       	ldd	r22, Z+2	; 0x02
     ff6:	73 81       	ldd	r23, Z+3	; 0x03
     ff8:	84 81       	ldd	r24, Z+4	; 0x04
     ffa:	0c 94 c3 07 	jmp	0xf86	;  0xf86
     ffe:	cf 93       	push	r28
    1000:	df 93       	push	r29
    1002:	ec 01       	movw	r28, r24
    1004:	60 e0       	ldi	r22, 0x00	; 0
    1006:	0e 94 f6 07 	call	0xfec	;  0xfec
    100a:	be 01       	movw	r22, r28
    100c:	df 91       	pop	r29
    100e:	cf 91       	pop	r28
    1010:	0c 94 c1 07 	jmp	0xf82	;  0xf82
    1014:	ff 92       	push	r15
    1016:	0f 93       	push	r16
    1018:	1f 93       	push	r17
    101a:	cf 93       	push	r28
    101c:	df 93       	push	r29
    101e:	e8 2f       	mov	r30, r24
    1020:	f0 e0       	ldi	r31, 0x00	; 0
    1022:	e7 5a       	subi	r30, 0xA7	; 167
    1024:	fe 4f       	sbci	r31, 0xFE	; 254
    1026:	f4 90       	lpm	r15, Z
    1028:	c8 2f       	mov	r28, r24
    102a:	c6 95       	lsr	r28
    102c:	c6 95       	lsr	r28
    102e:	c6 95       	lsr	r28
    1030:	d0 e0       	ldi	r29, 0x00	; 0
    1032:	fe 01       	movw	r30, r28
    1034:	e7 51       	subi	r30, 0x17	; 23
    1036:	fe 4f       	sbci	r31, 0xFE	; 254
    1038:	04 91       	lpm	r16, Z
    103a:	87 70       	andi	r24, 0x07	; 7
    103c:	10 e0       	ldi	r17, 0x00	; 0
    103e:	08 2e       	mov	r0, r24
    1040:	02 c0       	rjmp	.+4      	;  0x1046
    1042:	15 95       	asr	r17
    1044:	07 95       	ror	r16
    1046:	0a 94       	dec	r0
    1048:	e2 f7       	brpl	.-8      	;  0x1042
    104a:	01 70       	andi	r16, 0x01	; 1
    104c:	11 27       	eor	r17, r17
    104e:	c7 52       	subi	r28, 0x27	; 39
    1050:	de 4f       	sbci	r29, 0xFE	; 254
    1052:	fe 01       	movw	r30, r28
    1054:	c4 91       	lpm	r28, Z
    1056:	d0 e0       	ldi	r29, 0x00	; 0
    1058:	02 c0       	rjmp	.+4      	;  0x105e
    105a:	d5 95       	asr	r29
    105c:	c7 95       	ror	r28
    105e:	8a 95       	dec	r24
    1060:	e2 f7       	brpl	.-8      	;  0x105a
    1062:	c1 70       	andi	r28, 0x01	; 1
    1064:	dd 27       	eor	r29, r29
    1066:	01 15       	cp	r16, r1
    1068:	11 05       	cpc	r17, r1
    106a:	19 f0       	breq	.+6      	;  0x1072
    106c:	81 ee       	ldi	r24, 0xE1	; 225
    106e:	0e 94 52 10 	call	0x20a4	;  0x20a4
    1072:	20 97       	sbiw	r28, 0x00	; 0
    1074:	19 f0       	breq	.+6      	;  0x107c
    1076:	86 ee       	ldi	r24, 0xE6	; 230
    1078:	0e 94 52 10 	call	0x20a4	;  0x20a4
    107c:	8f 2d       	mov	r24, r15
    107e:	0e 94 3f 11 	call	0x227e	;  0x227e
    1082:	cd 2b       	or	r28, r29
    1084:	19 f0       	breq	.+6      	;  0x108c
    1086:	86 ee       	ldi	r24, 0xE6	; 230
    1088:	0e 94 e9 10 	call	0x21d2	;  0x21d2
    108c:	01 2b       	or	r16, r17
    108e:	41 f0       	breq	.+16     	;  0x10a0
    1090:	81 ee       	ldi	r24, 0xE1	; 225
    1092:	df 91       	pop	r29
    1094:	cf 91       	pop	r28
    1096:	1f 91       	pop	r17
    1098:	0f 91       	pop	r16
    109a:	ff 90       	pop	r15
    109c:	0c 94 e9 10 	jmp	0x21d2	;  0x21d2
    10a0:	df 91       	pop	r29
    10a2:	cf 91       	pop	r28
    10a4:	1f 91       	pop	r17
    10a6:	0f 91       	pop	r16
    10a8:	ff 90       	pop	r15
    10aa:	08 95       	ret
    10ac:	ef 92       	push	r14
    10ae:	ff 92       	push	r15
    10b0:	0f 93       	push	r16
    10b2:	1f 93       	push	r17
    10b4:	cf 93       	push	r28
    10b6:	df 93       	push	r29
    10b8:	8c 01       	movw	r16, r24
    10ba:	f6 2e       	mov	r15, r22
    10bc:	8a e0       	ldi	r24, 0x0A	; 10
    10be:	e8 2e       	mov	r14, r24
    10c0:	f8 01       	movw	r30, r16
    10c2:	84 91       	lpm	r24, Z
    10c4:	88 23       	and	r24, r24
    10c6:	09 f4       	brne	.+2      	;  0x10ca
    10c8:	56 c0       	rjmp	.+172    	;  0x1176
    10ca:	81 30       	cpi	r24, 0x01	; 1
    10cc:	09 f0       	breq	.+2      	;  0x10d0
    10ce:	4f c0       	rjmp	.+158    	;  0x116e
    10d0:	e8 01       	movw	r28, r16
    10d2:	21 96       	adiw	r28, 0x01	; 1
    10d4:	fe 01       	movw	r30, r28
    10d6:	84 91       	lpm	r24, Z
    10d8:	81 30       	cpi	r24, 0x01	; 1
    10da:	51 f4       	brne	.+20     	;  0x10f0
    10dc:	21 96       	adiw	r28, 0x01	; 1
    10de:	fe 01       	movw	r30, r28
    10e0:	14 91       	lpm	r17, Z
    10e2:	81 2f       	mov	r24, r17
    10e4:	0e 94 52 10 	call	0x20a4	;  0x20a4
    10e8:	81 2f       	mov	r24, r17
    10ea:	0e 94 e9 10 	call	0x21d2	;  0x21d2
    10ee:	08 c0       	rjmp	.+16     	;  0x1100
    10f0:	82 30       	cpi	r24, 0x02	; 2
    10f2:	99 f4       	brne	.+38     	;  0x111a
    10f4:	e8 01       	movw	r28, r16
    10f6:	22 96       	adiw	r28, 0x02	; 2
    10f8:	fe 01       	movw	r30, r28
    10fa:	84 91       	lpm	r24, Z
    10fc:	0e 94 52 10 	call	0x20a4	;  0x20a4
    1100:	8e 01       	movw	r16, r28
    1102:	0f 5f       	subi	r16, 0xFF	; 255
    1104:	1f 4f       	sbci	r17, 0xFF	; 255
    1106:	8f 2d       	mov	r24, r15
    1108:	81 50       	subi	r24, 0x01	; 1
    110a:	d0 f2       	brcs	.-76     	;  0x10c0
    110c:	ef e9       	ldi	r30, 0x9F	; 159
    110e:	ff e0       	ldi	r31, 0x0F	; 15
    1110:	31 97       	sbiw	r30, 0x01	; 1
    1112:	f1 f7       	brne	.-4      	;  0x1110
    1114:	00 c0       	rjmp	.+0      	;  0x1116
    1116:	00 00       	nop
    1118:	f7 cf       	rjmp	.-18     	;  0x1108
    111a:	83 30       	cpi	r24, 0x03	; 3
    111c:	29 f4       	brne	.+10     	;  0x1128
    111e:	e8 01       	movw	r28, r16
    1120:	22 96       	adiw	r28, 0x02	; 2
    1122:	fe 01       	movw	r30, r28
    1124:	84 91       	lpm	r24, Z
    1126:	e1 cf       	rjmp	.-62     	;  0x10ea
    1128:	84 30       	cpi	r24, 0x04	; 4
    112a:	51 f7       	brne	.-44     	;  0x1100
    112c:	e8 01       	movw	r28, r16
    112e:	22 96       	adiw	r28, 0x02	; 2
    1130:	fe 01       	movw	r30, r28
    1132:	24 91       	lpm	r18, Z
    1134:	90 e0       	ldi	r25, 0x00	; 0
    1136:	80 e0       	ldi	r24, 0x00	; 0
    1138:	fe 01       	movw	r30, r28
    113a:	31 96       	adiw	r30, 0x01	; 1
    113c:	20 53       	subi	r18, 0x30	; 48
    113e:	33 0b       	sbc	r19, r19
    1140:	2a 30       	cpi	r18, 0x0A	; 10
    1142:	31 05       	cpc	r19, r1
    1144:	48 f0       	brcs	.+18     	;  0x1158
    1146:	01 97       	sbiw	r24, 0x01	; 1
    1148:	d8 f2       	brcs	.-74     	;  0x1100
    114a:	ef e9       	ldi	r30, 0x9F	; 159
    114c:	ff e0       	ldi	r31, 0x0F	; 15
    114e:	31 97       	sbiw	r30, 0x01	; 1
    1150:	f1 f7       	brne	.-4      	;  0x114e
    1152:	00 c0       	rjmp	.+0      	;  0x1154
    1154:	00 00       	nop
    1156:	f7 cf       	rjmp	.-18     	;  0x1146
    1158:	e8 9e       	mul	r14, r24
    115a:	a0 01       	movw	r20, r0
    115c:	e9 9e       	mul	r14, r25
    115e:	50 0d       	add	r21, r0
    1160:	11 24       	eor	r1, r1
    1162:	c9 01       	movw	r24, r18
    1164:	84 0f       	add	r24, r20
    1166:	95 1f       	adc	r25, r21
    1168:	24 91       	lpm	r18, Z
    116a:	ef 01       	movw	r28, r30
    116c:	e5 cf       	rjmp	.-54     	;  0x1138
    116e:	0e 94 0a 08 	call	0x1014	;  0x1014
    1172:	e8 01       	movw	r28, r16
    1174:	c5 cf       	rjmp	.-118    	;  0x1100
    1176:	df 91       	pop	r29
    1178:	cf 91       	pop	r28
    117a:	1f 91       	pop	r17
    117c:	0f 91       	pop	r16
    117e:	ff 90       	pop	r15
    1180:	ef 90       	pop	r14
    1182:	08 95       	ret
    1184:	60 e0       	ldi	r22, 0x00	; 0
    1186:	0c 94 56 08 	jmp	0x10ac	;  0x10ac
    118a:	0e 94 1e 1c 	call	0x383c	;  0x383c
    118e:	0e 94 45 1a 	call	0x348a	;  0x348a
    1192:	81 11       	cpse	r24, r1
    1194:	02 c0       	rjmp	.+4      	;  0x119a
    1196:	0e 94 e2 1a 	call	0x35c4	;  0x35c4
    119a:	0c 94 52 0b 	jmp	0x16a4	;  0x16a4
    119e:	0c 94 55 0b 	jmp	0x16aa	;  0x16aa
    11a2:	08 95       	ret
    11a4:	0c 94 d1 08 	jmp	0x11a2	;  0x11a2
    11a8:	81 e0       	ldi	r24, 0x01	; 1
    11aa:	08 95       	ret
    11ac:	0c 94 d4 08 	jmp	0x11a8	;  0x11a8
    11b0:	cf 93       	push	r28
    11b2:	c8 2f       	mov	r28, r24
    11b4:	0e 94 d2 08 	call	0x11a4	;  0x11a4
    11b8:	8c 2f       	mov	r24, r28
    11ba:	cf 91       	pop	r28
    11bc:	0c 94 d6 08 	jmp	0x11ac	;  0x11ac
    11c0:	08 95       	ret
    11c2:	0e 94 f5 13 	call	0x27ea	;  0x27ea
    11c6:	0e 94 e0 08 	call	0x11c0	;  0x11c0
    11ca:	2f ef       	ldi	r18, 0xFF	; 255
    11cc:	84 e3       	ldi	r24, 0x34	; 52
    11ce:	9c e0       	ldi	r25, 0x0C	; 12
    11d0:	21 50       	subi	r18, 0x01	; 1
    11d2:	80 40       	sbci	r24, 0x00	; 0
    11d4:	90 40       	sbci	r25, 0x00	; 0
    11d6:	e1 f7       	brne	.-8      	;  0x11d0
    11d8:	00 c0       	rjmp	.+0      	;  0x11da
    11da:	00 00       	nop
    11dc:	0c 94 0b 1c 	jmp	0x3816	;  0x3816
    11e0:	0f 93       	push	r16
    11e2:	1f 93       	push	r17
    11e4:	cf 93       	push	r28
    11e6:	df 93       	push	r29
    11e8:	ec 01       	movw	r28, r24
    11ea:	61 e0       	ldi	r22, 0x01	; 1
    11ec:	0e 94 f6 07 	call	0xfec	;  0xfec
    11f0:	8c 01       	movw	r16, r24
    11f2:	be 01       	movw	r22, r28
    11f4:	0e 94 be 07 	call	0xf7c	;  0xf7c
    11f8:	88 23       	and	r24, r24
    11fa:	11 f1       	breq	.+68     	;  0x1240
    11fc:	be 01       	movw	r22, r28
    11fe:	c8 01       	movw	r24, r16
    1200:	0e 94 1f 0d 	call	0x1a3e	;  0x1a3e
    1204:	88 23       	and	r24, r24
    1206:	e1 f0       	breq	.+56     	;  0x1240
    1208:	be 01       	movw	r22, r28
    120a:	c8 01       	movw	r24, r16
    120c:	0e 94 60 0d 	call	0x1ac0	;  0x1ac0
    1210:	88 23       	and	r24, r24
    1212:	b1 f0       	breq	.+44     	;  0x1240
    1214:	be 01       	movw	r22, r28
    1216:	c8 01       	movw	r24, r16
    1218:	0e 94 83 0e 	call	0x1d06	;  0x1d06
    121c:	88 23       	and	r24, r24
    121e:	81 f0       	breq	.+32     	;  0x1240
    1220:	8a 81       	ldd	r24, Y+2	; 0x02
    1222:	88 23       	and	r24, r24
    1224:	41 f1       	breq	.+80     	;  0x1276
    1226:	01 30       	cpi	r16, 0x01	; 1
    1228:	8c e5       	ldi	r24, 0x5C	; 92
    122a:	18 07       	cpc	r17, r24
    122c:	79 f0       	breq	.+30     	;  0x124c
    122e:	0e 3d       	cpi	r16, 0xDE	; 222
    1230:	8c e5       	ldi	r24, 0x5C	; 92
    1232:	18 07       	cpc	r17, r24
    1234:	e9 f0       	breq	.+58     	;  0x1270
    1236:	01 15       	cp	r16, r1
    1238:	1c 45       	sbci	r17, 0x5C	; 92
    123a:	e9 f4       	brne	.+58     	;  0x1276
    123c:	0e 94 e1 08 	call	0x11c2	;  0x11c2
    1240:	80 e0       	ldi	r24, 0x00	; 0
    1242:	df 91       	pop	r29
    1244:	cf 91       	pop	r28
    1246:	1f 91       	pop	r17
    1248:	0f 91       	pop	r16
    124a:	08 95       	ret
    124c:	90 91 34 02 	lds	r25, 0x0234	;  0x800234
    1250:	89 2f       	mov	r24, r25
    1252:	8e 7f       	andi	r24, 0xFE	; 254
    1254:	90 ff       	sbrs	r25, 0
    1256:	81 60       	ori	r24, 0x01	; 1
    1258:	80 93 34 02 	sts	0x0234, r24	;  0x800234
    125c:	80 ff       	sbrs	r24, 0
    125e:	05 c0       	rjmp	.+10     	;  0x126a
    1260:	88 e4       	ldi	r24, 0x48	; 72
    1262:	91 e0       	ldi	r25, 0x01	; 1
    1264:	0e 94 9a 06 	call	0xd34	;  0xd34
    1268:	eb cf       	rjmp	.-42     	;  0x1240
    126a:	86 e3       	ldi	r24, 0x36	; 54
    126c:	91 e0       	ldi	r25, 0x01	; 1
    126e:	fa cf       	rjmp	.-12     	;  0x1264
    1270:	0e 94 e2 1a 	call	0x35c4	;  0x35c4
    1274:	e5 cf       	rjmp	.-54     	;  0x1240
    1276:	ce 01       	movw	r24, r28
    1278:	df 91       	pop	r29
    127a:	cf 91       	pop	r28
    127c:	1f 91       	pop	r17
    127e:	0f 91       	pop	r16
    1280:	0c 94 bc 07 	jmp	0xf78	;  0xf78
    1284:	90 e0       	ldi	r25, 0x00	; 0
    1286:	80 e0       	ldi	r24, 0x00	; 0
    1288:	08 95       	ret
    128a:	08 95       	ret
    128c:	e7 2f       	mov	r30, r23
    128e:	f0 e0       	ldi	r31, 0x00	; 0
    1290:	95 e0       	ldi	r25, 0x05	; 5
    1292:	89 9f       	mul	r24, r25
    1294:	e0 0d       	add	r30, r0
    1296:	f1 1d       	adc	r31, r1
    1298:	11 24       	eor	r1, r1
    129a:	ee 0f       	add	r30, r30
    129c:	ff 1f       	adc	r31, r31
    129e:	ee 0f       	add	r30, r30
    12a0:	ff 1f       	adc	r31, r31
    12a2:	e6 0f       	add	r30, r22
    12a4:	f1 1d       	adc	r31, r1
    12a6:	ee 0f       	add	r30, r30
    12a8:	ff 1f       	adc	r31, r31
    12aa:	ea 51       	subi	r30, 0x1A	; 26
    12ac:	ff 4f       	sbci	r31, 0xFF	; 255
    12ae:	85 91       	lpm	r24, Z+
    12b0:	94 91       	lpm	r25, Z
    12b2:	08 95       	ret
    12b4:	fc 01       	movw	r30, r24
    12b6:	ee 0f       	add	r30, r30
    12b8:	ff 1f       	adc	r31, r31
    12ba:	e7 50       	subi	r30, 0x07	; 7
    12bc:	fe 4f       	sbci	r31, 0xFE	; 254
    12be:	85 91       	lpm	r24, Z+
    12c0:	94 91       	lpm	r25, Z
    12c2:	08 95       	ret
    12c4:	cf 93       	push	r28
    12c6:	df 93       	push	r29
    12c8:	0e 94 46 09 	call	0x128c	;  0x128c
    12cc:	0e 94 77 0a 	call	0x14ee	;  0x14ee
    12d0:	ec 01       	movw	r28, r24
    12d2:	81 15       	cp	r24, r1
    12d4:	20 e5       	ldi	r18, 0x50	; 80
    12d6:	92 07       	cpc	r25, r18
    12d8:	08 f0       	brcs	.+2      	;  0x12dc
    12da:	42 c0       	rjmp	.+132    	;  0x1360
    12dc:	81 15       	cp	r24, r1
    12de:	30 e4       	ldi	r19, 0x40	; 64
    12e0:	93 07       	cpc	r25, r19
    12e2:	08 f0       	brcs	.+2      	;  0x12e6
    12e4:	bd c0       	rjmp	.+378    	;  0x1460
    12e6:	88 3e       	cpi	r24, 0xE8	; 232
    12e8:	91 05       	cpc	r25, r1
    12ea:	28 f5       	brcc	.+74     	;  0x1336
    12ec:	80 3e       	cpi	r24, 0xE0	; 224
    12ee:	91 05       	cpc	r25, r1
    12f0:	08 f0       	brcs	.+2      	;  0x12f4
    12f2:	9d c0       	rjmp	.+314    	;  0x142e
    12f4:	88 3a       	cpi	r24, 0xA8	; 168
    12f6:	91 05       	cpc	r25, r1
    12f8:	88 f4       	brcc	.+34     	;  0x131c
    12fa:	85 3a       	cpi	r24, 0xA5	; 165
    12fc:	91 05       	cpc	r25, r1
    12fe:	08 f0       	brcs	.+2      	;  0x1302
    1300:	8f c0       	rjmp	.+286    	;  0x1420
    1302:	81 30       	cpi	r24, 0x01	; 1
    1304:	91 05       	cpc	r25, r1
    1306:	09 f4       	brne	.+2      	;  0x130a
    1308:	92 c0       	rjmp	.+292    	;  0x142e
    130a:	00 97       	sbiw	r24, 0x00	; 0
    130c:	09 f4       	brne	.+2      	;  0x1310
    130e:	8f c0       	rjmp	.+286    	;  0x142e
    1310:	04 97       	sbiw	r24, 0x04	; 4
    1312:	08 f0       	brcs	.+2      	;  0x1316
    1314:	8c c0       	rjmp	.+280    	;  0x142e
    1316:	d0 e0       	ldi	r29, 0x00	; 0
    1318:	c0 e0       	ldi	r28, 0x00	; 0
    131a:	89 c0       	rjmp	.+274    	;  0x142e
    131c:	8f 3b       	cpi	r24, 0xBF	; 191
    131e:	91 05       	cpc	r25, r1
    1320:	08 f4       	brcc	.+2      	;  0x1324
    1322:	89 c0       	rjmp	.+274    	;  0x1436
    1324:	80 5c       	subi	r24, 0xC0	; 192
    1326:	91 09       	sbc	r25, r1
    1328:	c0 3c       	cpi	r28, 0xC0	; 192
    132a:	d1 05       	cpc	r29, r1
    132c:	a0 f3       	brcs	.-24     	;  0x1316
    132e:	0e 94 5a 09 	call	0x12b4	;  0x12b4
    1332:	ec 01       	movw	r28, r24
    1334:	7c c0       	rjmp	.+248    	;  0x142e
    1336:	81 15       	cp	r24, r1
    1338:	90 42       	sbci	r25, 0x20	; 32
    133a:	50 f4       	brcc	.+20     	;  0x1350
    133c:	c1 15       	cp	r28, r1
    133e:	81 e0       	ldi	r24, 0x01	; 1
    1340:	d8 07       	cpc	r29, r24
    1342:	08 f0       	brcs	.+2      	;  0x1346
    1344:	74 c0       	rjmp	.+232    	;  0x142e
    1346:	c0 3f       	cpi	r28, 0xF0	; 240
    1348:	d1 05       	cpc	r29, r1
    134a:	28 f3       	brcs	.-54     	;  0x1316
    134c:	d0 65       	ori	r29, 0x50	; 80
    134e:	6f c0       	rjmp	.+222    	;  0x142e
    1350:	c1 15       	cp	r28, r1
    1352:	90 e3       	ldi	r25, 0x30	; 48
    1354:	d9 07       	cpc	r29, r25
    1356:	08 f0       	brcs	.+2      	;  0x135a
    1358:	79 c0       	rjmp	.+242    	;  0x144c
    135a:	ce 01       	movw	r24, r28
    135c:	9f 70       	andi	r25, 0x0F	; 15
    135e:	e7 cf       	rjmp	.-50     	;  0x132e
    1360:	81 15       	cp	r24, r1
    1362:	25 e5       	ldi	r18, 0x55	; 85
    1364:	92 07       	cpc	r25, r18
    1366:	58 f5       	brcc	.+86     	;  0x13be
    1368:	81 15       	cp	r24, r1
    136a:	34 e5       	ldi	r19, 0x54	; 84
    136c:	93 07       	cpc	r25, r19
    136e:	08 f0       	brcs	.+2      	;  0x1372
    1370:	a6 c0       	rjmp	.+332    	;  0x14be
    1372:	81 15       	cp	r24, r1
    1374:	42 e5       	ldi	r20, 0x52	; 82
    1376:	94 07       	cpc	r25, r20
    1378:	50 f4       	brcc	.+20     	;  0x138e
    137a:	c1 15       	cp	r28, r1
    137c:	81 e5       	ldi	r24, 0x51	; 81
    137e:	d8 07       	cpc	r29, r24
    1380:	08 f4       	brcc	.+2      	;  0x1384
    1382:	71 c0       	rjmp	.+226    	;  0x1466
    1384:	dc 2f       	mov	r29, r28
    1386:	cc 27       	eor	r28, r28
    1388:	c1 6f       	ori	r28, 0xF1	; 241
    138a:	d0 6a       	ori	r29, 0xA0	; 160
    138c:	50 c0       	rjmp	.+160    	;  0x142e
    138e:	98 2f       	mov	r25, r24
    1390:	96 95       	lsr	r25
    1392:	96 95       	lsr	r25
    1394:	9e 01       	movw	r18, r28
    1396:	23 70       	andi	r18, 0x03	; 3
    1398:	33 27       	eor	r19, r19
    139a:	c1 15       	cp	r28, r1
    139c:	d3 45       	sbci	r29, 0x53	; 83
    139e:	08 f0       	brcs	.+2      	;  0x13a2
    13a0:	7f c0       	rjmp	.+254    	;  0x14a0
    13a2:	c1 e0       	ldi	r28, 0x01	; 1
    13a4:	d0 e0       	ldi	r29, 0x00	; 0
    13a6:	02 c0       	rjmp	.+4      	;  0x13ac
    13a8:	cc 0f       	add	r28, r28
    13aa:	dd 1f       	adc	r29, r29
    13ac:	2a 95       	dec	r18
    13ae:	e2 f7       	brpl	.-8      	;  0x13a8
    13b0:	20 e2       	ldi	r18, 0x20	; 32
    13b2:	92 9f       	mul	r25, r18
    13b4:	c0 01       	movw	r24, r0
    13b6:	11 24       	eor	r1, r1
    13b8:	c8 2b       	or	r28, r24
    13ba:	d9 2b       	or	r29, r25
    13bc:	6f c0       	rjmp	.+222    	;  0x149c
    13be:	c1 15       	cp	r28, r1
    13c0:	89 e5       	ldi	r24, 0x59	; 89
    13c2:	d8 07       	cpc	r29, r24
    13c4:	a8 f4       	brcc	.+42     	;  0x13f0
    13c6:	c1 15       	cp	r28, r1
    13c8:	98 e5       	ldi	r25, 0x58	; 88
    13ca:	d9 07       	cpc	r29, r25
    13cc:	08 f0       	brcs	.+2      	;  0x13d0
    13ce:	7c c0       	rjmp	.+248    	;  0x14c8
    13d0:	c1 15       	cp	r28, r1
    13d2:	26 e5       	ldi	r18, 0x56	; 86
    13d4:	d2 07       	cpc	r29, r18
    13d6:	08 f0       	brcs	.+2      	;  0x13da
    13d8:	9e cf       	rjmp	.-196    	;  0x1316
    13da:	8c 2f       	mov	r24, r28
    13dc:	0e 94 0e 0b 	call	0x161c	;  0x161c
    13e0:	c8 2f       	mov	r28, r24
    13e2:	d0 e0       	ldi	r29, 0x00	; 0
    13e4:	dc 2f       	mov	r29, r28
    13e6:	cc 27       	eor	r28, r28
    13e8:	cc 27       	eor	r28, r28
    13ea:	df 71       	andi	r29, 0x1F	; 31
    13ec:	d0 62       	ori	r29, 0x20	; 32
    13ee:	1f c0       	rjmp	.+62     	;  0x142e
    13f0:	c1 15       	cp	r28, r1
    13f2:	3a e5       	ldi	r19, 0x5A	; 90
    13f4:	d3 07       	cpc	r29, r19
    13f6:	08 f4       	brcc	.+2      	;  0x13fa
    13f8:	6c c0       	rjmp	.+216    	;  0x14d2
    13fa:	ce 01       	movw	r24, r28
    13fc:	90 56       	subi	r25, 0x60	; 96
    13fe:	81 15       	cp	r24, r1
    1400:	90 42       	sbci	r25, 0x20	; 32
    1402:	08 f0       	brcs	.+2      	;  0x1406
    1404:	88 cf       	rjmp	.-240    	;  0x1316
    1406:	8d 2f       	mov	r24, r29
    1408:	8f 71       	andi	r24, 0x1F	; 31
    140a:	0e 94 0e 0b 	call	0x161c	;  0x161c
    140e:	90 e0       	ldi	r25, 0x00	; 0
    1410:	98 2f       	mov	r25, r24
    1412:	88 27       	eor	r24, r24
    1414:	88 27       	eor	r24, r24
    1416:	9f 71       	andi	r25, 0x1F	; 31
    1418:	9c 01       	movw	r18, r24
    141a:	2c 2b       	or	r18, r28
    141c:	e9 01       	movw	r28, r18
    141e:	e6 cf       	rjmp	.-52     	;  0x13ec
    1420:	c5 5a       	subi	r28, 0xA5	; 165
    1422:	d0 e0       	ldi	r29, 0x00	; 0
    1424:	c4 59       	subi	r28, 0x94	; 148
    1426:	de 4f       	sbci	r29, 0xFE	; 254
    1428:	c8 81       	ld	r28, Y
    142a:	d0 e0       	ldi	r29, 0x00	; 0
    142c:	d0 64       	ori	r29, 0x40	; 64
    142e:	ce 01       	movw	r24, r28
    1430:	df 91       	pop	r29
    1432:	cf 91       	pop	r28
    1434:	08 95       	ret
    1436:	c8 5a       	subi	r28, 0xA8	; 168
    1438:	d0 e0       	ldi	r29, 0x00	; 0
    143a:	cc 0f       	add	r28, r28
    143c:	dd 1f       	adc	r29, r29
    143e:	c2 5c       	subi	r28, 0xC2	; 194
    1440:	de 4f       	sbci	r29, 0xFE	; 254
    1442:	09 90       	ld	r0, Y+
    1444:	d8 81       	ld	r29, Y
    1446:	c0 2d       	mov	r28, r0
    1448:	d4 64       	ori	r29, 0x44	; 68
    144a:	f1 cf       	rjmp	.-30     	;  0x142e
    144c:	ce 01       	movw	r24, r28
    144e:	99 27       	eor	r25, r25
    1450:	d3 ff       	sbrs	r29, 3
    1452:	03 c0       	rjmp	.+6      	;  0x145a
    1454:	ec 01       	movw	r28, r24
    1456:	d8 6c       	ori	r29, 0xC8	; 200
    1458:	ea cf       	rjmp	.-44     	;  0x142e
    145a:	ec 01       	movw	r28, r24
    145c:	d0 6c       	ori	r29, 0xC0	; 192
    145e:	e7 cf       	rjmp	.-50     	;  0x142e
    1460:	df 70       	andi	r29, 0x0F	; 15
    1462:	d0 6a       	ori	r29, 0xA0	; 160
    1464:	e4 cf       	rjmp	.-56     	;  0x142e
    1466:	ce 01       	movw	r24, r28
    1468:	e4 e0       	ldi	r30, 0x04	; 4
    146a:	96 95       	lsr	r25
    146c:	87 95       	ror	r24
    146e:	ea 95       	dec	r30
    1470:	e1 f7       	brne	.-8      	;  0x146a
    1472:	83 70       	andi	r24, 0x03	; 3
    1474:	2c 2f       	mov	r18, r28
    1476:	26 95       	lsr	r18
    1478:	26 95       	lsr	r18
    147a:	23 70       	andi	r18, 0x03	; 3
    147c:	90 e2       	ldi	r25, 0x20	; 32
    147e:	29 9f       	mul	r18, r25
    1480:	90 01       	movw	r18, r0
    1482:	11 24       	eor	r1, r1
    1484:	38 2b       	or	r19, r24
    1486:	8c 2f       	mov	r24, r28
    1488:	83 70       	andi	r24, 0x03	; 3
    148a:	c1 e0       	ldi	r28, 0x01	; 1
    148c:	d0 e0       	ldi	r29, 0x00	; 0
    148e:	02 c0       	rjmp	.+4      	;  0x1494
    1490:	cc 0f       	add	r28, r28
    1492:	dd 1f       	adc	r29, r29
    1494:	8a 95       	dec	r24
    1496:	e2 f7       	brpl	.-8      	;  0x1490
    1498:	c2 2b       	or	r28, r18
    149a:	d3 2b       	or	r29, r19
    149c:	dc 68       	ori	r29, 0x8C	; 140
    149e:	c7 cf       	rjmp	.-114    	;  0x142e
    14a0:	c1 e0       	ldi	r28, 0x01	; 1
    14a2:	d0 e0       	ldi	r29, 0x00	; 0
    14a4:	02 c0       	rjmp	.+4      	;  0x14aa
    14a6:	cc 0f       	add	r28, r28
    14a8:	dd 1f       	adc	r29, r29
    14aa:	2a 95       	dec	r18
    14ac:	e2 f7       	brpl	.-8      	;  0x14a6
    14ae:	30 e2       	ldi	r19, 0x20	; 32
    14b0:	93 9f       	mul	r25, r19
    14b2:	c0 01       	movw	r24, r0
    14b4:	11 24       	eor	r1, r1
    14b6:	c8 2b       	or	r28, r24
    14b8:	d9 2b       	or	r29, r25
    14ba:	da 68       	ori	r29, 0x8A	; 138
    14bc:	b8 cf       	rjmp	.-144    	;  0x142e
    14be:	d8 2f       	mov	r29, r24
    14c0:	cc 27       	eor	r28, r28
    14c2:	c4 6f       	ori	r28, 0xF4	; 244
    14c4:	d0 6a       	ori	r29, 0xA0	; 160
    14c6:	b3 cf       	rjmp	.-154    	;  0x142e
    14c8:	dc 2f       	mov	r29, r28
    14ca:	cc 27       	eor	r28, r28
    14cc:	c0 6f       	ori	r28, 0xF0	; 240
    14ce:	d0 6a       	ori	r29, 0xA0	; 160
    14d0:	ae cf       	rjmp	.-164    	;  0x142e
    14d2:	8c 2f       	mov	r24, r28
    14d4:	8f 70       	andi	r24, 0x0F	; 15
    14d6:	0e 94 0e 0b 	call	0x161c	;  0x161c
    14da:	34 e0       	ldi	r19, 0x04	; 4
    14dc:	d6 95       	lsr	r29
    14de:	c7 95       	ror	r28
    14e0:	3a 95       	dec	r19
    14e2:	e1 f7       	brne	.-8      	;  0x14dc
    14e4:	cf 70       	andi	r28, 0x0F	; 15
    14e6:	9c 2f       	mov	r25, r28
    14e8:	ec 01       	movw	r28, r24
    14ea:	d0 69       	ori	r29, 0x90	; 144
    14ec:	a0 cf       	rjmp	.-192    	;  0x142e
    14ee:	82 38       	cpi	r24, 0x82	; 130
    14f0:	91 05       	cpc	r25, r1
    14f2:	b1 f1       	breq	.+108    	;  0x1560
    14f4:	b0 f4       	brcc	.+44     	;  0x1522
    14f6:	81 33       	cpi	r24, 0x31	; 49
    14f8:	91 05       	cpc	r25, r1
    14fa:	09 f4       	brne	.+2      	;  0x14fe
    14fc:	75 c0       	rjmp	.+234    	;  0x15e8
    14fe:	48 f4       	brcc	.+18     	;  0x1512
    1500:	89 32       	cpi	r24, 0x29	; 41
    1502:	91 05       	cpc	r25, r1
    1504:	09 f4       	brne	.+2      	;  0x1508
    1506:	69 c0       	rjmp	.+210    	;  0x15da
    1508:	8a 32       	cpi	r24, 0x2A	; 42
    150a:	91 05       	cpc	r25, r1
    150c:	09 f4       	brne	.+2      	;  0x1510
    150e:	73 c0       	rjmp	.+230    	;  0x15f6
    1510:	08 95       	ret
    1512:	85 33       	cpi	r24, 0x35	; 53
    1514:	91 05       	cpc	r25, r1
    1516:	09 f4       	brne	.+2      	;  0x151a
    1518:	59 c0       	rjmp	.+178    	;  0x15cc
    151a:	89 33       	cpi	r24, 0x39	; 57
    151c:	91 05       	cpc	r25, r1
    151e:	01 f1       	breq	.+64     	;  0x1560
    1520:	08 95       	ret
    1522:	83 3e       	cpi	r24, 0xE3	; 227
    1524:	91 05       	cpc	r25, r1
    1526:	a9 f1       	breq	.+106    	;  0x1592
    1528:	38 f4       	brcc	.+14     	;  0x1538
    152a:	80 3e       	cpi	r24, 0xE0	; 224
    152c:	91 05       	cpc	r25, r1
    152e:	f9 f0       	breq	.+62     	;  0x156e
    1530:	82 3e       	cpi	r24, 0xE2	; 226
    1532:	91 05       	cpc	r25, r1
    1534:	49 f1       	breq	.+82     	;  0x1588
    1536:	08 95       	ret
    1538:	86 3e       	cpi	r24, 0xE6	; 230
    153a:	91 05       	cpc	r25, r1
    153c:	a9 f1       	breq	.+106    	;  0x15a8
    153e:	87 3e       	cpi	r24, 0xE7	; 231
    1540:	91 05       	cpc	r25, r1
    1542:	c9 f1       	breq	.+114    	;  0x15b6
    1544:	84 3e       	cpi	r24, 0xE4	; 228
    1546:	91 05       	cpc	r25, r1
    1548:	19 f5       	brne	.+70     	;  0x1590
    154a:	20 91 65 02 	lds	r18, 0x0265	;  0x800265
    154e:	21 ff       	sbrs	r18, 1
    1550:	1f c0       	rjmp	.+62     	;  0x1590
    1552:	80 91 64 02 	lds	r24, 0x0264	;  0x800264
    1556:	84 fd       	sbrc	r24, 4
    1558:	14 c0       	rjmp	.+40     	;  0x1582
    155a:	87 ee       	ldi	r24, 0xE7	; 231
    155c:	90 e0       	ldi	r25, 0x00	; 0
    155e:	08 95       	ret
    1560:	20 91 64 02 	lds	r18, 0x0264	;  0x800264
    1564:	23 70       	andi	r18, 0x03	; 3
    1566:	a1 f0       	breq	.+40     	;  0x1590
    1568:	80 ee       	ldi	r24, 0xE0	; 224
    156a:	90 e0       	ldi	r25, 0x00	; 0
    156c:	08 95       	ret
    156e:	20 91 64 02 	lds	r18, 0x0264	;  0x800264
    1572:	20 fd       	sbrc	r18, 0
    1574:	47 c0       	rjmp	.+142    	;  0x1604
    1576:	30 91 65 02 	lds	r19, 0x0265	;  0x800265
    157a:	30 ff       	sbrs	r19, 0
    157c:	09 c0       	rjmp	.+18     	;  0x1590
    157e:	24 ff       	sbrs	r18, 4
    1580:	44 c0       	rjmp	.+136    	;  0x160a
    1582:	90 e0       	ldi	r25, 0x00	; 0
    1584:	80 e0       	ldi	r24, 0x00	; 0
    1586:	04 c0       	rjmp	.+8      	;  0x1590
    1588:	20 91 64 02 	lds	r18, 0x0264	;  0x800264
    158c:	22 fd       	sbrc	r18, 2
    158e:	f7 cf       	rjmp	.-18     	;  0x157e
    1590:	08 95       	ret
    1592:	20 91 64 02 	lds	r18, 0x0264	;  0x800264
    1596:	22 fd       	sbrc	r18, 2
    1598:	3b c0       	rjmp	.+118    	;  0x1610
    159a:	30 91 65 02 	lds	r19, 0x0265	;  0x800265
    159e:	30 fd       	sbrc	r19, 0
    15a0:	e3 cf       	rjmp	.-58     	;  0x1568
    15a2:	24 ff       	sbrs	r18, 4
    15a4:	f5 cf       	rjmp	.-22     	;  0x1590
    15a6:	ed cf       	rjmp	.-38     	;  0x1582
    15a8:	20 91 64 02 	lds	r18, 0x0264	;  0x800264
    15ac:	23 ff       	sbrs	r18, 3
    15ae:	f0 cf       	rjmp	.-32     	;  0x1590
    15b0:	24 fd       	sbrc	r18, 4
    15b2:	e7 cf       	rjmp	.-50     	;  0x1582
    15b4:	d2 cf       	rjmp	.-92     	;  0x155a
    15b6:	20 91 64 02 	lds	r18, 0x0264	;  0x800264
    15ba:	23 fd       	sbrc	r18, 3
    15bc:	2c c0       	rjmp	.+88     	;  0x1616
    15be:	30 91 65 02 	lds	r19, 0x0265	;  0x800265
    15c2:	31 ff       	sbrs	r19, 1
    15c4:	ee cf       	rjmp	.-36     	;  0x15a2
    15c6:	84 ee       	ldi	r24, 0xE4	; 228
    15c8:	90 e0       	ldi	r25, 0x00	; 0
    15ca:	08 95       	ret
    15cc:	20 91 64 02 	lds	r18, 0x0264	;  0x800264
    15d0:	25 ff       	sbrs	r18, 5
    15d2:	de cf       	rjmp	.-68     	;  0x1590
    15d4:	89 e2       	ldi	r24, 0x29	; 41
    15d6:	90 e0       	ldi	r25, 0x00	; 0
    15d8:	08 95       	ret
    15da:	20 91 64 02 	lds	r18, 0x0264	;  0x800264
    15de:	25 ff       	sbrs	r18, 5
    15e0:	d7 cf       	rjmp	.-82     	;  0x1590
    15e2:	85 e3       	ldi	r24, 0x35	; 53
    15e4:	90 e0       	ldi	r25, 0x00	; 0
    15e6:	08 95       	ret
    15e8:	20 91 64 02 	lds	r18, 0x0264	;  0x800264
    15ec:	26 ff       	sbrs	r18, 6
    15ee:	d0 cf       	rjmp	.-96     	;  0x1590
    15f0:	8a e2       	ldi	r24, 0x2A	; 42
    15f2:	90 e0       	ldi	r25, 0x00	; 0
    15f4:	08 95       	ret
    15f6:	20 91 64 02 	lds	r18, 0x0264	;  0x800264
    15fa:	26 ff       	sbrs	r18, 6
    15fc:	c9 cf       	rjmp	.-110    	;  0x1590
    15fe:	81 e3       	ldi	r24, 0x31	; 49
    1600:	90 e0       	ldi	r25, 0x00	; 0
    1602:	08 95       	ret
    1604:	89 e3       	ldi	r24, 0x39	; 57
    1606:	90 e0       	ldi	r25, 0x00	; 0
    1608:	08 95       	ret
    160a:	83 ee       	ldi	r24, 0xE3	; 227
    160c:	90 e0       	ldi	r25, 0x00	; 0
    160e:	08 95       	ret
    1610:	82 ee       	ldi	r24, 0xE2	; 226
    1612:	90 e0       	ldi	r25, 0x00	; 0
    1614:	08 95       	ret
    1616:	86 ee       	ldi	r24, 0xE6	; 230
    1618:	90 e0       	ldi	r25, 0x00	; 0
    161a:	08 95       	ret
    161c:	90 91 64 02 	lds	r25, 0x0264	;  0x800264
    1620:	92 ff       	sbrs	r25, 2
    1622:	06 c0       	rjmp	.+12     	;  0x1630
    1624:	28 2f       	mov	r18, r24
    1626:	28 71       	andi	r18, 0x18	; 24
    1628:	28 30       	cpi	r18, 0x08	; 8
    162a:	f9 f4       	brne	.+62     	;  0x166a
    162c:	87 7f       	andi	r24, 0xF7	; 247
    162e:	84 60       	ori	r24, 0x04	; 4
    1630:	93 ff       	sbrs	r25, 3
    1632:	06 c0       	rjmp	.+12     	;  0x1640
    1634:	28 2f       	mov	r18, r24
    1636:	28 71       	andi	r18, 0x18	; 24
    1638:	28 31       	cpi	r18, 0x18	; 24
    163a:	f1 f4       	brne	.+60     	;  0x1678
    163c:	87 7e       	andi	r24, 0xE7	; 231
    163e:	84 61       	ori	r24, 0x14	; 20
    1640:	20 91 65 02 	lds	r18, 0x0265	;  0x800265
    1644:	20 ff       	sbrs	r18, 0
    1646:	06 c0       	rjmp	.+12     	;  0x1654
    1648:	38 2f       	mov	r19, r24
    164a:	38 71       	andi	r19, 0x18	; 24
    164c:	38 30       	cpi	r19, 0x08	; 8
    164e:	d9 f4       	brne	.+54     	;  0x1686
    1650:	87 7f       	andi	r24, 0xF7	; 247
    1652:	81 60       	ori	r24, 0x01	; 1
    1654:	21 ff       	sbrs	r18, 1
    1656:	06 c0       	rjmp	.+12     	;  0x1664
    1658:	28 2f       	mov	r18, r24
    165a:	28 71       	andi	r18, 0x18	; 24
    165c:	28 31       	cpi	r18, 0x18	; 24
    165e:	d1 f4       	brne	.+52     	;  0x1694
    1660:	87 7e       	andi	r24, 0xE7	; 231
    1662:	81 61       	ori	r24, 0x11	; 17
    1664:	94 fd       	sbrc	r25, 4
    1666:	87 7e       	andi	r24, 0xE7	; 231
    1668:	08 95       	ret
    166a:	28 2f       	mov	r18, r24
    166c:	24 71       	andi	r18, 0x14	; 20
    166e:	24 30       	cpi	r18, 0x04	; 4
    1670:	f9 f6       	brne	.-66     	;  0x1630
    1672:	8b 7f       	andi	r24, 0xFB	; 251
    1674:	88 60       	ori	r24, 0x08	; 8
    1676:	dc cf       	rjmp	.-72     	;  0x1630
    1678:	28 2f       	mov	r18, r24
    167a:	24 71       	andi	r18, 0x14	; 20
    167c:	24 31       	cpi	r18, 0x14	; 20
    167e:	01 f7       	brne	.-64     	;  0x1640
    1680:	8b 7e       	andi	r24, 0xEB	; 235
    1682:	88 61       	ori	r24, 0x18	; 24
    1684:	dd cf       	rjmp	.-70     	;  0x1640
    1686:	38 2f       	mov	r19, r24
    1688:	31 71       	andi	r19, 0x11	; 17
    168a:	31 30       	cpi	r19, 0x01	; 1
    168c:	19 f7       	brne	.-58     	;  0x1654
    168e:	8e 7f       	andi	r24, 0xFE	; 254
    1690:	88 60       	ori	r24, 0x08	; 8
    1692:	e0 cf       	rjmp	.-64     	;  0x1654
    1694:	28 2f       	mov	r18, r24
    1696:	21 71       	andi	r18, 0x11	; 17
    1698:	21 31       	cpi	r18, 0x11	; 17
    169a:	21 f7       	brne	.-56     	;  0x1664
    169c:	8e 7e       	andi	r24, 0xEE	; 238
    169e:	88 61       	ori	r24, 0x18	; 24
    16a0:	e1 cf       	rjmp	.-62     	;  0x1664
    16a2:	08 95       	ret
    16a4:	0c 94 51 0b 	jmp	0x16a2	;  0x16a2
    16a8:	08 95       	ret
    16aa:	0c 94 54 0b 	jmp	0x16a8	;  0x16a8
    16ae:	e8 2f       	mov	r30, r24
    16b0:	f0 e0       	ldi	r31, 0x00	; 0
    16b2:	e7 5a       	subi	r30, 0xA7	; 167
    16b4:	fd 4f       	sbci	r31, 0xFD	; 253
    16b6:	80 81       	ld	r24, Z
    16b8:	08 95       	ret
    16ba:	cf 92       	push	r12
    16bc:	df 92       	push	r13
    16be:	ef 92       	push	r14
    16c0:	ff 92       	push	r15
    16c2:	0f 93       	push	r16
    16c4:	1f 93       	push	r17
    16c6:	cf 93       	push	r28
    16c8:	df 93       	push	r29
    16ca:	88 e0       	ldi	r24, 0x08	; 8
    16cc:	92 e0       	ldi	r25, 0x02	; 2
    16ce:	0e 94 9a 06 	call	0xd34	;  0xd34
    16d2:	89 e5       	ldi	r24, 0x59	; 89
    16d4:	e8 2e       	mov	r14, r24
    16d6:	82 e0       	ldi	r24, 0x02	; 2
    16d8:	f8 2e       	mov	r15, r24
    16da:	d0 e0       	ldi	r29, 0x00	; 0
    16dc:	c0 e0       	ldi	r28, 0x00	; 0
    16de:	93 e0       	ldi	r25, 0x03	; 3
    16e0:	c9 2e       	mov	r12, r25
    16e2:	92 e0       	ldi	r25, 0x02	; 2
    16e4:	d9 2e       	mov	r13, r25
    16e6:	0b ef       	ldi	r16, 0xFB	; 251
    16e8:	11 e0       	ldi	r17, 0x01	; 1
    16ea:	df 93       	push	r29
    16ec:	cf 93       	push	r28
    16ee:	df 92       	push	r13
    16f0:	cf 92       	push	r12
    16f2:	0e 94 33 07 	call	0xe66	;  0xe66
    16f6:	80 e0       	ldi	r24, 0x00	; 0
    16f8:	92 e0       	ldi	r25, 0x02	; 2
    16fa:	0e 94 9a 06 	call	0xd34	;  0xd34
    16fe:	f7 01       	movw	r30, r14
    1700:	81 91       	ld	r24, Z+
    1702:	7f 01       	movw	r14, r30
    1704:	0e 94 27 1a 	call	0x344e	;  0x344e
    1708:	1f 92       	push	r1
    170a:	8f 93       	push	r24
    170c:	1f 93       	push	r17
    170e:	0f 93       	push	r16
    1710:	0e 94 33 07 	call	0xe66	;  0xe66
    1714:	89 ef       	ldi	r24, 0xF9	; 249
    1716:	91 e0       	ldi	r25, 0x01	; 1
    1718:	0e 94 9a 06 	call	0xd34	;  0xd34
    171c:	21 96       	adiw	r28, 0x01	; 1
    171e:	8d b7       	in	r24, 0x3d	; 61
    1720:	9e b7       	in	r25, 0x3e	; 62
    1722:	08 96       	adiw	r24, 0x08	; 8
    1724:	0f b6       	in	r0, 0x3f	; 63
    1726:	f8 94       	cli
    1728:	9e bf       	out	0x3e, r25	; 62
    172a:	0f be       	out	0x3f, r0	; 63
    172c:	8d bf       	out	0x3d, r24	; 61
    172e:	c5 30       	cpi	r28, 0x05	; 5
    1730:	d1 05       	cpc	r29, r1
    1732:	d9 f6       	brne	.-74     	;  0x16ea
    1734:	df 91       	pop	r29
    1736:	cf 91       	pop	r28
    1738:	1f 91       	pop	r17
    173a:	0f 91       	pop	r16
    173c:	ff 90       	pop	r15
    173e:	ef 90       	pop	r14
    1740:	df 90       	pop	r13
    1742:	cf 90       	pop	r12
    1744:	08 95       	ret
    1746:	80 ea       	ldi	r24, 0xA0	; 160
    1748:	8a 95       	dec	r24
    174a:	f1 f7       	brne	.-4      	;  0x1748
    174c:	08 95       	ret
    174e:	cf 93       	push	r28
    1750:	df 93       	push	r29
    1752:	a3 e7       	ldi	r26, 0x73	; 115
    1754:	b1 e0       	ldi	r27, 0x01	; 1
    1756:	48 e7       	ldi	r20, 0x78	; 120
    1758:	51 e0       	ldi	r21, 0x01	; 1
    175a:	c1 e0       	ldi	r28, 0x01	; 1
    175c:	d0 e0       	ldi	r29, 0x00	; 0
    175e:	8d 91       	ld	r24, X+
    1760:	e8 2f       	mov	r30, r24
    1762:	e2 95       	swap	r30
    1764:	ef 70       	andi	r30, 0x0F	; 15
    1766:	f0 e0       	ldi	r31, 0x00	; 0
    1768:	61 a1       	ldd	r22, Z+33	; 0x21
    176a:	8f 70       	andi	r24, 0x0F	; 15
    176c:	9e 01       	movw	r18, r28
    176e:	01 c0       	rjmp	.+2      	;  0x1772
    1770:	22 0f       	add	r18, r18
    1772:	8a 95       	dec	r24
    1774:	ea f7       	brpl	.-6      	;  0x1770
    1776:	92 2f       	mov	r25, r18
    1778:	90 95       	com	r25
    177a:	96 23       	and	r25, r22
    177c:	91 a3       	std	Z+33, r25	; 0x21
    177e:	82 a1       	ldd	r24, Z+34	; 0x22
    1780:	82 2b       	or	r24, r18
    1782:	82 a3       	std	Z+34, r24	; 0x22
    1784:	4a 17       	cp	r20, r26
    1786:	5b 07       	cpc	r21, r27
    1788:	51 f7       	brne	.-44     	;  0x175e
    178a:	af e6       	ldi	r26, 0x6F	; 111
    178c:	b1 e0       	ldi	r27, 0x01	; 1
    178e:	61 e0       	ldi	r22, 0x01	; 1
    1790:	70 e0       	ldi	r23, 0x00	; 0
    1792:	8d 91       	ld	r24, X+
    1794:	e8 2f       	mov	r30, r24
    1796:	e2 95       	swap	r30
    1798:	ef 70       	andi	r30, 0x0F	; 15
    179a:	f0 e0       	ldi	r31, 0x00	; 0
    179c:	41 a1       	ldd	r20, Z+33	; 0x21
    179e:	8f 70       	andi	r24, 0x0F	; 15
    17a0:	9b 01       	movw	r18, r22
    17a2:	01 c0       	rjmp	.+2      	;  0x17a6
    17a4:	22 0f       	add	r18, r18
    17a6:	8a 95       	dec	r24
    17a8:	ea f7       	brpl	.-6      	;  0x17a4
    17aa:	92 2f       	mov	r25, r18
    17ac:	90 95       	com	r25
    17ae:	94 23       	and	r25, r20
    17b0:	91 a3       	std	Z+33, r25	; 0x21
    17b2:	82 a1       	ldd	r24, Z+34	; 0x22
    17b4:	82 2b       	or	r24, r18
    17b6:	82 a3       	std	Z+34, r24	; 0x22
    17b8:	81 e0       	ldi	r24, 0x01	; 1
    17ba:	a3 37       	cpi	r26, 0x73	; 115
    17bc:	b8 07       	cpc	r27, r24
    17be:	49 f7       	brne	.-46     	;  0x1792
    17c0:	10 92 54 02 	sts	0x0254, r1	;  0x800254
    17c4:	10 92 59 02 	sts	0x0259, r1	;  0x800259
    17c8:	10 92 55 02 	sts	0x0255, r1	;  0x800255
    17cc:	10 92 5a 02 	sts	0x025A, r1	;  0x80025a
    17d0:	10 92 56 02 	sts	0x0256, r1	;  0x800256
    17d4:	10 92 5b 02 	sts	0x025B, r1	;  0x80025b
    17d8:	10 92 57 02 	sts	0x0257, r1	;  0x800257
    17dc:	10 92 5c 02 	sts	0x025C, r1	;  0x80025c
    17e0:	10 92 58 02 	sts	0x0258, r1	;  0x800258
    17e4:	10 92 5d 02 	sts	0x025D, r1	;  0x80025d
    17e8:	85 e0       	ldi	r24, 0x05	; 5
    17ea:	0e 94 7b 0c 	call	0x18f6	;  0x18f6
    17ee:	df 91       	pop	r29
    17f0:	cf 91       	pop	r28
    17f2:	0c 94 c5 08 	jmp	0x118a	;  0x118a
    17f6:	8f 92       	push	r8
    17f8:	9f 92       	push	r9
    17fa:	af 92       	push	r10
    17fc:	bf 92       	push	r11
    17fe:	cf 92       	push	r12
    1800:	df 92       	push	r13
    1802:	ef 92       	push	r14
    1804:	ff 92       	push	r15
    1806:	0f 93       	push	r16
    1808:	1f 93       	push	r17
    180a:	cf 93       	push	r28
    180c:	df 93       	push	r29
    180e:	83 e7       	ldi	r24, 0x73	; 115
    1810:	a8 2e       	mov	r10, r24
    1812:	81 e0       	ldi	r24, 0x01	; 1
    1814:	b8 2e       	mov	r11, r24
    1816:	04 e5       	ldi	r16, 0x54	; 84
    1818:	12 e0       	ldi	r17, 0x02	; 2
    181a:	91 2c       	mov	r9, r1
    181c:	cc 24       	eor	r12, r12
    181e:	c3 94       	inc	r12
    1820:	d1 2c       	mov	r13, r1
    1822:	f5 01       	movw	r30, r10
    1824:	81 91       	ld	r24, Z+
    1826:	5f 01       	movw	r10, r30
    1828:	c8 2f       	mov	r28, r24
    182a:	c2 95       	swap	r28
    182c:	cf 70       	andi	r28, 0x0F	; 15
    182e:	d0 e0       	ldi	r29, 0x00	; 0
    1830:	99 a1       	ldd	r25, Y+33	; 0x21
    1832:	8f 70       	andi	r24, 0x0F	; 15
    1834:	76 01       	movw	r14, r12
    1836:	01 c0       	rjmp	.+2      	;  0x183a
    1838:	ee 0c       	add	r14, r14
    183a:	8a 95       	dec	r24
    183c:	ea f7       	brpl	.-6      	;  0x1838
    183e:	89 2f       	mov	r24, r25
    1840:	8e 29       	or	r24, r14
    1842:	89 a3       	std	Y+33, r24	; 0x21
    1844:	8a a1       	ldd	r24, Y+34	; 0x22
    1846:	8e 2c       	mov	r8, r14
    1848:	80 94       	com	r8
    184a:	88 21       	and	r24, r8
    184c:	8a a3       	std	Y+34, r24	; 0x22
    184e:	0e 94 a3 0b 	call	0x1746	;  0x1746
    1852:	ef e6       	ldi	r30, 0x6F	; 111
    1854:	f1 e0       	ldi	r31, 0x01	; 1
    1856:	50 e0       	ldi	r21, 0x00	; 0
    1858:	40 e0       	ldi	r20, 0x00	; 0
    185a:	20 e0       	ldi	r18, 0x00	; 0
    185c:	31 91       	ld	r19, Z+
    185e:	a3 2f       	mov	r26, r19
    1860:	a2 95       	swap	r26
    1862:	af 70       	andi	r26, 0x0F	; 15
    1864:	b0 e0       	ldi	r27, 0x00	; 0
    1866:	90 96       	adiw	r26, 0x20	; 32
    1868:	8c 91       	ld	r24, X
    186a:	90 e0       	ldi	r25, 0x00	; 0
    186c:	3f 70       	andi	r19, 0x0F	; 15
    186e:	02 c0       	rjmp	.+4      	;  0x1874
    1870:	95 95       	asr	r25
    1872:	87 95       	ror	r24
    1874:	3a 95       	dec	r19
    1876:	e2 f7       	brpl	.-8      	;  0x1870
    1878:	80 fd       	sbrc	r24, 0
    187a:	39 c0       	rjmp	.+114    	;  0x18ee
    187c:	8c 2d       	mov	r24, r12
    187e:	04 2e       	mov	r0, r20
    1880:	01 c0       	rjmp	.+2      	;  0x1884
    1882:	88 0f       	add	r24, r24
    1884:	0a 94       	dec	r0
    1886:	ea f7       	brpl	.-6      	;  0x1882
    1888:	28 2b       	or	r18, r24
    188a:	4f 5f       	subi	r20, 0xFF	; 255
    188c:	5f 4f       	sbci	r21, 0xFF	; 255
    188e:	44 30       	cpi	r20, 0x04	; 4
    1890:	51 05       	cpc	r21, r1
    1892:	21 f7       	brne	.-56     	;  0x185c
    1894:	89 a1       	ldd	r24, Y+33	; 0x21
    1896:	88 22       	and	r8, r24
    1898:	89 a2       	std	Y+33, r8	; 0x21
    189a:	8a a1       	ldd	r24, Y+34	; 0x22
    189c:	e8 2a       	or	r14, r24
    189e:	ea a2       	std	Y+34, r14	; 0x22
    18a0:	f8 01       	movw	r30, r16
    18a2:	80 81       	ld	r24, Z
    18a4:	28 17       	cp	r18, r24
    18a6:	29 f1       	breq	.+74     	;  0x18f2
    18a8:	20 83       	st	Z, r18
    18aa:	81 e0       	ldi	r24, 0x01	; 1
    18ac:	98 2a       	or	r9, r24
    18ae:	0f 5f       	subi	r16, 0xFF	; 255
    18b0:	1f 4f       	sbci	r17, 0xFF	; 255
    18b2:	f8 e7       	ldi	r31, 0x78	; 120
    18b4:	af 16       	cp	r10, r31
    18b6:	f1 e0       	ldi	r31, 0x01	; 1
    18b8:	bf 06       	cpc	r11, r31
    18ba:	09 f0       	breq	.+2      	;  0x18be
    18bc:	b2 cf       	rjmp	.-156    	;  0x1822
    18be:	29 2d       	mov	r18, r9
    18c0:	45 e0       	ldi	r20, 0x05	; 5
    18c2:	69 e5       	ldi	r22, 0x59	; 89
    18c4:	72 e0       	ldi	r23, 0x02	; 2
    18c6:	84 e5       	ldi	r24, 0x54	; 84
    18c8:	92 e0       	ldi	r25, 0x02	; 2
    18ca:	0e 94 7c 0c 	call	0x18f8	;  0x18f8
    18ce:	0e 94 cf 08 	call	0x119e	;  0x119e
    18d2:	89 2d       	mov	r24, r9
    18d4:	df 91       	pop	r29
    18d6:	cf 91       	pop	r28
    18d8:	1f 91       	pop	r17
    18da:	0f 91       	pop	r16
    18dc:	ff 90       	pop	r15
    18de:	ef 90       	pop	r14
    18e0:	df 90       	pop	r13
    18e2:	cf 90       	pop	r12
    18e4:	bf 90       	pop	r11
    18e6:	af 90       	pop	r10
    18e8:	9f 90       	pop	r9
    18ea:	8f 90       	pop	r8
    18ec:	08 95       	ret
    18ee:	80 e0       	ldi	r24, 0x00	; 0
    18f0:	cb cf       	rjmp	.-106    	;  0x1888
    18f2:	80 e0       	ldi	r24, 0x00	; 0
    18f4:	db cf       	rjmp	.-74     	;  0x18ac
    18f6:	08 95       	ret
    18f8:	ff 92       	push	r15
    18fa:	0f 93       	push	r16
    18fc:	1f 93       	push	r17
    18fe:	cf 93       	push	r28
    1900:	df 93       	push	r29
    1902:	f8 2e       	mov	r15, r24
    1904:	09 2f       	mov	r16, r25
    1906:	16 2f       	mov	r17, r22
    1908:	d7 2f       	mov	r29, r23
    190a:	c4 2f       	mov	r28, r20
    190c:	22 23       	and	r18, r18
    190e:	49 f0       	breq	.+18     	;  0x1922
    1910:	81 e0       	ldi	r24, 0x01	; 1
    1912:	80 93 c6 01 	sts	0x01C6, r24	;  0x8001c6
    1916:	0e 94 c0 1b 	call	0x3780	;  0x3780
    191a:	90 93 c5 01 	sts	0x01C5, r25	;  0x8001c5
    191e:	80 93 c4 01 	sts	0x01C4, r24	;  0x8001c4
    1922:	80 91 c6 01 	lds	r24, 0x01C6	;  0x8001c6
    1926:	88 23       	and	r24, r24
    1928:	a1 f0       	breq	.+40     	;  0x1952
    192a:	80 91 c4 01 	lds	r24, 0x01C4	;  0x8001c4
    192e:	90 91 c5 01 	lds	r25, 0x01C5	;  0x8001c5
    1932:	0e 94 d8 1b 	call	0x37b0	;  0x37b0
    1936:	06 97       	sbiw	r24, 0x06	; 6
    1938:	60 f0       	brcs	.+24     	;  0x1952
    193a:	ef 2d       	mov	r30, r15
    193c:	f0 2f       	mov	r31, r16
    193e:	a1 2f       	mov	r26, r17
    1940:	bd 2f       	mov	r27, r29
    1942:	ce 0f       	add	r28, r30
    1944:	df 2f       	mov	r29, r31
    1946:	d1 1d       	adc	r29, r1
    1948:	ec 17       	cp	r30, r28
    194a:	fd 07       	cpc	r31, r29
    194c:	41 f4       	brne	.+16     	;  0x195e
    194e:	10 92 c6 01 	sts	0x01C6, r1	;  0x8001c6
    1952:	df 91       	pop	r29
    1954:	cf 91       	pop	r28
    1956:	1f 91       	pop	r17
    1958:	0f 91       	pop	r16
    195a:	ff 90       	pop	r15
    195c:	08 95       	ret
    195e:	81 91       	ld	r24, Z+
    1960:	8d 93       	st	X+, r24
    1962:	f2 cf       	rjmp	.-28     	;  0x1948
    1964:	0f 93       	push	r16
    1966:	1f 93       	push	r17
    1968:	cf 93       	push	r28
    196a:	df 93       	push	r29
    196c:	c6 2f       	mov	r28, r22
    196e:	d4 2f       	mov	r29, r20
    1970:	02 2f       	mov	r16, r18
    1972:	fc 01       	movw	r30, r24
    1974:	82 81       	ldd	r24, Z+2	; 0x02
    1976:	88 23       	and	r24, r24
    1978:	c9 f0       	breq	.+50     	;  0x19ac
    197a:	60 93 c9 01 	sts	0x01C9, r22	;  0x8001c9
    197e:	0e 94 c0 1b 	call	0x3780	;  0x3780
    1982:	90 93 c8 01 	sts	0x01C8, r25	;  0x8001c8
    1986:	80 93 c7 01 	sts	0x01C7, r24	;  0x8001c7
    198a:	80 e2       	ldi	r24, 0x20	; 32
    198c:	8c 0f       	add	r24, r28
    198e:	88 30       	cpi	r24, 0x08	; 8
    1990:	08 f0       	brcs	.+2      	;  0x1994
    1992:	50 c0       	rjmp	.+160    	;  0x1a34
    1994:	c7 70       	andi	r28, 0x07	; 7
    1996:	81 e0       	ldi	r24, 0x01	; 1
    1998:	01 c0       	rjmp	.+2      	;  0x199c
    199a:	88 0f       	add	r24, r24
    199c:	ca 95       	dec	r28
    199e:	ea f7       	brpl	.-6      	;  0x199a
    19a0:	df 91       	pop	r29
    19a2:	cf 91       	pop	r28
    19a4:	1f 91       	pop	r17
    19a6:	0f 91       	pop	r16
    19a8:	0c 94 52 11 	jmp	0x22a4	;  0x22a4
    19ac:	10 91 c9 01 	lds	r17, 0x01C9	;  0x8001c9
    19b0:	16 13       	cpse	r17, r22
    19b2:	35 c0       	rjmp	.+106    	;  0x1a1e
    19b4:	80 91 c7 01 	lds	r24, 0x01C7	;  0x8001c7
    19b8:	90 91 c8 01 	lds	r25, 0x01C8	;  0x8001c8
    19bc:	0e 94 d8 1b 	call	0x37b0	;  0x37b0
    19c0:	88 3c       	cpi	r24, 0xC8	; 200
    19c2:	91 05       	cpc	r25, r1
    19c4:	60 f5       	brcc	.+88     	;  0x1a1e
    19c6:	c0 e2       	ldi	r28, 0x20	; 32
    19c8:	cd 0f       	add	r28, r29
    19ca:	1d 17       	cp	r17, r29
    19cc:	b9 f0       	breq	.+46     	;  0x19fc
    19ce:	80 e2       	ldi	r24, 0x20	; 32
    19d0:	81 0f       	add	r24, r17
    19d2:	88 30       	cpi	r24, 0x08	; 8
    19d4:	40 f4       	brcc	.+16     	;  0x19e6
    19d6:	17 70       	andi	r17, 0x07	; 7
    19d8:	81 e0       	ldi	r24, 0x01	; 1
    19da:	01 c0       	rjmp	.+2      	;  0x19de
    19dc:	88 0f       	add	r24, r24
    19de:	1a 95       	dec	r17
    19e0:	ea f7       	brpl	.-6      	;  0x19dc
    19e2:	0e 94 59 11 	call	0x22b2	;  0x22b2
    19e6:	c8 30       	cpi	r28, 0x08	; 8
    19e8:	48 f4       	brcc	.+18     	;  0x19fc
    19ea:	81 e0       	ldi	r24, 0x01	; 1
    19ec:	9d 2f       	mov	r25, r29
    19ee:	97 70       	andi	r25, 0x07	; 7
    19f0:	01 c0       	rjmp	.+2      	;  0x19f4
    19f2:	88 0f       	add	r24, r24
    19f4:	9a 95       	dec	r25
    19f6:	ea f7       	brpl	.-6      	;  0x19f2
    19f8:	0e 94 52 11 	call	0x22a4	;  0x22a4
    19fc:	80 2f       	mov	r24, r16
    19fe:	0e 94 3f 11 	call	0x227e	;  0x227e
    1a02:	c8 30       	cpi	r28, 0x08	; 8
    1a04:	b8 f4       	brcc	.+46     	;  0x1a34
    1a06:	d7 70       	andi	r29, 0x07	; 7
    1a08:	81 e0       	ldi	r24, 0x01	; 1
    1a0a:	01 c0       	rjmp	.+2      	;  0x1a0e
    1a0c:	88 0f       	add	r24, r24
    1a0e:	da 95       	dec	r29
    1a10:	ea f7       	brpl	.-6      	;  0x1a0c
    1a12:	df 91       	pop	r29
    1a14:	cf 91       	pop	r28
    1a16:	1f 91       	pop	r17
    1a18:	0f 91       	pop	r16
    1a1a:	0c 94 59 11 	jmp	0x22b2	;  0x22b2
    1a1e:	80 e2       	ldi	r24, 0x20	; 32
    1a20:	8c 0f       	add	r24, r28
    1a22:	88 30       	cpi	r24, 0x08	; 8
    1a24:	38 f4       	brcc	.+14     	;  0x1a34
    1a26:	c7 70       	andi	r28, 0x07	; 7
    1a28:	81 e0       	ldi	r24, 0x01	; 1
    1a2a:	01 c0       	rjmp	.+2      	;  0x1a2e
    1a2c:	88 0f       	add	r24, r24
    1a2e:	ca 95       	dec	r28
    1a30:	ea f7       	brpl	.-6      	;  0x1a2c
    1a32:	ef cf       	rjmp	.-34     	;  0x1a12
    1a34:	df 91       	pop	r29
    1a36:	cf 91       	pop	r28
    1a38:	1f 91       	pop	r17
    1a3a:	0f 91       	pop	r16
    1a3c:	08 95       	ret
    1a3e:	9c 01       	movw	r18, r24
    1a40:	cb 01       	movw	r24, r22
    1a42:	23 3f       	cpi	r18, 0xF3	; 243
    1a44:	4c e5       	ldi	r20, 0x5C	; 92
    1a46:	34 07       	cpc	r19, r20
    1a48:	31 f1       	breq	.+76     	;  0x1a96
    1a4a:	90 f4       	brcc	.+36     	;  0x1a70
    1a4c:	28 3d       	cpi	r18, 0xD8	; 216
    1a4e:	fc e5       	ldi	r31, 0x5C	; 92
    1a50:	3f 07       	cpc	r19, r31
    1a52:	e9 f0       	breq	.+58     	;  0x1a8e
    1a54:	29 3d       	cpi	r18, 0xD9	; 217
    1a56:	4c e5       	ldi	r20, 0x5C	; 92
    1a58:	34 07       	cpc	r19, r20
    1a5a:	69 f1       	breq	.+90     	;  0x1ab6
    1a5c:	27 3d       	cpi	r18, 0xD7	; 215
    1a5e:	3c 45       	sbci	r19, 0x5C	; 92
    1a60:	79 f4       	brne	.+30     	;  0x1a80
    1a62:	26 e2       	ldi	r18, 0x26	; 38
    1a64:	41 ee       	ldi	r20, 0xE1	; 225
    1a66:	61 ee       	ldi	r22, 0xE1	; 225
    1a68:	0e 94 b2 0c 	call	0x1964	;  0x1964
    1a6c:	80 e0       	ldi	r24, 0x00	; 0
    1a6e:	08 95       	ret
    1a70:	25 3f       	cpi	r18, 0xF5	; 245
    1a72:	fc e5       	ldi	r31, 0x5C	; 92
    1a74:	3f 07       	cpc	r19, r31
    1a76:	b9 f0       	breq	.+46     	;  0x1aa6
    1a78:	90 f0       	brcs	.+36     	;  0x1a9e
    1a7a:	26 3f       	cpi	r18, 0xF6	; 246
    1a7c:	3c 45       	sbci	r19, 0x5C	; 92
    1a7e:	b9 f0       	breq	.+46     	;  0x1aae
    1a80:	fc 01       	movw	r30, r24
    1a82:	82 81       	ldd	r24, Z+2	; 0x02
    1a84:	88 23       	and	r24, r24
    1a86:	d1 f0       	breq	.+52     	;  0x1abc
    1a88:	10 92 c9 01 	sts	0x01C9, r1	;  0x8001c9
    1a8c:	08 95       	ret
    1a8e:	27 e2       	ldi	r18, 0x27	; 39
    1a90:	45 ee       	ldi	r20, 0xE5	; 229
    1a92:	65 ee       	ldi	r22, 0xE5	; 229
    1a94:	e9 cf       	rjmp	.-46     	;  0x1a68
    1a96:	26 e2       	ldi	r18, 0x26	; 38
    1a98:	41 ee       	ldi	r20, 0xE1	; 225
    1a9a:	60 ee       	ldi	r22, 0xE0	; 224
    1a9c:	e5 cf       	rjmp	.-54     	;  0x1a68
    1a9e:	27 e2       	ldi	r18, 0x27	; 39
    1aa0:	45 ee       	ldi	r20, 0xE5	; 229
    1aa2:	64 ee       	ldi	r22, 0xE4	; 228
    1aa4:	e1 cf       	rjmp	.-62     	;  0x1a68
    1aa6:	26 e2       	ldi	r18, 0x26	; 38
    1aa8:	41 ee       	ldi	r20, 0xE1	; 225
    1aaa:	62 ee       	ldi	r22, 0xE2	; 226
    1aac:	dd cf       	rjmp	.-70     	;  0x1a68
    1aae:	27 e2       	ldi	r18, 0x27	; 39
    1ab0:	45 ee       	ldi	r20, 0xE5	; 229
    1ab2:	66 ee       	ldi	r22, 0xE6	; 230
    1ab4:	d9 cf       	rjmp	.-78     	;  0x1a68
    1ab6:	28 e2       	ldi	r18, 0x28	; 40
    1ab8:	41 e0       	ldi	r20, 0x01	; 1
    1aba:	eb cf       	rjmp	.-42     	;  0x1a92
    1abc:	81 e0       	ldi	r24, 0x01	; 1
    1abe:	08 95       	ret
    1ac0:	cf 93       	push	r28
    1ac2:	df 93       	push	r29
    1ac4:	ec 01       	movw	r28, r24
    1ac6:	fb 01       	movw	r30, r22
    1ac8:	82 81       	ldd	r24, Z+2	; 0x02
    1aca:	88 23       	and	r24, r24
    1acc:	09 f4       	brne	.+2      	;  0x1ad0
    1ace:	19 c1       	rjmp	.+562    	;  0x1d02
    1ad0:	c2 30       	cpi	r28, 0x02	; 2
    1ad2:	fc e5       	ldi	r31, 0x5C	; 92
    1ad4:	df 07       	cpc	r29, r31
    1ad6:	c0 f1       	brcs	.+112    	;  0x1b48
    1ad8:	c6 31       	cpi	r28, 0x16	; 22
    1ada:	9c e5       	ldi	r25, 0x5C	; 92
    1adc:	d9 07       	cpc	r29, r25
    1ade:	30 f0       	brcs	.+12     	;  0x1aec
    1ae0:	9e 01       	movw	r18, r28
    1ae2:	2a 5f       	subi	r18, 0xFA	; 250
    1ae4:	3c 45       	sbci	r19, 0x5C	; 92
    1ae6:	29 30       	cpi	r18, 0x09	; 9
    1ae8:	31 05       	cpc	r19, r1
    1aea:	70 f5       	brcc	.+92     	;  0x1b48
    1aec:	0e 94 58 1a 	call	0x34b0	;  0x34b0
    1af0:	90 93 65 02 	sts	0x0265, r25	;  0x800265
    1af4:	80 93 64 02 	sts	0x0264, r24	;  0x800264
    1af8:	c0 31       	cpi	r28, 0x10	; 16
    1afa:	ec e5       	ldi	r30, 0x5C	; 92
    1afc:	de 07       	cpc	r29, r30
    1afe:	09 f4       	brne	.+2      	;  0x1b02
    1b00:	cf c0       	rjmp	.+414    	;  0x1ca0
    1b02:	08 f0       	brcs	.+2      	;  0x1b06
    1b04:	5b c0       	rjmp	.+182    	;  0x1bbc
    1b06:	c8 30       	cpi	r28, 0x08	; 8
    1b08:	8c e5       	ldi	r24, 0x5C	; 92
    1b0a:	d8 07       	cpc	r29, r24
    1b0c:	09 f4       	brne	.+2      	;  0x1b10
    1b0e:	b6 c0       	rjmp	.+364    	;  0x1c7c
    1b10:	88 f5       	brcc	.+98     	;  0x1b74
    1b12:	c4 30       	cpi	r28, 0x04	; 4
    1b14:	ec e5       	ldi	r30, 0x5C	; 92
    1b16:	de 07       	cpc	r29, r30
    1b18:	09 f4       	brne	.+2      	;  0x1b1c
    1b1a:	a8 c0       	rjmp	.+336    	;  0x1c6c
    1b1c:	c0 f4       	brcc	.+48     	;  0x1b4e
    1b1e:	c2 30       	cpi	r28, 0x02	; 2
    1b20:	8c e5       	ldi	r24, 0x5C	; 92
    1b22:	d8 07       	cpc	r29, r24
    1b24:	09 f4       	brne	.+2      	;  0x1b28
    1b26:	9c c0       	rjmp	.+312    	;  0x1c60
    1b28:	80 91 64 02 	lds	r24, 0x0264	;  0x800264
    1b2c:	82 60       	ori	r24, 0x02	; 2
    1b2e:	c3 30       	cpi	r28, 0x03	; 3
    1b30:	dc 45       	sbci	r29, 0x5C	; 92
    1b32:	09 f4       	brne	.+2      	;  0x1b36
    1b34:	98 c0       	rjmp	.+304    	;  0x1c66
    1b36:	80 91 64 02 	lds	r24, 0x0264	;  0x800264
    1b3a:	90 91 65 02 	lds	r25, 0x0265	;  0x800265
    1b3e:	0e 94 66 1a 	call	0x34cc	;  0x34cc
    1b42:	0e 94 f5 13 	call	0x27ea	;  0x27ea
    1b46:	80 e0       	ldi	r24, 0x00	; 0
    1b48:	df 91       	pop	r29
    1b4a:	cf 91       	pop	r28
    1b4c:	08 95       	ret
    1b4e:	80 91 64 02 	lds	r24, 0x0264	;  0x800264
    1b52:	80 61       	ori	r24, 0x10	; 16
    1b54:	c6 30       	cpi	r28, 0x06	; 6
    1b56:	ec e5       	ldi	r30, 0x5C	; 92
    1b58:	de 07       	cpc	r29, r30
    1b5a:	09 f4       	brne	.+2      	;  0x1b5e
    1b5c:	84 c0       	rjmp	.+264    	;  0x1c66
    1b5e:	80 91 64 02 	lds	r24, 0x0264	;  0x800264
    1b62:	88 60       	ori	r24, 0x08	; 8
    1b64:	c7 30       	cpi	r28, 0x07	; 7
    1b66:	dc 45       	sbci	r29, 0x5C	; 92
    1b68:	08 f4       	brcc	.+2      	;  0x1b6c
    1b6a:	7d c0       	rjmp	.+250    	;  0x1c66
    1b6c:	80 91 64 02 	lds	r24, 0x0264	;  0x800264
    1b70:	80 62       	ori	r24, 0x20	; 32
    1b72:	79 c0       	rjmp	.+242    	;  0x1c66
    1b74:	cc 30       	cpi	r28, 0x0C	; 12
    1b76:	8c e5       	ldi	r24, 0x5C	; 92
    1b78:	d8 07       	cpc	r29, r24
    1b7a:	09 f4       	brne	.+2      	;  0x1b7e
    1b7c:	89 c0       	rjmp	.+274    	;  0x1c90
    1b7e:	70 f4       	brcc	.+28     	;  0x1b9c
    1b80:	80 91 64 02 	lds	r24, 0x0264	;  0x800264
    1b84:	8c 60       	ori	r24, 0x0C	; 12
    1b86:	ca 30       	cpi	r28, 0x0A	; 10
    1b88:	ec e5       	ldi	r30, 0x5C	; 92
    1b8a:	de 07       	cpc	r29, r30
    1b8c:	09 f4       	brne	.+2      	;  0x1b90
    1b8e:	6b c0       	rjmp	.+214    	;  0x1c66
    1b90:	08 f4       	brcc	.+2      	;  0x1b94
    1b92:	78 c0       	rjmp	.+240    	;  0x1c84
    1b94:	80 91 64 02 	lds	r24, 0x0264	;  0x800264
    1b98:	8e 7f       	andi	r24, 0xFE	; 254
    1b9a:	65 c0       	rjmp	.+202    	;  0x1c66
    1b9c:	ce 30       	cpi	r28, 0x0E	; 14
    1b9e:	8c e5       	ldi	r24, 0x5C	; 92
    1ba0:	d8 07       	cpc	r29, r24
    1ba2:	09 f4       	brne	.+2      	;  0x1ba6
    1ba4:	79 c0       	rjmp	.+242    	;  0x1c98
    1ba6:	80 91 64 02 	lds	r24, 0x0264	;  0x800264
    1baa:	8b 7f       	andi	r24, 0xFB	; 251
    1bac:	cf 30       	cpi	r28, 0x0F	; 15
    1bae:	dc 45       	sbci	r29, 0x5C	; 92
    1bb0:	08 f4       	brcc	.+2      	;  0x1bb4
    1bb2:	59 c0       	rjmp	.+178    	;  0x1c66
    1bb4:	80 91 64 02 	lds	r24, 0x0264	;  0x800264
    1bb8:	8f 7e       	andi	r24, 0xEF	; 239
    1bba:	55 c0       	rjmp	.+170    	;  0x1c66
    1bbc:	cb 3f       	cpi	r28, 0xFB	; 251
    1bbe:	ec e5       	ldi	r30, 0x5C	; 92
    1bc0:	de 07       	cpc	r29, r30
    1bc2:	09 f4       	brne	.+2      	;  0x1bc6
    1bc4:	57 c0       	rjmp	.+174    	;  0x1c74
    1bc6:	30 f5       	brcc	.+76     	;  0x1c14
    1bc8:	c3 31       	cpi	r28, 0x13	; 19
    1bca:	8c e5       	ldi	r24, 0x5C	; 92
    1bcc:	d8 07       	cpc	r29, r24
    1bce:	09 f4       	brne	.+2      	;  0x1bd2
    1bd0:	6f c0       	rjmp	.+222    	;  0x1cb0
    1bd2:	78 f4       	brcc	.+30     	;  0x1bf2
    1bd4:	c1 31       	cpi	r28, 0x11	; 17
    1bd6:	ec e5       	ldi	r30, 0x5C	; 92
    1bd8:	de 07       	cpc	r29, r30
    1bda:	09 f4       	brne	.+2      	;  0x1bde
    1bdc:	65 c0       	rjmp	.+202    	;  0x1ca8
    1bde:	c2 31       	cpi	r28, 0x12	; 18
    1be0:	dc 45       	sbci	r29, 0x5C	; 92
    1be2:	09 f0       	breq	.+2      	;  0x1be6
    1be4:	a8 cf       	rjmp	.-176    	;  0x1b36
    1be6:	0e 94 f5 13 	call	0x27ea	;  0x27ea
    1bea:	80 91 64 02 	lds	r24, 0x0264	;  0x800264
    1bee:	8f 77       	andi	r24, 0x7F	; 127
    1bf0:	3a c0       	rjmp	.+116    	;  0x1c66
    1bf2:	c5 31       	cpi	r28, 0x15	; 21
    1bf4:	8c e5       	ldi	r24, 0x5C	; 92
    1bf6:	d8 07       	cpc	r29, r24
    1bf8:	09 f4       	brne	.+2      	;  0x1bfc
    1bfa:	62 c0       	rjmp	.+196    	;  0x1cc0
    1bfc:	08 f4       	brcc	.+2      	;  0x1c00
    1bfe:	76 c0       	rjmp	.+236    	;  0x1cec
    1c00:	80 91 65 02 	lds	r24, 0x0265	;  0x800265
    1c04:	81 60       	ori	r24, 0x01	; 1
    1c06:	ca 3f       	cpi	r28, 0xFA	; 250
    1c08:	dc 45       	sbci	r29, 0x5C	; 92
    1c0a:	09 f0       	breq	.+2      	;  0x1c0e
    1c0c:	94 cf       	rjmp	.-216    	;  0x1b36
    1c0e:	80 93 65 02 	sts	0x0265, r24	;  0x800265
    1c12:	91 cf       	rjmp	.-222    	;  0x1b36
    1c14:	cf 3f       	cpi	r28, 0xFF	; 255
    1c16:	fc e5       	ldi	r31, 0x5C	; 92
    1c18:	df 07       	cpc	r29, r31
    1c1a:	09 f4       	brne	.+2      	;  0x1c1e
    1c1c:	4d c0       	rjmp	.+154    	;  0x1cb8
    1c1e:	88 f4       	brcc	.+34     	;  0x1c42
    1c20:	80 91 65 02 	lds	r24, 0x0265	;  0x800265
    1c24:	8d 7f       	andi	r24, 0xFD	; 253
    1c26:	cd 3f       	cpi	r28, 0xFD	; 253
    1c28:	9c e5       	ldi	r25, 0x5C	; 92
    1c2a:	d9 07       	cpc	r29, r25
    1c2c:	81 f3       	breq	.-32     	;  0x1c0e
    1c2e:	80 91 65 02 	lds	r24, 0x0265	;  0x800265
    1c32:	8e 7f       	andi	r24, 0xFE	; 254
    1c34:	ce 3f       	cpi	r28, 0xFE	; 254
    1c36:	dc 45       	sbci	r29, 0x5C	; 92
    1c38:	50 f3       	brcs	.-44     	;  0x1c0e
    1c3a:	80 91 65 02 	lds	r24, 0x0265	;  0x800265
    1c3e:	83 60       	ori	r24, 0x03	; 3
    1c40:	e6 cf       	rjmp	.-52     	;  0x1c0e
    1c42:	c1 30       	cpi	r28, 0x01	; 1
    1c44:	fd e5       	ldi	r31, 0x5D	; 93
    1c46:	df 07       	cpc	r29, r31
    1c48:	09 f4       	brne	.+2      	;  0x1c4c
    1c4a:	59 c0       	rjmp	.+178    	;  0x1cfe
    1c4c:	08 f4       	brcc	.+2      	;  0x1c50
    1c4e:	44 c0       	rjmp	.+136    	;  0x1cd8
    1c50:	80 e0       	ldi	r24, 0x00	; 0
    1c52:	c2 30       	cpi	r28, 0x02	; 2
    1c54:	dd 45       	sbci	r29, 0x5D	; 93
    1c56:	09 f0       	breq	.+2      	;  0x1c5a
    1c58:	6e cf       	rjmp	.-292    	;  0x1b36
    1c5a:	0e 94 e4 1a 	call	0x35c8	;  0x35c8
    1c5e:	6b cf       	rjmp	.-298    	;  0x1b36
    1c60:	80 91 64 02 	lds	r24, 0x0264	;  0x800264
    1c64:	81 60       	ori	r24, 0x01	; 1
    1c66:	80 93 64 02 	sts	0x0264, r24	;  0x800264
    1c6a:	65 cf       	rjmp	.-310    	;  0x1b36
    1c6c:	80 91 64 02 	lds	r24, 0x0264	;  0x800264
    1c70:	84 60       	ori	r24, 0x04	; 4
    1c72:	f9 cf       	rjmp	.-14     	;  0x1c66
    1c74:	80 91 65 02 	lds	r24, 0x0265	;  0x800265
    1c78:	82 60       	ori	r24, 0x02	; 2
    1c7a:	c9 cf       	rjmp	.-110    	;  0x1c0e
    1c7c:	80 91 64 02 	lds	r24, 0x0264	;  0x800264
    1c80:	80 64       	ori	r24, 0x40	; 64
    1c82:	f1 cf       	rjmp	.-30     	;  0x1c66
    1c84:	0e 94 f5 13 	call	0x27ea	;  0x27ea
    1c88:	80 91 64 02 	lds	r24, 0x0264	;  0x800264
    1c8c:	80 68       	ori	r24, 0x80	; 128
    1c8e:	eb cf       	rjmp	.-42     	;  0x1c66
    1c90:	80 91 64 02 	lds	r24, 0x0264	;  0x800264
    1c94:	8d 7f       	andi	r24, 0xFD	; 253
    1c96:	e7 cf       	rjmp	.-50     	;  0x1c66
    1c98:	80 91 64 02 	lds	r24, 0x0264	;  0x800264
    1c9c:	87 7f       	andi	r24, 0xF7	; 247
    1c9e:	e3 cf       	rjmp	.-58     	;  0x1c66
    1ca0:	80 91 64 02 	lds	r24, 0x0264	;  0x800264
    1ca4:	8f 7d       	andi	r24, 0xDF	; 223
    1ca6:	df cf       	rjmp	.-66     	;  0x1c66
    1ca8:	80 91 64 02 	lds	r24, 0x0264	;  0x800264
    1cac:	8f 7b       	andi	r24, 0xBF	; 191
    1cae:	db cf       	rjmp	.-74     	;  0x1c66
    1cb0:	80 91 64 02 	lds	r24, 0x0264	;  0x800264
    1cb4:	83 7f       	andi	r24, 0xF3	; 243
    1cb6:	d7 cf       	rjmp	.-82     	;  0x1c66
    1cb8:	80 91 65 02 	lds	r24, 0x0265	;  0x800265
    1cbc:	8c 7f       	andi	r24, 0xFC	; 252
    1cbe:	a7 cf       	rjmp	.-178    	;  0x1c0e
    1cc0:	80 91 64 02 	lds	r24, 0x0264	;  0x800264
    1cc4:	82 fb       	bst	r24, 2
    1cc6:	99 27       	eor	r25, r25
    1cc8:	90 f9       	bld	r25, 0
    1cca:	21 e0       	ldi	r18, 0x01	; 1
    1ccc:	92 27       	eor	r25, r18
    1cce:	90 fb       	bst	r25, 0
    1cd0:	82 f9       	bld	r24, 2
    1cd2:	90 fb       	bst	r25, 0
    1cd4:	83 f9       	bld	r24, 3
    1cd6:	c7 cf       	rjmp	.-114    	;  0x1c66
    1cd8:	80 91 65 02 	lds	r24, 0x0265	;  0x800265
    1cdc:	98 2f       	mov	r25, r24
    1cde:	90 95       	com	r25
    1ce0:	91 70       	andi	r25, 0x01	; 1
    1ce2:	8e 7f       	andi	r24, 0xFE	; 254
    1ce4:	89 2b       	or	r24, r25
    1ce6:	90 fb       	bst	r25, 0
    1ce8:	81 f9       	bld	r24, 1
    1cea:	91 cf       	rjmp	.-222    	;  0x1c0e
    1cec:	0e 94 f5 13 	call	0x27ea	;  0x27ea
    1cf0:	90 91 64 02 	lds	r25, 0x0264	;  0x800264
    1cf4:	89 2f       	mov	r24, r25
    1cf6:	97 fb       	bst	r25, 7
    1cf8:	87 f9       	bld	r24, 7
    1cfa:	80 58       	subi	r24, 0x80	; 128
    1cfc:	b4 cf       	rjmp	.-152    	;  0x1c66
    1cfe:	81 e0       	ldi	r24, 0x01	; 1
    1d00:	ac cf       	rjmp	.-168    	;  0x1c5a
    1d02:	81 e0       	ldi	r24, 0x01	; 1
    1d04:	21 cf       	rjmp	.-446    	;  0x1b48
    1d06:	cf 93       	push	r28
    1d08:	df 93       	push	r29
    1d0a:	eb 01       	movw	r28, r22
    1d0c:	86 31       	cpi	r24, 0x16	; 22
    1d0e:	9c 45       	sbci	r25, 0x5C	; 92
    1d10:	11 f5       	brne	.+68     	;  0x1d56
    1d12:	0e 94 73 19 	call	0x32e6	;  0x32e6
    1d16:	9a 81       	ldd	r25, Y+2	; 0x02
    1d18:	99 23       	and	r25, r25
    1d1a:	99 f0       	breq	.+38     	;  0x1d42
    1d1c:	8a 7a       	andi	r24, 0xAA	; 170
    1d1e:	91 e0       	ldi	r25, 0x01	; 1
    1d20:	09 f4       	brne	.+2      	;  0x1d24
    1d22:	90 e0       	ldi	r25, 0x00	; 0
    1d24:	90 93 ca 01 	sts	0x01CA, r25	;  0x8001ca
    1d28:	81 11       	cpse	r24, r1
    1d2a:	09 c0       	rjmp	.+18     	;  0x1d3e
    1d2c:	89 e2       	ldi	r24, 0x29	; 41
    1d2e:	0e 94 4e 19 	call	0x329c	;  0x329c
    1d32:	0e 94 bf 19 	call	0x337e	;  0x337e
    1d36:	80 e0       	ldi	r24, 0x00	; 0
    1d38:	df 91       	pop	r29
    1d3a:	cf 91       	pop	r28
    1d3c:	08 95       	ret
    1d3e:	85 e3       	ldi	r24, 0x35	; 53
    1d40:	f6 cf       	rjmp	.-20     	;  0x1d2e
    1d42:	80 91 ca 01 	lds	r24, 0x01CA	;  0x8001ca
    1d46:	81 11       	cpse	r24, r1
    1d48:	04 c0       	rjmp	.+8      	;  0x1d52
    1d4a:	89 e2       	ldi	r24, 0x29	; 41
    1d4c:	0e 94 55 19 	call	0x32aa	;  0x32aa
    1d50:	f0 cf       	rjmp	.-32     	;  0x1d32
    1d52:	85 e3       	ldi	r24, 0x35	; 53
    1d54:	fb cf       	rjmp	.-10     	;  0x1d4c
    1d56:	81 e0       	ldi	r24, 0x01	; 1
    1d58:	ef cf       	rjmp	.-34     	;  0x1d38
    1d5a:	90 93 d0 01 	sts	0x01D0, r25	;  0x8001d0
    1d5e:	80 93 cf 01 	sts	0x01CF, r24	;  0x8001cf
    1d62:	08 95       	ret
    1d64:	e0 91 cf 01 	lds	r30, 0x01CF	;  0x8001cf
    1d68:	f0 91 d0 01 	lds	r31, 0x01D0	;  0x8001d0
    1d6c:	30 97       	sbiw	r30, 0x00	; 0
    1d6e:	21 f0       	breq	.+8      	;  0x1d78
    1d70:	01 90       	ld	r0, Z+
    1d72:	f0 81       	ld	r31, Z
    1d74:	e0 2d       	mov	r30, r0
    1d76:	09 94       	ijmp
    1d78:	80 e0       	ldi	r24, 0x00	; 0
    1d7a:	08 95       	ret
    1d7c:	ef 92       	push	r14
    1d7e:	ff 92       	push	r15
    1d80:	0f 93       	push	r16
    1d82:	1f 93       	push	r17
    1d84:	cf 93       	push	r28
    1d86:	df 93       	push	r29
    1d88:	8c 01       	movw	r16, r24
    1d8a:	e0 91 cf 01 	lds	r30, 0x01CF	;  0x8001cf
    1d8e:	f0 91 d0 01 	lds	r31, 0x01D0	;  0x8001d0
    1d92:	30 97       	sbiw	r30, 0x00	; 0
    1d94:	c1 f1       	breq	.+112    	;  0x1e06
    1d96:	02 80       	ldd	r0, Z+2	; 0x02
    1d98:	f3 81       	ldd	r31, Z+3	; 0x03
    1d9a:	e0 2d       	mov	r30, r0
    1d9c:	09 95       	icall
    1d9e:	80 91 34 02 	lds	r24, 0x0234	;  0x800234
    1da2:	82 ff       	sbrs	r24, 2
    1da4:	30 c0       	rjmp	.+96     	;  0x1e06
    1da6:	80 ff       	sbrs	r24, 0
    1da8:	04 c0       	rjmp	.+8      	;  0x1db2
    1daa:	8f e1       	ldi	r24, 0x1F	; 31
    1dac:	92 e0       	ldi	r25, 0x02	; 2
    1dae:	0e 94 9a 06 	call	0xd34	;  0xd34
    1db2:	d0 e0       	ldi	r29, 0x00	; 0
    1db4:	c0 e0       	ldi	r28, 0x00	; 0
    1db6:	89 e1       	ldi	r24, 0x19	; 25
    1db8:	e8 2e       	mov	r14, r24
    1dba:	82 e0       	ldi	r24, 0x02	; 2
    1dbc:	f8 2e       	mov	r15, r24
    1dbe:	80 91 34 02 	lds	r24, 0x0234	;  0x800234
    1dc2:	80 ff       	sbrs	r24, 0
    1dc4:	0e c0       	rjmp	.+28     	;  0x1de2
    1dc6:	f8 01       	movw	r30, r16
    1dc8:	ec 0f       	add	r30, r28
    1dca:	fd 1f       	adc	r31, r29
    1dcc:	80 81       	ld	r24, Z
    1dce:	1f 92       	push	r1
    1dd0:	8f 93       	push	r24
    1dd2:	ff 92       	push	r15
    1dd4:	ef 92       	push	r14
    1dd6:	0e 94 33 07 	call	0xe66	;  0xe66
    1dda:	0f 90       	pop	r0
    1ddc:	0f 90       	pop	r0
    1dde:	0f 90       	pop	r0
    1de0:	0f 90       	pop	r0
    1de2:	21 96       	adiw	r28, 0x01	; 1
    1de4:	c8 30       	cpi	r28, 0x08	; 8
    1de6:	d1 05       	cpc	r29, r1
    1de8:	51 f7       	brne	.-44     	;  0x1dbe
    1dea:	80 91 34 02 	lds	r24, 0x0234	;  0x800234
    1dee:	80 ff       	sbrs	r24, 0
    1df0:	0a c0       	rjmp	.+20     	;  0x1e06
    1df2:	87 e1       	ldi	r24, 0x17	; 23
    1df4:	92 e0       	ldi	r25, 0x02	; 2
    1df6:	df 91       	pop	r29
    1df8:	cf 91       	pop	r28
    1dfa:	1f 91       	pop	r17
    1dfc:	0f 91       	pop	r16
    1dfe:	ff 90       	pop	r15
    1e00:	ef 90       	pop	r14
    1e02:	0c 94 9a 06 	jmp	0xd34	;  0xd34
    1e06:	df 91       	pop	r29
    1e08:	cf 91       	pop	r28
    1e0a:	1f 91       	pop	r17
    1e0c:	0f 91       	pop	r16
    1e0e:	ff 90       	pop	r15
    1e10:	ef 90       	pop	r14
    1e12:	08 95       	ret
    1e14:	e0 91 cf 01 	lds	r30, 0x01CF	;  0x8001cf
    1e18:	f0 91 d0 01 	lds	r31, 0x01D0	;  0x8001d0
    1e1c:	30 97       	sbiw	r30, 0x00	; 0
    1e1e:	39 f0       	breq	.+14     	;  0x1e2e
    1e20:	22 e0       	ldi	r18, 0x02	; 2
    1e22:	dc 01       	movw	r26, r24
    1e24:	2c 93       	st	X, r18
    1e26:	04 80       	ldd	r0, Z+4	; 0x04
    1e28:	f5 81       	ldd	r31, Z+5	; 0x05
    1e2a:	e0 2d       	mov	r30, r0
    1e2c:	09 94       	ijmp
    1e2e:	08 95       	ret
    1e30:	20 91 cd 01 	lds	r18, 0x01CD	;  0x8001cd
    1e34:	30 91 ce 01 	lds	r19, 0x01CE	;  0x8001ce
    1e38:	28 17       	cp	r18, r24
    1e3a:	39 07       	cpc	r19, r25
    1e3c:	71 f0       	breq	.+28     	;  0x1e5a
    1e3e:	90 93 ce 01 	sts	0x01CE, r25	;  0x8001ce
    1e42:	80 93 cd 01 	sts	0x01CD, r24	;  0x8001cd
    1e46:	e0 91 cf 01 	lds	r30, 0x01CF	;  0x8001cf
    1e4a:	f0 91 d0 01 	lds	r31, 0x01D0	;  0x8001d0
    1e4e:	30 97       	sbiw	r30, 0x00	; 0
    1e50:	21 f0       	breq	.+8      	;  0x1e5a
    1e52:	06 80       	ldd	r0, Z+6	; 0x06
    1e54:	f7 81       	ldd	r31, Z+7	; 0x07
    1e56:	e0 2d       	mov	r30, r0
    1e58:	09 94       	ijmp
    1e5a:	08 95       	ret
    1e5c:	20 91 cb 01 	lds	r18, 0x01CB	;  0x8001cb
    1e60:	30 91 cc 01 	lds	r19, 0x01CC	;  0x8001cc
    1e64:	28 17       	cp	r18, r24
    1e66:	39 07       	cpc	r19, r25
    1e68:	71 f0       	breq	.+28     	;  0x1e86
    1e6a:	90 93 cc 01 	sts	0x01CC, r25	;  0x8001cc
    1e6e:	80 93 cb 01 	sts	0x01CB, r24	;  0x8001cb
    1e72:	e0 91 cf 01 	lds	r30, 0x01CF	;  0x8001cf
    1e76:	f0 91 d0 01 	lds	r31, 0x01D0	;  0x8001d0
    1e7a:	30 97       	sbiw	r30, 0x00	; 0
    1e7c:	21 f0       	breq	.+8      	;  0x1e86
    1e7e:	00 84       	ldd	r0, Z+8	; 0x08
    1e80:	f1 85       	ldd	r31, Z+9	; 0x09
    1e82:	e0 2d       	mov	r30, r0
    1e84:	09 94       	ijmp
    1e86:	08 95       	ret
    1e88:	85 b7       	in	r24, 0x35	; 53
    1e8a:	80 68       	ori	r24, 0x80	; 128
    1e8c:	85 bf       	out	0x35, r24	; 53
    1e8e:	85 b7       	in	r24, 0x35	; 53
    1e90:	80 68       	ori	r24, 0x80	; 128
    1e92:	85 bf       	out	0x35, r24	; 53
    1e94:	08 95       	ret
    1e96:	08 95       	ret
    1e98:	08 95       	ret
    1e9a:	0c 94 4b 0f 	jmp	0x1e96	;  0x1e96
    1e9e:	08 95       	ret
    1ea0:	0c 94 4f 0f 	jmp	0x1e9e	;  0x1e9e
    1ea4:	0e 94 44 0f 	call	0x1e88	;  0x1e88
    1ea8:	0e 94 4c 0f 	call	0x1e98	;  0x1e98
    1eac:	0c 94 4d 0f 	jmp	0x1e9a	;  0x1e9a
    1eb0:	81 e0       	ldi	r24, 0x01	; 1
    1eb2:	08 95       	ret
    1eb4:	0c 94 58 0f 	jmp	0x1eb0	;  0x1eb0
    1eb8:	0e 94 b7 1b 	call	0x376e	;  0x376e
    1ebc:	0e 94 a7 0b 	call	0x174e	;  0x174e
    1ec0:	0e 94 32 1c 	call	0x3864	;  0x3864
    1ec4:	0c 94 50 0f 	jmp	0x1ea0	;  0x1ea0
    1ec8:	cf 93       	push	r28
    1eca:	c8 2f       	mov	r28, r24
    1ecc:	80 91 34 02 	lds	r24, 0x0234	;  0x800234
    1ed0:	82 ff       	sbrs	r24, 2
    1ed2:	1e c0       	rjmp	.+60     	;  0x1f10
    1ed4:	80 ff       	sbrs	r24, 0
    1ed6:	1c c0       	rjmp	.+56     	;  0x1f10
    1ed8:	88 e3       	ldi	r24, 0x38	; 56
    1eda:	92 e0       	ldi	r25, 0x02	; 2
    1edc:	0e 94 9a 06 	call	0xd34	;  0xd34
    1ee0:	80 91 34 02 	lds	r24, 0x0234	;  0x800234
    1ee4:	80 ff       	sbrs	r24, 0
    1ee6:	14 c0       	rjmp	.+40     	;  0x1f10
    1ee8:	1f 92       	push	r1
    1eea:	cf 93       	push	r28
    1eec:	83 e3       	ldi	r24, 0x33	; 51
    1eee:	92 e0       	ldi	r25, 0x02	; 2
    1ef0:	9f 93       	push	r25
    1ef2:	8f 93       	push	r24
    1ef4:	0e 94 33 07 	call	0xe66	;  0xe66
    1ef8:	80 91 34 02 	lds	r24, 0x0234	;  0x800234
    1efc:	0f 90       	pop	r0
    1efe:	0f 90       	pop	r0
    1f00:	0f 90       	pop	r0
    1f02:	0f 90       	pop	r0
    1f04:	80 ff       	sbrs	r24, 0
    1f06:	04 c0       	rjmp	.+8      	;  0x1f10
    1f08:	81 e3       	ldi	r24, 0x31	; 49
    1f0a:	92 e0       	ldi	r25, 0x02	; 2
    1f0c:	0e 94 9a 06 	call	0xd34	;  0xd34
    1f10:	8c 2f       	mov	r24, r28
    1f12:	cf 91       	pop	r28
    1f14:	0c 94 d8 08 	jmp	0x11b0	;  0x11b0
    1f18:	bf 92       	push	r11
    1f1a:	cf 92       	push	r12
    1f1c:	df 92       	push	r13
    1f1e:	ef 92       	push	r14
    1f20:	ff 92       	push	r15
    1f22:	0f 93       	push	r16
    1f24:	1f 93       	push	r17
    1f26:	cf 93       	push	r28
    1f28:	df 93       	push	r29
    1f2a:	cd b7       	in	r28, 0x3d	; 61
    1f2c:	de b7       	in	r29, 0x3e	; 62
    1f2e:	2a 97       	sbiw	r28, 0x0a	; 10
    1f30:	0f b6       	in	r0, 0x3f	; 63
    1f32:	f8 94       	cli
    1f34:	de bf       	out	0x3e, r29	; 62
    1f36:	0f be       	out	0x3f, r0	; 63
    1f38:	cd bf       	out	0x3d, r28	; 61
    1f3a:	0e 94 fb 0b 	call	0x17f6	;  0x17f6
    1f3e:	0e 94 5a 0f 	call	0x1eb4	;  0x1eb4
    1f42:	88 23       	and	r24, r24
    1f44:	09 f4       	brne	.+2      	;  0x1f48
    1f46:	5e c0       	rjmp	.+188    	;  0x2004
    1f48:	82 ed       	ldi	r24, 0xD2	; 210
    1f4a:	c8 2e       	mov	r12, r24
    1f4c:	81 e0       	ldi	r24, 0x01	; 1
    1f4e:	d8 2e       	mov	r13, r24
    1f50:	10 e0       	ldi	r17, 0x00	; 0
    1f52:	00 e0       	ldi	r16, 0x00	; 0
    1f54:	b0 2e       	mov	r11, r16
    1f56:	80 2f       	mov	r24, r16
    1f58:	0e 94 57 0b 	call	0x16ae	;  0x16ae
    1f5c:	e8 2e       	mov	r14, r24
    1f5e:	f6 01       	movw	r30, r12
    1f60:	f1 90       	ld	r15, Z+
    1f62:	6f 01       	movw	r12, r30
    1f64:	f8 16       	cp	r15, r24
    1f66:	09 f4       	brne	.+2      	;  0x1f6a
    1f68:	47 c0       	rjmp	.+142    	;  0x1ff8
    1f6a:	80 91 34 02 	lds	r24, 0x0234	;  0x800234
    1f6e:	81 fd       	sbrc	r24, 1
    1f70:	0e 94 5d 0b 	call	0x16ba	;  0x16ba
    1f74:	9f 2d       	mov	r25, r15
    1f76:	9e 25       	eor	r25, r14
    1f78:	80 e0       	ldi	r24, 0x00	; 0
    1f7a:	ff 24       	eor	r15, r15
    1f7c:	f3 94       	inc	r15
    1f7e:	29 2f       	mov	r18, r25
    1f80:	2f 21       	and	r18, r15
    1f82:	b1 f1       	breq	.+108    	;  0x1ff0
    1f84:	8e 83       	std	Y+6, r24	; 0x06
    1f86:	bf 82       	std	Y+7, r11	; 0x07
    1f88:	ef 20       	and	r14, r15
    1f8a:	81 e0       	ldi	r24, 0x01	; 1
    1f8c:	09 f4       	brne	.+2      	;  0x1f90
    1f8e:	80 e0       	ldi	r24, 0x00	; 0
    1f90:	88 87       	std	Y+8, r24	; 0x08
    1f92:	0e 94 c0 1b 	call	0x3780	;  0x3780
    1f96:	81 60       	ori	r24, 0x01	; 1
    1f98:	78 2f       	mov	r23, r24
    1f9a:	9a 87       	std	Y+10, r25	; 0x0a
    1f9c:	89 87       	std	Y+9, r24	; 0x09
    1f9e:	4e 81       	ldd	r20, Y+6	; 0x06
    1fa0:	5f 81       	ldd	r21, Y+7	; 0x07
    1fa2:	68 85       	ldd	r22, Y+8	; 0x08
    1fa4:	8a 85       	ldd	r24, Y+10	; 0x0a
    1fa6:	0e 94 23 10 	call	0x2046	;  0x2046
    1faa:	f8 01       	movw	r30, r16
    1fac:	ee 52       	subi	r30, 0x2E	; 46
    1fae:	fe 4f       	sbci	r31, 0xFE	; 254
    1fb0:	80 81       	ld	r24, Z
    1fb2:	f8 26       	eor	r15, r24
    1fb4:	f0 82       	st	Z, r15
    1fb6:	0e 94 41 1e 	call	0x3c82	;  0x3c82
    1fba:	0e 94 b2 0e 	call	0x1d64	;  0x1d64
    1fbe:	90 91 d1 01 	lds	r25, 0x01D1	;  0x8001d1
    1fc2:	89 17       	cp	r24, r25
    1fc4:	81 f1       	breq	.+96     	;  0x2026
    1fc6:	0e 94 b2 0e 	call	0x1d64	;  0x1d64
    1fca:	80 93 d1 01 	sts	0x01D1, r24	;  0x8001d1
    1fce:	2a 96       	adiw	r28, 0x0a	; 10
    1fd0:	0f b6       	in	r0, 0x3f	; 63
    1fd2:	f8 94       	cli
    1fd4:	de bf       	out	0x3e, r29	; 62
    1fd6:	0f be       	out	0x3f, r0	; 63
    1fd8:	cd bf       	out	0x3d, r28	; 61
    1fda:	df 91       	pop	r29
    1fdc:	cf 91       	pop	r28
    1fde:	1f 91       	pop	r17
    1fe0:	0f 91       	pop	r16
    1fe2:	ff 90       	pop	r15
    1fe4:	ef 90       	pop	r14
    1fe6:	df 90       	pop	r13
    1fe8:	cf 90       	pop	r12
    1fea:	bf 90       	pop	r11
    1fec:	0c 94 64 0f 	jmp	0x1ec8	;  0x1ec8
    1ff0:	8f 5f       	subi	r24, 0xFF	; 255
    1ff2:	ff 0c       	add	r15, r15
    1ff4:	84 30       	cpi	r24, 0x04	; 4
    1ff6:	19 f6       	brne	.-122    	;  0x1f7e
    1ff8:	0f 5f       	subi	r16, 0xFF	; 255
    1ffa:	1f 4f       	sbci	r17, 0xFF	; 255
    1ffc:	05 30       	cpi	r16, 0x05	; 5
    1ffe:	11 05       	cpc	r17, r1
    2000:	09 f0       	breq	.+2      	;  0x2004
    2002:	a8 cf       	rjmp	.-176    	;  0x1f54
    2004:	8f ef       	ldi	r24, 0xFF	; 255
    2006:	89 83       	std	Y+1, r24	; 0x01
    2008:	8a 83       	std	Y+2, r24	; 0x02
    200a:	1b 82       	std	Y+3, r1	; 0x03
    200c:	0e 94 c0 1b 	call	0x3780	;  0x3780
    2010:	81 60       	ori	r24, 0x01	; 1
    2012:	78 2f       	mov	r23, r24
    2014:	9d 83       	std	Y+5, r25	; 0x05
    2016:	8c 83       	std	Y+4, r24	; 0x04
    2018:	49 81       	ldd	r20, Y+1	; 0x01
    201a:	5a 81       	ldd	r21, Y+2	; 0x02
    201c:	6b 81       	ldd	r22, Y+3	; 0x03
    201e:	8d 81       	ldd	r24, Y+5	; 0x05
    2020:	0e 94 23 10 	call	0x2046	;  0x2046
    2024:	c8 cf       	rjmp	.-112    	;  0x1fb6
    2026:	2a 96       	adiw	r28, 0x0a	; 10
    2028:	0f b6       	in	r0, 0x3f	; 63
    202a:	f8 94       	cli
    202c:	de bf       	out	0x3e, r29	; 62
    202e:	0f be       	out	0x3f, r0	; 63
    2030:	cd bf       	out	0x3d, r28	; 61
    2032:	df 91       	pop	r29
    2034:	cf 91       	pop	r28
    2036:	1f 91       	pop	r17
    2038:	0f 91       	pop	r16
    203a:	ff 90       	pop	r15
    203c:	ef 90       	pop	r14
    203e:	df 90       	pop	r13
    2040:	cf 90       	pop	r12
    2042:	bf 90       	pop	r11
    2044:	08 95       	ret
    2046:	cf 93       	push	r28
    2048:	df 93       	push	r29
    204a:	cd b7       	in	r28, 0x3d	; 61
    204c:	de b7       	in	r29, 0x3e	; 62
    204e:	2b 97       	sbiw	r28, 0x0b	; 11
    2050:	0f b6       	in	r0, 0x3f	; 63
    2052:	f8 94       	cli
    2054:	de bf       	out	0x3e, r29	; 62
    2056:	0f be       	out	0x3f, r0	; 63
    2058:	cd bf       	out	0x3d, r28	; 61
    205a:	4f 83       	std	Y+7, r20	; 0x07
    205c:	58 87       	std	Y+8, r21	; 0x08
    205e:	69 87       	std	Y+9, r22	; 0x09
    2060:	7a 87       	std	Y+10, r23	; 0x0a
    2062:	8b 87       	std	Y+11, r24	; 0x0b
    2064:	1e 82       	std	Y+6, r1	; 0x06
    2066:	1d 82       	std	Y+5, r1	; 0x05
    2068:	85 e0       	ldi	r24, 0x05	; 5
    206a:	fe 01       	movw	r30, r28
    206c:	37 96       	adiw	r30, 0x07	; 7
    206e:	de 01       	movw	r26, r28
    2070:	11 96       	adiw	r26, 0x01	; 1
    2072:	01 90       	ld	r0, Z+
    2074:	0d 92       	st	X+, r0
    2076:	8a 95       	dec	r24
    2078:	e1 f7       	brne	.-8      	;  0x2072
    207a:	49 81       	ldd	r20, Y+1	; 0x01
    207c:	5a 81       	ldd	r21, Y+2	; 0x02
    207e:	6b 81       	ldd	r22, Y+3	; 0x03
    2080:	7c 81       	ldd	r23, Y+4	; 0x04
    2082:	8d 81       	ldd	r24, Y+5	; 0x05
    2084:	9e 81       	ldd	r25, Y+6	; 0x06
    2086:	2b 96       	adiw	r28, 0x0b	; 11
    2088:	0f b6       	in	r0, 0x3f	; 63
    208a:	f8 94       	cli
    208c:	de bf       	out	0x3e, r29	; 62
    208e:	0f be       	out	0x3f, r0	; 63
    2090:	cd bf       	out	0x3d, r28	; 61
    2092:	df 91       	pop	r29
    2094:	cf 91       	pop	r28
    2096:	0c 94 6b 16 	jmp	0x2cd6	;  0x2cd6
    209a:	fc 01       	movw	r30, r24
    209c:	80 81       	ld	r24, Z
    209e:	91 81       	ldd	r25, Z+1	; 0x01
    20a0:	0c 94 20 19 	jmp	0x3240	;  0x3240
    20a4:	cf 93       	push	r28
    20a6:	c8 2f       	mov	r28, r24
    20a8:	88 23       	and	r24, r24
    20aa:	09 f4       	brne	.+2      	;  0x20ae
    20ac:	90 c0       	rjmp	.+288    	;  0x21ce
    20ae:	82 38       	cpi	r24, 0x82	; 130
    20b0:	c1 f4       	brne	.+48     	;  0x20e2
    20b2:	0e 94 b2 0e 	call	0x1d64	;  0x1d64
    20b6:	81 fd       	sbrc	r24, 1
    20b8:	8a c0       	rjmp	.+276    	;  0x21ce
    20ba:	89 e3       	ldi	r24, 0x39	; 57
    20bc:	0e 94 4e 19 	call	0x329c	;  0x329c
    20c0:	0e 94 bf 19 	call	0x337e	;  0x337e
    20c4:	2f ef       	ldi	r18, 0xFF	; 255
    20c6:	81 ee       	ldi	r24, 0xE1	; 225
    20c8:	94 e0       	ldi	r25, 0x04	; 4
    20ca:	21 50       	subi	r18, 0x01	; 1
    20cc:	80 40       	sbci	r24, 0x00	; 0
    20ce:	90 40       	sbci	r25, 0x00	; 0
    20d0:	e1 f7       	brne	.-8      	;  0x20ca
    20d2:	00 c0       	rjmp	.+0      	;  0x20d4
    20d4:	00 00       	nop
    20d6:	89 e3       	ldi	r24, 0x39	; 57
    20d8:	0e 94 55 19 	call	0x32aa	;  0x32aa
    20dc:	cf 91       	pop	r28
    20de:	0c 94 bf 19 	jmp	0x337e	;  0x337e
    20e2:	83 38       	cpi	r24, 0x83	; 131
    20e4:	a1 f4       	brne	.+40     	;  0x210e
    20e6:	0e 94 b2 0e 	call	0x1d64	;  0x1d64
    20ea:	80 fd       	sbrc	r24, 0
    20ec:	70 c0       	rjmp	.+224    	;  0x21ce
    20ee:	83 e5       	ldi	r24, 0x53	; 83
    20f0:	0e 94 4e 19 	call	0x329c	;  0x329c
    20f4:	0e 94 bf 19 	call	0x337e	;  0x337e
    20f8:	2f ef       	ldi	r18, 0xFF	; 255
    20fa:	81 ee       	ldi	r24, 0xE1	; 225
    20fc:	94 e0       	ldi	r25, 0x04	; 4
    20fe:	21 50       	subi	r18, 0x01	; 1
    2100:	80 40       	sbci	r24, 0x00	; 0
    2102:	90 40       	sbci	r25, 0x00	; 0
    2104:	e1 f7       	brne	.-8      	;  0x20fe
    2106:	00 c0       	rjmp	.+0      	;  0x2108
    2108:	00 00       	nop
    210a:	83 e5       	ldi	r24, 0x53	; 83
    210c:	e5 cf       	rjmp	.-54     	;  0x20d8
    210e:	84 38       	cpi	r24, 0x84	; 132
    2110:	a1 f4       	brne	.+40     	;  0x213a
    2112:	0e 94 b2 0e 	call	0x1d64	;  0x1d64
    2116:	82 fd       	sbrc	r24, 2
    2118:	5a c0       	rjmp	.+180    	;  0x21ce
    211a:	87 e4       	ldi	r24, 0x47	; 71
    211c:	0e 94 4e 19 	call	0x329c	;  0x329c
    2120:	0e 94 bf 19 	call	0x337e	;  0x337e
    2124:	2f ef       	ldi	r18, 0xFF	; 255
    2126:	81 ee       	ldi	r24, 0xE1	; 225
    2128:	94 e0       	ldi	r25, 0x04	; 4
    212a:	21 50       	subi	r18, 0x01	; 1
    212c:	80 40       	sbci	r24, 0x00	; 0
    212e:	90 40       	sbci	r25, 0x00	; 0
    2130:	e1 f7       	brne	.-8      	;  0x212a
    2132:	00 c0       	rjmp	.+0      	;  0x2134
    2134:	00 00       	nop
    2136:	87 e4       	ldi	r24, 0x47	; 71
    2138:	cf cf       	rjmp	.-98     	;  0x20d8
    213a:	8c ef       	ldi	r24, 0xFC	; 252
    213c:	8c 0f       	add	r24, r28
    213e:	81 3a       	cpi	r24, 0xA1	; 161
    2140:	b8 f4       	brcc	.+46     	;  0x2170
    2142:	8c 2f       	mov	r24, r28
    2144:	0e 94 32 23 	call	0x4664	;  0x4664
    2148:	81 11       	cpse	r24, r1
    214a:	41 c0       	rjmp	.+130    	;  0x21ce
    214c:	6c 2f       	mov	r22, r28
    214e:	80 91 00 01 	lds	r24, 0x0100	;  0x800100
    2152:	90 91 01 01 	lds	r25, 0x0101	;  0x800101
    2156:	0e 94 fb 1a 	call	0x35f6	;  0x35f6
    215a:	88 23       	and	r24, r24
    215c:	29 f0       	breq	.+10     	;  0x2168
    215e:	8c 2f       	mov	r24, r28
    2160:	0e 94 55 19 	call	0x32aa	;  0x32aa
    2164:	0e 94 bf 19 	call	0x337e	;  0x337e
    2168:	8c 2f       	mov	r24, r28
    216a:	0e 94 4e 19 	call	0x329c	;  0x329c
    216e:	b6 cf       	rjmp	.-148    	;  0x20dc
    2170:	80 e2       	ldi	r24, 0x20	; 32
    2172:	8c 0f       	add	r24, r28
    2174:	88 30       	cpi	r24, 0x08	; 8
    2176:	48 f4       	brcc	.+18     	;  0x218a
    2178:	c7 70       	andi	r28, 0x07	; 7
    217a:	81 e0       	ldi	r24, 0x01	; 1
    217c:	01 c0       	rjmp	.+2      	;  0x2180
    217e:	88 0f       	add	r24, r24
    2180:	ca 95       	dec	r28
    2182:	ea f7       	brpl	.-6      	;  0x217e
    2184:	0e 94 76 19 	call	0x32ec	;  0x32ec
    2188:	a9 cf       	rjmp	.-174    	;  0x20dc
    218a:	eb e5       	ldi	r30, 0x5B	; 91
    218c:	ec 0f       	add	r30, r28
    218e:	e3 30       	cpi	r30, 0x03	; 3
    2190:	40 f4       	brcc	.+16     	;  0x21a2
    2192:	f0 e0       	ldi	r31, 0x00	; 0
    2194:	ea 55       	subi	r30, 0x5A	; 90
    2196:	fe 4f       	sbci	r31, 0xFE	; 254
    2198:	80 81       	ld	r24, Z
    219a:	90 e0       	ldi	r25, 0x00	; 0
    219c:	cf 91       	pop	r28
    219e:	0c 94 18 0f 	jmp	0x1e30	;  0x1e30
    21a2:	e8 e5       	ldi	r30, 0x58	; 88
    21a4:	ec 0f       	add	r30, r28
    21a6:	e7 31       	cpi	r30, 0x17	; 23
    21a8:	50 f4       	brcc	.+20     	;  0x21be
    21aa:	f0 e0       	ldi	r31, 0x00	; 0
    21ac:	ee 0f       	add	r30, r30
    21ae:	ff 1f       	adc	r31, r31
    21b0:	e8 58       	subi	r30, 0x88	; 136
    21b2:	fe 4f       	sbci	r31, 0xFE	; 254
    21b4:	80 81       	ld	r24, Z
    21b6:	91 81       	ldd	r25, Z+1	; 0x01
    21b8:	cf 91       	pop	r28
    21ba:	0c 94 2e 0f 	jmp	0x1e5c	;  0x1e5c
    21be:	c0 3f       	cpi	r28, 0xF0	; 240
    21c0:	30 f0       	brcs	.+12     	;  0x21ce
    21c2:	8c 2f       	mov	r24, r28
    21c4:	0e 94 cd 1c 	call	0x399a	;  0x399a
    21c8:	cf 91       	pop	r28
    21ca:	0c 94 b4 1d 	jmp	0x3b68	;  0x3b68
    21ce:	cf 91       	pop	r28
    21d0:	08 95       	ret
    21d2:	88 23       	and	r24, r24
    21d4:	09 f4       	brne	.+2      	;  0x21d8
    21d6:	52 c0       	rjmp	.+164    	;  0x227c
    21d8:	82 38       	cpi	r24, 0x82	; 130
    21da:	71 f4       	brne	.+28     	;  0x21f8
    21dc:	0e 94 b2 0e 	call	0x1d64	;  0x1d64
    21e0:	81 ff       	sbrs	r24, 1
    21e2:	4c c0       	rjmp	.+152    	;  0x227c
    21e4:	89 e3       	ldi	r24, 0x39	; 57
    21e6:	0e 94 4e 19 	call	0x329c	;  0x329c
    21ea:	0e 94 bf 19 	call	0x337e	;  0x337e
    21ee:	89 e3       	ldi	r24, 0x39	; 57
    21f0:	0e 94 55 19 	call	0x32aa	;  0x32aa
    21f4:	0c 94 bf 19 	jmp	0x337e	;  0x337e
    21f8:	83 38       	cpi	r24, 0x83	; 131
    21fa:	59 f4       	brne	.+22     	;  0x2212
    21fc:	0e 94 b2 0e 	call	0x1d64	;  0x1d64
    2200:	80 ff       	sbrs	r24, 0
    2202:	3c c0       	rjmp	.+120    	;  0x227c
    2204:	83 e5       	ldi	r24, 0x53	; 83
    2206:	0e 94 4e 19 	call	0x329c	;  0x329c
    220a:	0e 94 bf 19 	call	0x337e	;  0x337e
    220e:	83 e5       	ldi	r24, 0x53	; 83
    2210:	ef cf       	rjmp	.-34     	;  0x21f0
    2212:	84 38       	cpi	r24, 0x84	; 132
    2214:	59 f4       	brne	.+22     	;  0x222c
    2216:	0e 94 b2 0e 	call	0x1d64	;  0x1d64
    221a:	82 ff       	sbrs	r24, 2
    221c:	2f c0       	rjmp	.+94     	;  0x227c
    221e:	87 e4       	ldi	r24, 0x47	; 71
    2220:	0e 94 4e 19 	call	0x329c	;  0x329c
    2224:	0e 94 bf 19 	call	0x337e	;  0x337e
    2228:	87 e4       	ldi	r24, 0x47	; 71
    222a:	e2 cf       	rjmp	.-60     	;  0x21f0
    222c:	9c ef       	ldi	r25, 0xFC	; 252
    222e:	98 0f       	add	r25, r24
    2230:	91 3a       	cpi	r25, 0xA1	; 161
    2232:	f0 f2       	brcs	.-68     	;  0x21f0
    2234:	90 e2       	ldi	r25, 0x20	; 32
    2236:	98 0f       	add	r25, r24
    2238:	98 30       	cpi	r25, 0x08	; 8
    223a:	50 f4       	brcc	.+20     	;  0x2250
    223c:	87 70       	andi	r24, 0x07	; 7
    223e:	91 e0       	ldi	r25, 0x01	; 1
    2240:	01 c0       	rjmp	.+2      	;  0x2244
    2242:	99 0f       	add	r25, r25
    2244:	8a 95       	dec	r24
    2246:	ea f7       	brpl	.-6      	;  0x2242
    2248:	89 2f       	mov	r24, r25
    224a:	0e 94 7c 19 	call	0x32f8	;  0x32f8
    224e:	d2 cf       	rjmp	.-92     	;  0x21f4
    2250:	9b e5       	ldi	r25, 0x5B	; 91
    2252:	98 0f       	add	r25, r24
    2254:	93 30       	cpi	r25, 0x03	; 3
    2256:	20 f4       	brcc	.+8      	;  0x2260
    2258:	90 e0       	ldi	r25, 0x00	; 0
    225a:	80 e0       	ldi	r24, 0x00	; 0
    225c:	0c 94 18 0f 	jmp	0x1e30	;  0x1e30
    2260:	98 e5       	ldi	r25, 0x58	; 88
    2262:	98 0f       	add	r25, r24
    2264:	97 31       	cpi	r25, 0x17	; 23
    2266:	20 f4       	brcc	.+8      	;  0x2270
    2268:	90 e0       	ldi	r25, 0x00	; 0
    226a:	80 e0       	ldi	r24, 0x00	; 0
    226c:	0c 94 2e 0f 	jmp	0x1e5c	;  0x1e5c
    2270:	80 3f       	cpi	r24, 0xF0	; 240
    2272:	20 f0       	brcs	.+8      	;  0x227c
    2274:	0e 94 35 1d 	call	0x3a6a	;  0x3a6a
    2278:	0c 94 b4 1d 	jmp	0x3b68	;  0x3b68
    227c:	08 95       	ret
    227e:	cf 93       	push	r28
    2280:	c8 2f       	mov	r28, r24
    2282:	0e 94 52 10 	call	0x20a4	;  0x20a4
    2286:	c9 33       	cpi	r28, 0x39	; 57
    2288:	49 f4       	brne	.+18     	;  0x229c
    228a:	2f ef       	ldi	r18, 0xFF	; 255
    228c:	87 ee       	ldi	r24, 0xE7	; 231
    228e:	93 e0       	ldi	r25, 0x03	; 3
    2290:	21 50       	subi	r18, 0x01	; 1
    2292:	80 40       	sbci	r24, 0x00	; 0
    2294:	90 40       	sbci	r25, 0x00	; 0
    2296:	e1 f7       	brne	.-8      	;  0x2290
    2298:	00 c0       	rjmp	.+0      	;  0x229a
    229a:	00 00       	nop
    229c:	8c 2f       	mov	r24, r28
    229e:	cf 91       	pop	r28
    22a0:	0c 94 e9 10 	jmp	0x21d2	;  0x21d2
    22a4:	88 23       	and	r24, r24
    22a6:	21 f0       	breq	.+8      	;  0x22b0
    22a8:	0e 94 76 19 	call	0x32ec	;  0x32ec
    22ac:	0c 94 bf 19 	jmp	0x337e	;  0x337e
    22b0:	08 95       	ret
    22b2:	88 23       	and	r24, r24
    22b4:	21 f0       	breq	.+8      	;  0x22be
    22b6:	0e 94 7c 19 	call	0x32f8	;  0x32f8
    22ba:	0c 94 bf 19 	jmp	0x337e	;  0x337e
    22be:	08 95       	ret
    22c0:	bf 92       	push	r11
    22c2:	cf 92       	push	r12
    22c4:	df 92       	push	r13
    22c6:	ef 92       	push	r14
    22c8:	ff 92       	push	r15
    22ca:	0f 93       	push	r16
    22cc:	1f 93       	push	r17
    22ce:	cf 93       	push	r28
    22d0:	df 93       	push	r29
    22d2:	6c 01       	movw	r12, r24
    22d4:	d6 2f       	mov	r29, r22
    22d6:	c7 2f       	mov	r28, r23
    22d8:	fc 01       	movw	r30, r24
    22da:	05 81       	ldd	r16, Z+5	; 0x05
    22dc:	02 95       	swap	r16
    22de:	0f 70       	andi	r16, 0x0F	; 15
    22e0:	12 81       	ldd	r17, Z+2	; 0x02
    22e2:	11 11       	cpse	r17, r1
    22e4:	0e 94 93 19 	call	0x3326	;  0x3326
    22e8:	0e 94 6c 19 	call	0x32d8	;  0x32d8
    22ec:	e8 2e       	mov	r14, r24
    22ee:	88 23       	and	r24, r24
    22f0:	71 f0       	breq	.+28     	;  0x230e
    22f2:	11 23       	and	r17, r17
    22f4:	b1 f0       	breq	.+44     	;  0x2322
    22f6:	80 e2       	ldi	r24, 0x20	; 32
    22f8:	8d 0f       	add	r24, r29
    22fa:	88 30       	cpi	r24, 0x08	; 8
    22fc:	90 f0       	brcs	.+36     	;  0x2322
    22fe:	82 e0       	ldi	r24, 0x02	; 2
    2300:	0e 94 0a 1a 	call	0x3414	;  0x3414
    2304:	0e 94 6c 19 	call	0x32d8	;  0x32d8
    2308:	91 e0       	ldi	r25, 0x01	; 1
    230a:	e8 2e       	mov	r14, r24
    230c:	e9 26       	eor	r14, r25
    230e:	bc 2e       	mov	r11, r28
    2310:	b2 94       	swap	r11
    2312:	9f e0       	ldi	r25, 0x0F	; 15
    2314:	b9 22       	and	r11, r25
    2316:	eb 2d       	mov	r30, r11
    2318:	f0 e0       	ldi	r31, 0x00	; 0
    231a:	e2 56       	subi	r30, 0x62	; 98
    231c:	f3 4d       	sbci	r31, 0xD3	; 211
    231e:	0c 94 2e 2c 	jmp	0x585c	;  0x585c
    2322:	e1 2c       	mov	r14, r1
    2324:	f4 cf       	rjmp	.-24     	;  0x230e
    2326:	0c 2f       	mov	r16, r28
    2328:	0f 70       	andi	r16, 0x0F	; 15
    232a:	c0 7f       	andi	r28, 0xF0	; 240
    232c:	11 f0       	breq	.+4      	;  0x2332
    232e:	02 95       	swap	r16
    2330:	00 7f       	andi	r16, 0xF0	; 240
    2332:	11 23       	and	r17, r17
    2334:	a9 f0       	breq	.+42     	;  0x2360
    2336:	00 23       	and	r16, r16
    2338:	59 f0       	breq	.+22     	;  0x2350
    233a:	80 e2       	ldi	r24, 0x20	; 32
    233c:	8d 0f       	add	r24, r29
    233e:	88 30       	cpi	r24, 0x08	; 8
    2340:	10 f0       	brcs	.+4      	;  0x2346
    2342:	d1 11       	cpse	r29, r1
    2344:	09 c0       	rjmp	.+18     	;  0x2358
    2346:	80 2f       	mov	r24, r16
    2348:	0e 94 76 19 	call	0x32ec	;  0x32ec
    234c:	0e 94 bf 19 	call	0x337e	;  0x337e
    2350:	8d 2f       	mov	r24, r29
    2352:	0e 94 52 10 	call	0x20a4	;  0x20a4
    2356:	14 c0       	rjmp	.+40     	;  0x2380
    2358:	80 2f       	mov	r24, r16
    235a:	0e 94 86 19 	call	0x330c	;  0x330c
    235e:	f6 cf       	rjmp	.-20     	;  0x234c
    2360:	8d 2f       	mov	r24, r29
    2362:	0e 94 e9 10 	call	0x21d2	;  0x21d2
    2366:	00 23       	and	r16, r16
    2368:	59 f0       	breq	.+22     	;  0x2380
    236a:	80 e2       	ldi	r24, 0x20	; 32
    236c:	8d 0f       	add	r24, r29
    236e:	88 30       	cpi	r24, 0x08	; 8
    2370:	10 f0       	brcs	.+4      	;  0x2376
    2372:	d1 11       	cpse	r29, r1
    2374:	2c c0       	rjmp	.+88     	;  0x23ce
    2376:	80 2f       	mov	r24, r16
    2378:	0e 94 7c 19 	call	0x32f8	;  0x32f8
    237c:	0e 94 bf 19 	call	0x337e	;  0x337e
    2380:	2b 2d       	mov	r18, r11
    2382:	28 50       	subi	r18, 0x08	; 8
    2384:	33 0b       	sbc	r19, r19
    2386:	24 30       	cpi	r18, 0x04	; 4
    2388:	31 05       	cpc	r19, r1
    238a:	20 f4       	brcc	.+8      	;  0x2394
    238c:	0e 94 b2 0e 	call	0x1d64	;  0x1d64
    2390:	0e 94 d8 08 	call	0x11b0	;  0x11b0
    2394:	ee 20       	and	r14, r14
    2396:	09 f4       	brne	.+2      	;  0x239a
    2398:	d5 c1       	rjmp	.+938    	;  0x2744
    239a:	0e 94 68 19 	call	0x32d0	;  0x32d0
    239e:	80 fd       	sbrc	r24, 0
    23a0:	d1 c1       	rjmp	.+930    	;  0x2744
    23a2:	f6 01       	movw	r30, r12
    23a4:	12 82       	std	Z+2, r1	; 0x02
    23a6:	0e 94 62 19 	call	0x32c4	;  0x32c4
    23aa:	0e 94 ef 17 	call	0x2fde	;  0x2fde
    23ae:	c6 01       	movw	r24, r12
    23b0:	0e 94 c3 13 	call	0x2786	;  0x2786
    23b4:	0e 94 62 19 	call	0x32c4	;  0x32c4
    23b8:	df 91       	pop	r29
    23ba:	cf 91       	pop	r28
    23bc:	1f 91       	pop	r17
    23be:	0f 91       	pop	r16
    23c0:	ff 90       	pop	r15
    23c2:	ef 90       	pop	r14
    23c4:	df 90       	pop	r13
    23c6:	cf 90       	pop	r12
    23c8:	bf 90       	pop	r11
    23ca:	0c 94 10 18 	jmp	0x3020	;  0x3020
    23ce:	80 2f       	mov	r24, r16
    23d0:	0e 94 8c 19 	call	0x3318	;  0x3318
    23d4:	d3 cf       	rjmp	.-90     	;  0x237c
    23d6:	fc 2f       	mov	r31, r28
    23d8:	ff 70       	andi	r31, 0x0F	; 15
    23da:	ff 2e       	mov	r15, r31
    23dc:	c0 7f       	andi	r28, 0xF0	; 240
    23de:	c0 32       	cpi	r28, 0x20	; 32
    23e0:	19 f0       	breq	.+6      	;  0x23e8
    23e2:	f2 94       	swap	r15
    23e4:	80 ef       	ldi	r24, 0xF0	; 240
    23e6:	f8 22       	and	r15, r24
    23e8:	dd 23       	and	r29, r29
    23ea:	69 f0       	breq	.+26     	;  0x2406
    23ec:	d1 30       	cpi	r29, 0x01	; 1
    23ee:	49 f1       	breq	.+82     	;  0x2442
    23f0:	11 23       	and	r17, r17
    23f2:	91 f1       	breq	.+100    	;  0x2458
    23f4:	00 23       	and	r16, r16
    23f6:	51 f1       	breq	.+84     	;  0x244c
    23f8:	f6 01       	movw	r30, r12
    23fa:	85 81       	ldd	r24, Z+5	; 0x05
    23fc:	80 ff       	sbrs	r24, 0
    23fe:	a8 cf       	rjmp	.-176    	;  0x2350
    2400:	8f 70       	andi	r24, 0x0F	; 15
    2402:	85 83       	std	Z+5, r24	; 0x05
    2404:	23 c0       	rjmp	.+70     	;  0x244c
    2406:	11 23       	and	r17, r17
    2408:	81 f0       	breq	.+32     	;  0x242a
    240a:	01 11       	cpse	r16, r1
    240c:	06 c0       	rjmp	.+12     	;  0x241a
    240e:	0e 94 a6 19 	call	0x334c	;  0x334c
    2412:	8f 29       	or	r24, r15
    2414:	0e 94 52 11 	call	0x22a4	;  0x22a4
    2418:	b3 cf       	rjmp	.-154    	;  0x2380
    241a:	01 30       	cpi	r16, 0x01	; 1
    241c:	c1 f7       	brne	.-16     	;  0x240e
    241e:	0e 94 a6 19 	call	0x334c	;  0x334c
    2422:	8f 29       	or	r24, r15
    2424:	0e 94 ac 19 	call	0x3358	;  0x3358
    2428:	ab cf       	rjmp	.-170    	;  0x2380
    242a:	01 11       	cpse	r16, r1
    242c:	06 c0       	rjmp	.+12     	;  0x243a
    242e:	0e 94 b5 19 	call	0x336a	;  0x336a
    2432:	8f 2d       	mov	r24, r15
    2434:	0e 94 59 11 	call	0x22b2	;  0x22b2
    2438:	a3 cf       	rjmp	.-186    	;  0x2380
    243a:	01 30       	cpi	r16, 0x01	; 1
    243c:	09 f4       	brne	.+2      	;  0x2440
    243e:	a0 cf       	rjmp	.-192    	;  0x2380
    2440:	f6 cf       	rjmp	.-20     	;  0x242e
    2442:	11 23       	and	r17, r17
    2444:	29 f0       	breq	.+10     	;  0x2450
    2446:	06 30       	cpi	r16, 0x06	; 6
    2448:	08 f0       	brcs	.+2      	;  0x244c
    244a:	9a cf       	rjmp	.-204    	;  0x2380
    244c:	8f 2d       	mov	r24, r15
    244e:	e2 cf       	rjmp	.-60     	;  0x2414
    2450:	05 30       	cpi	r16, 0x05	; 5
    2452:	08 f0       	brcs	.+2      	;  0x2456
    2454:	95 cf       	rjmp	.-214    	;  0x2380
    2456:	ed cf       	rjmp	.-38     	;  0x2432
    2458:	00 23       	and	r16, r16
    245a:	59 f3       	breq	.-42     	;  0x2432
    245c:	d9 33       	cpi	r29, 0x39	; 57
    245e:	49 f4       	brne	.+18     	;  0x2472
    2460:	ff ef       	ldi	r31, 0xFF	; 255
    2462:	27 ee       	ldi	r18, 0xE7	; 231
    2464:	33 e0       	ldi	r19, 0x03	; 3
    2466:	f1 50       	subi	r31, 0x01	; 1
    2468:	20 40       	sbci	r18, 0x00	; 0
    246a:	30 40       	sbci	r19, 0x00	; 0
    246c:	e1 f7       	brne	.-8      	;  0x2466
    246e:	00 c0       	rjmp	.+0      	;  0x2470
    2470:	00 00       	nop
    2472:	8d 2f       	mov	r24, r29
    2474:	0e 94 e9 10 	call	0x21d2	;  0x21d2
    2478:	83 cf       	rjmp	.-250    	;  0x2380
    247a:	8c 2f       	mov	r24, r28
    247c:	86 95       	lsr	r24
    247e:	86 95       	lsr	r24
    2480:	83 70       	andi	r24, 0x03	; 3
    2482:	69 f0       	breq	.+26     	;  0x249e
    2484:	81 30       	cpi	r24, 0x01	; 1
    2486:	09 f0       	breq	.+2      	;  0x248a
    2488:	7b cf       	rjmp	.-266    	;  0x2380
    248a:	8d 2f       	mov	r24, r29
    248c:	9c 2f       	mov	r25, r28
    248e:	93 70       	andi	r25, 0x03	; 3
    2490:	11 11       	cpse	r17, r1
    2492:	02 c0       	rjmp	.+4      	;  0x2498
    2494:	90 e0       	ldi	r25, 0x00	; 0
    2496:	80 e0       	ldi	r24, 0x00	; 0
    2498:	0e 94 2e 0f 	call	0x1e5c	;  0x1e5c
    249c:	71 cf       	rjmp	.-286    	;  0x2380
    249e:	8d 2f       	mov	r24, r29
    24a0:	9c 2f       	mov	r25, r28
    24a2:	93 70       	andi	r25, 0x03	; 3
    24a4:	11 11       	cpse	r17, r1
    24a6:	02 c0       	rjmp	.+4      	;  0x24ac
    24a8:	90 e0       	ldi	r25, 0x00	; 0
    24aa:	80 e0       	ldi	r24, 0x00	; 0
    24ac:	0e 94 18 0f 	call	0x1e30	;  0x1e30
    24b0:	67 cf       	rjmp	.-306    	;  0x2380
    24b2:	11 23       	and	r17, r17
    24b4:	09 f1       	breq	.+66     	;  0x24f8
    24b6:	d5 3f       	cpi	r29, 0xF5	; 245
    24b8:	99 f0       	breq	.+38     	;  0x24e0
    24ba:	d6 3f       	cpi	r29, 0xF6	; 246
    24bc:	b9 f0       	breq	.+46     	;  0x24ec
    24be:	d4 3f       	cpi	r29, 0xF4	; 244
    24c0:	49 f4       	brne	.+18     	;  0x24d4
    24c2:	80 91 5e 02 	lds	r24, 0x025E	;  0x80025e
    24c6:	90 91 5f 02 	lds	r25, 0x025F	;  0x80025f
    24ca:	81 60       	ori	r24, 0x01	; 1
    24cc:	90 93 5f 02 	sts	0x025F, r25	;  0x80025f
    24d0:	80 93 5e 02 	sts	0x025E, r24	;  0x80025e
    24d4:	8d 2f       	mov	r24, r29
    24d6:	0e 94 cd 1c 	call	0x399a	;  0x399a
    24da:	0e 94 b4 1d 	call	0x3b68	;  0x3b68
    24de:	50 cf       	rjmp	.-352    	;  0x2380
    24e0:	80 91 5e 02 	lds	r24, 0x025E	;  0x80025e
    24e4:	90 91 5f 02 	lds	r25, 0x025F	;  0x80025f
    24e8:	82 60       	ori	r24, 0x02	; 2
    24ea:	f0 cf       	rjmp	.-32     	;  0x24cc
    24ec:	80 91 5e 02 	lds	r24, 0x025E	;  0x80025e
    24f0:	90 91 5f 02 	lds	r25, 0x025F	;  0x80025f
    24f4:	84 60       	ori	r24, 0x04	; 4
    24f6:	ea cf       	rjmp	.-44     	;  0x24cc
    24f8:	d5 3f       	cpi	r29, 0xF5	; 245
    24fa:	89 f0       	breq	.+34     	;  0x251e
    24fc:	d6 3f       	cpi	r29, 0xF6	; 246
    24fe:	a9 f0       	breq	.+42     	;  0x252a
    2500:	d4 3f       	cpi	r29, 0xF4	; 244
    2502:	49 f4       	brne	.+18     	;  0x2516
    2504:	80 91 5e 02 	lds	r24, 0x025E	;  0x80025e
    2508:	90 91 5f 02 	lds	r25, 0x025F	;  0x80025f
    250c:	8e 7f       	andi	r24, 0xFE	; 254
    250e:	90 93 5f 02 	sts	0x025F, r25	;  0x80025f
    2512:	80 93 5e 02 	sts	0x025E, r24	;  0x80025e
    2516:	8d 2f       	mov	r24, r29
    2518:	0e 94 35 1d 	call	0x3a6a	;  0x3a6a
    251c:	de cf       	rjmp	.-68     	;  0x24da
    251e:	80 91 5e 02 	lds	r24, 0x025E	;  0x80025e
    2522:	90 91 5f 02 	lds	r25, 0x025F	;  0x80025f
    2526:	8d 7f       	andi	r24, 0xFD	; 253
    2528:	f2 cf       	rjmp	.-28     	;  0x250e
    252a:	80 91 5e 02 	lds	r24, 0x025E	;  0x80025e
    252e:	90 91 5f 02 	lds	r25, 0x025F	;  0x80025f
    2532:	8b 7f       	andi	r24, 0xFB	; 251
    2534:	ec cf       	rjmp	.-40     	;  0x250e
    2536:	8c 2f       	mov	r24, r28
    2538:	83 70       	andi	r24, 0x03	; 3
    253a:	09 f0       	breq	.+2      	;  0x253e
    253c:	41 c0       	rjmp	.+130    	;  0x25c0
    253e:	11 11       	cpse	r17, r1
    2540:	1f cf       	rjmp	.-450    	;  0x2380
    2542:	4d 2f       	mov	r20, r29
    2544:	42 95       	swap	r20
    2546:	46 95       	lsr	r20
    2548:	47 70       	andi	r20, 0x07	; 7
    254a:	44 0f       	add	r20, r20
    254c:	44 0f       	add	r20, r20
    254e:	0d 2f       	mov	r16, r29
    2550:	0f 70       	andi	r16, 0x0F	; 15
    2552:	10 e0       	ldi	r17, 0x00	; 0
    2554:	30 e0       	ldi	r19, 0x00	; 0
    2556:	20 e0       	ldi	r18, 0x00	; 0
    2558:	04 2e       	mov	r0, r20
    255a:	04 c0       	rjmp	.+8      	;  0x2564
    255c:	00 0f       	add	r16, r16
    255e:	11 1f       	adc	r17, r17
    2560:	22 1f       	adc	r18, r18
    2562:	33 1f       	adc	r19, r19
    2564:	0a 94       	dec	r0
    2566:	d2 f7       	brpl	.-12     	;  0x255c
    2568:	60 e0       	ldi	r22, 0x00	; 0
    256a:	70 e0       	ldi	r23, 0x00	; 0
    256c:	cb 01       	movw	r24, r22
    256e:	d4 ff       	sbrs	r29, 4
    2570:	0f c0       	rjmp	.+30     	;  0x2590
    2572:	6f e0       	ldi	r22, 0x0F	; 15
    2574:	70 e0       	ldi	r23, 0x00	; 0
    2576:	80 e0       	ldi	r24, 0x00	; 0
    2578:	90 e0       	ldi	r25, 0x00	; 0
    257a:	04 c0       	rjmp	.+8      	;  0x2584
    257c:	66 0f       	add	r22, r22
    257e:	77 1f       	adc	r23, r23
    2580:	88 1f       	adc	r24, r24
    2582:	99 1f       	adc	r25, r25
    2584:	4a 95       	dec	r20
    2586:	d2 f7       	brpl	.-12     	;  0x257c
    2588:	60 95       	com	r22
    258a:	70 95       	com	r23
    258c:	80 95       	com	r24
    258e:	90 95       	com	r25
    2590:	c6 95       	lsr	r28
    2592:	c6 95       	lsr	r28
    2594:	c3 70       	andi	r28, 0x03	; 3
    2596:	60 2b       	or	r22, r16
    2598:	71 2b       	or	r23, r17
    259a:	82 2b       	or	r24, r18
    259c:	93 2b       	or	r25, r19
    259e:	c2 30       	cpi	r28, 0x02	; 2
    25a0:	49 f0       	breq	.+18     	;  0x25b4
    25a2:	58 f4       	brcc	.+22     	;  0x25ba
    25a4:	c1 30       	cpi	r28, 0x01	; 1
    25a6:	19 f0       	breq	.+6      	;  0x25ae
    25a8:	0e 94 a1 17 	call	0x2f42	;  0x2f42
    25ac:	e9 ce       	rjmp	.-558    	;  0x2380
    25ae:	0e 94 8f 17 	call	0x2f1e	;  0x2f1e
    25b2:	e6 ce       	rjmp	.-564    	;  0x2380
    25b4:	0e 94 b3 17 	call	0x2f66	;  0x2f66
    25b8:	e3 ce       	rjmp	.-570    	;  0x2380
    25ba:	0e 94 8d 17 	call	0x2f1a	;  0x2f1a
    25be:	e0 ce       	rjmp	.-576    	;  0x2380
    25c0:	86 95       	lsr	r24
    25c2:	11 23       	and	r17, r17
    25c4:	11 f0       	breq	.+4      	;  0x25ca
    25c6:	8c 2f       	mov	r24, r28
    25c8:	81 70       	andi	r24, 0x01	; 1
    25ca:	88 23       	and	r24, r24
    25cc:	09 f4       	brne	.+2      	;  0x25d0
    25ce:	d8 ce       	rjmp	.-592    	;  0x2380
    25d0:	4d 2f       	mov	r20, r29
    25d2:	42 95       	swap	r20
    25d4:	46 95       	lsr	r20
    25d6:	47 70       	andi	r20, 0x07	; 7
    25d8:	44 0f       	add	r20, r20
    25da:	44 0f       	add	r20, r20
    25dc:	0d 2f       	mov	r16, r29
    25de:	0f 70       	andi	r16, 0x0F	; 15
    25e0:	10 e0       	ldi	r17, 0x00	; 0
    25e2:	30 e0       	ldi	r19, 0x00	; 0
    25e4:	20 e0       	ldi	r18, 0x00	; 0
    25e6:	04 2e       	mov	r0, r20
    25e8:	04 c0       	rjmp	.+8      	;  0x25f2
    25ea:	00 0f       	add	r16, r16
    25ec:	11 1f       	adc	r17, r17
    25ee:	22 1f       	adc	r18, r18
    25f0:	33 1f       	adc	r19, r19
    25f2:	0a 94       	dec	r0
    25f4:	d2 f7       	brpl	.-12     	;  0x25ea
    25f6:	60 e0       	ldi	r22, 0x00	; 0
    25f8:	70 e0       	ldi	r23, 0x00	; 0
    25fa:	cb 01       	movw	r24, r22
    25fc:	d4 ff       	sbrs	r29, 4
    25fe:	0f c0       	rjmp	.+30     	;  0x261e
    2600:	6f e0       	ldi	r22, 0x0F	; 15
    2602:	70 e0       	ldi	r23, 0x00	; 0
    2604:	80 e0       	ldi	r24, 0x00	; 0
    2606:	90 e0       	ldi	r25, 0x00	; 0
    2608:	04 c0       	rjmp	.+8      	;  0x2612
    260a:	66 0f       	add	r22, r22
    260c:	77 1f       	adc	r23, r23
    260e:	88 1f       	adc	r24, r24
    2610:	99 1f       	adc	r25, r25
    2612:	4a 95       	dec	r20
    2614:	d2 f7       	brpl	.-12     	;  0x260a
    2616:	60 95       	com	r22
    2618:	70 95       	com	r23
    261a:	80 95       	com	r24
    261c:	90 95       	com	r25
    261e:	c6 95       	lsr	r28
    2620:	c6 95       	lsr	r28
    2622:	c3 70       	andi	r28, 0x03	; 3
    2624:	60 2b       	or	r22, r16
    2626:	71 2b       	or	r23, r17
    2628:	82 2b       	or	r24, r18
    262a:	93 2b       	or	r25, r19
    262c:	c2 30       	cpi	r28, 0x02	; 2
    262e:	49 f0       	breq	.+18     	;  0x2642
    2630:	58 f4       	brcc	.+22     	;  0x2648
    2632:	c1 30       	cpi	r28, 0x01	; 1
    2634:	19 f0       	breq	.+6      	;  0x263c
    2636:	0e 94 66 18 	call	0x30cc	;  0x30cc
    263a:	a2 ce       	rjmp	.-700    	;  0x2380
    263c:	0e 94 54 18 	call	0x30a8	;  0x30a8
    2640:	9f ce       	rjmp	.-706    	;  0x2380
    2642:	0e 94 78 18 	call	0x30f0	;  0x30f0
    2646:	9c ce       	rjmp	.-712    	;  0x2380
    2648:	0e 94 c9 17 	call	0x2f92	;  0x2f92
    264c:	99 ce       	rjmp	.-718    	;  0x2380
    264e:	cf 70       	andi	r28, 0x0F	; 15
    2650:	11 23       	and	r17, r17
    2652:	29 f0       	breq	.+10     	;  0x265e
    2654:	8c 2f       	mov	r24, r28
    2656:	0e 94 ef 17 	call	0x2fde	;  0x2fde
    265a:	8d 2f       	mov	r24, r29
    265c:	db ce       	rjmp	.-586    	;  0x2414
    265e:	8d 2f       	mov	r24, r29
    2660:	0e 94 59 11 	call	0x22b2	;  0x22b2
    2664:	8c 2f       	mov	r24, r28
    2666:	0e 94 10 18 	call	0x3020	;  0x3020
    266a:	8a ce       	rjmp	.-748    	;  0x2380
    266c:	d2 3f       	cpi	r29, 0xF2	; 242
    266e:	89 f1       	breq	.+98     	;  0x26d2
    2670:	60 f4       	brcc	.+24     	;  0x268a
    2672:	d0 3f       	cpi	r29, 0xF0	; 240
    2674:	c9 f0       	breq	.+50     	;  0x26a8
    2676:	d1 3f       	cpi	r29, 0xF1	; 241
    2678:	29 f1       	breq	.+74     	;  0x26c4
    267a:	11 23       	and	r17, r17
    267c:	09 f4       	brne	.+2      	;  0x2680
    267e:	42 c0       	rjmp	.+132    	;  0x2704
    2680:	01 11       	cpse	r16, r1
    2682:	66 ce       	rjmp	.-820    	;  0x2350
    2684:	8c 2f       	mov	r24, r28
    2686:	8f 71       	andi	r24, 0x1F	; 31
    2688:	21 c0       	rjmp	.+66     	;  0x26cc
    268a:	d3 3f       	cpi	r29, 0xF3	; 243
    268c:	39 f1       	breq	.+78     	;  0x26dc
    268e:	d4 3f       	cpi	r29, 0xF4	; 244
    2690:	a1 f7       	brne	.-24     	;  0x267a
    2692:	11 23       	and	r17, r17
    2694:	69 f1       	breq	.+90     	;  0x26f0
    2696:	cf 71       	andi	r28, 0x1F	; 31
    2698:	8c 2f       	mov	r24, r28
    269a:	0e 94 ef 17 	call	0x2fde	;  0x2fde
    269e:	63 e0       	ldi	r22, 0x03	; 3
    26a0:	8c 2f       	mov	r24, r28
    26a2:	0e 94 f5 19 	call	0x33ea	;  0x33ea
    26a6:	6c ce       	rjmp	.-808    	;  0x2380
    26a8:	11 23       	and	r17, r17
    26aa:	41 f0       	breq	.+16     	;  0x26bc
    26ac:	05 30       	cpi	r16, 0x05	; 5
    26ae:	08 f0       	brcs	.+2      	;  0x26b2
    26b0:	67 ce       	rjmp	.-818    	;  0x2380
    26b2:	8c 2f       	mov	r24, r28
    26b4:	8f 71       	andi	r24, 0x1F	; 31
    26b6:	0e 94 33 18 	call	0x3066	;  0x3066
    26ba:	62 ce       	rjmp	.-828    	;  0x2380
    26bc:	06 30       	cpi	r16, 0x06	; 6
    26be:	08 f0       	brcs	.+2      	;  0x26c2
    26c0:	5f ce       	rjmp	.-834    	;  0x2380
    26c2:	f7 cf       	rjmp	.-18     	;  0x26b2
    26c4:	8c 2f       	mov	r24, r28
    26c6:	8f 71       	andi	r24, 0x1F	; 31
    26c8:	11 23       	and	r17, r17
    26ca:	69 f2       	breq	.-102    	;  0x2666
    26cc:	0e 94 ef 17 	call	0x2fde	;  0x2fde
    26d0:	57 ce       	rjmp	.-850    	;  0x2380
    26d2:	8c 2f       	mov	r24, r28
    26d4:	8f 71       	andi	r24, 0x1F	; 31
    26d6:	11 23       	and	r17, r17
    26d8:	c9 f3       	breq	.-14     	;  0x26cc
    26da:	c5 cf       	rjmp	.-118    	;  0x2666
    26dc:	11 23       	and	r17, r17
    26de:	29 f0       	breq	.+10     	;  0x26ea
    26e0:	8c 2f       	mov	r24, r28
    26e2:	8f 71       	andi	r24, 0x1F	; 31
    26e4:	0e 94 da 17 	call	0x2fb4	;  0x2fb4
    26e8:	4b ce       	rjmp	.-874    	;  0x2380
    26ea:	0e 94 d5 17 	call	0x2faa	;  0x2faa
    26ee:	48 ce       	rjmp	.-880    	;  0x2380
    26f0:	81 e0       	ldi	r24, 0x01	; 1
    26f2:	0e 94 0a 1a 	call	0x3414	;  0x3414
    26f6:	02 30       	cpi	r16, 0x02	; 2
    26f8:	08 f4       	brcc	.+2      	;  0x26fc
    26fa:	42 ce       	rjmp	.-892    	;  0x2380
    26fc:	82 e0       	ldi	r24, 0x02	; 2
    26fe:	0e 94 0a 1a 	call	0x3414	;  0x3414
    2702:	3e ce       	rjmp	.-900    	;  0x2380
    2704:	00 23       	and	r16, r16
    2706:	59 f0       	breq	.+22     	;  0x271e
    2708:	d9 33       	cpi	r29, 0x39	; 57
    270a:	09 f0       	breq	.+2      	;  0x270e
    270c:	b2 ce       	rjmp	.-668    	;  0x2472
    270e:	8f ef       	ldi	r24, 0xFF	; 255
    2710:	97 ee       	ldi	r25, 0xE7	; 231
    2712:	e3 e0       	ldi	r30, 0x03	; 3
    2714:	81 50       	subi	r24, 0x01	; 1
    2716:	90 40       	sbci	r25, 0x00	; 0
    2718:	e0 40       	sbci	r30, 0x00	; 0
    271a:	e1 f7       	brne	.-8      	;  0x2714
    271c:	a8 ce       	rjmp	.-688    	;  0x246e
    271e:	8c 2f       	mov	r24, r28
    2720:	8f 71       	andi	r24, 0x1F	; 31
    2722:	a1 cf       	rjmp	.-190    	;  0x2666
    2724:	4c 2f       	mov	r20, r28
    2726:	4f 70       	andi	r20, 0x0F	; 15
    2728:	6d 2f       	mov	r22, r29
    272a:	c6 01       	movw	r24, r12
    272c:	0e 94 42 09 	call	0x1284	;  0x1284
    2730:	0e 94 05 17 	call	0x2e0a	;  0x2e0a
    2734:	25 ce       	rjmp	.-950    	;  0x2380
    2736:	4c 2f       	mov	r20, r28
    2738:	4f 70       	andi	r20, 0x0F	; 15
    273a:	6d 2f       	mov	r22, r29
    273c:	c6 01       	movw	r24, r12
    273e:	0e 94 45 09 	call	0x128a	;  0x128a
    2742:	1e ce       	rjmp	.-964    	;  0x2380
    2744:	df 91       	pop	r29
    2746:	cf 91       	pop	r28
    2748:	1f 91       	pop	r17
    274a:	0f 91       	pop	r16
    274c:	ff 90       	pop	r15
    274e:	ef 90       	pop	r14
    2750:	df 90       	pop	r13
    2752:	cf 90       	pop	r12
    2754:	bf 90       	pop	r11
    2756:	08 95       	ret
    2758:	0f 93       	push	r16
    275a:	1f 93       	push	r17
    275c:	cf 93       	push	r28
    275e:	df 93       	push	r29
    2760:	ec 01       	movw	r28, r24
    2762:	68 81       	ld	r22, Y
    2764:	79 81       	ldd	r23, Y+1	; 0x01
    2766:	8a 81       	ldd	r24, Y+2	; 0x02
    2768:	0e 94 2a 19 	call	0x3254	;  0x3254
    276c:	8c 01       	movw	r16, r24
    276e:	0e 94 8a 18 	call	0x3114	;  0x3114
    2772:	0e 94 8c 17 	call	0x2f18	;  0x2f18
    2776:	b8 01       	movw	r22, r16
    2778:	ce 01       	movw	r24, r28
    277a:	df 91       	pop	r29
    277c:	cf 91       	pop	r28
    277e:	1f 91       	pop	r17
    2780:	0f 91       	pop	r16
    2782:	0c 94 60 11 	jmp	0x22c0	;  0x22c0
    2786:	cf 93       	push	r28
    2788:	df 93       	push	r29
    278a:	ec 01       	movw	r28, r24
    278c:	8b 81       	ldd	r24, Y+3	; 0x03
    278e:	9c 81       	ldd	r25, Y+4	; 0x04
    2790:	89 2b       	or	r24, r25
    2792:	29 f0       	breq	.+10     	;  0x279e
    2794:	88 81       	ld	r24, Y
    2796:	99 81       	ldd	r25, Y+1	; 0x01
    2798:	89 23       	and	r24, r25
    279a:	8f 3f       	cpi	r24, 0xFF	; 255
    279c:	19 f4       	brne	.+6      	;  0x27a4
    279e:	df 91       	pop	r29
    27a0:	cf 91       	pop	r28
    27a2:	08 95       	ret
    27a4:	ce 01       	movw	r24, r28
    27a6:	0e 94 f0 08 	call	0x11e0	;  0x11e0
    27aa:	88 23       	and	r24, r24
    27ac:	c1 f3       	breq	.-16     	;  0x279e
    27ae:	ce 01       	movw	r24, r28
    27b0:	0e 94 ac 13 	call	0x2758	;  0x2758
    27b4:	ce 01       	movw	r24, r28
    27b6:	df 91       	pop	r29
    27b8:	cf 91       	pop	r28
    27ba:	0c 94 ff 07 	jmp	0xffe	;  0xffe
    27be:	0e 94 93 19 	call	0x3326	;  0x3326
    27c2:	0e 94 a3 19 	call	0x3346	;  0x3346
    27c6:	0e 94 bf 19 	call	0x337e	;  0x337e
    27ca:	0e 94 5b 1f 	call	0x3eb6	;  0x3eb6
    27ce:	0e 94 b4 1d 	call	0x3b68	;  0x3b68
    27d2:	90 e0       	ldi	r25, 0x00	; 0
    27d4:	80 e0       	ldi	r24, 0x00	; 0
    27d6:	0e 94 18 0f 	call	0x1e30	;  0x1e30
    27da:	90 e0       	ldi	r25, 0x00	; 0
    27dc:	80 e0       	ldi	r24, 0x00	; 0
    27de:	0c 94 2e 0f 	jmp	0x1e5c	;  0x1e5c
    27e2:	0e 94 5c 19 	call	0x32b8	;  0x32b8
    27e6:	0c 94 df 13 	jmp	0x27be	;  0x27be
    27ea:	0e 94 83 19 	call	0x3306	;  0x3306
    27ee:	0c 94 f1 13 	jmp	0x27e2	;  0x27e2
    27f2:	e9 2f       	mov	r30, r25
    27f4:	e2 95       	swap	r30
    27f6:	ef 70       	andi	r30, 0x0F	; 15
    27f8:	e2 50       	subi	r30, 0x02	; 2
    27fa:	ee 30       	cpi	r30, 0x0E	; 14
    27fc:	70 f4       	brcc	.+28     	;  0x281a
    27fe:	f0 e0       	ldi	r31, 0x00	; 0
    2800:	e2 55       	subi	r30, 0x52	; 82
    2802:	f3 4d       	sbci	r31, 0xD3	; 211
    2804:	0c 94 2e 2c 	jmp	0x585c	;  0x585c
    2808:	80 3f       	cpi	r24, 0xF0	; 240
    280a:	19 f0       	breq	.+6      	;  0x2812
    280c:	20 f4       	brcc	.+8      	;  0x2816
    280e:	88 3e       	cpi	r24, 0xE8	; 232
    2810:	20 f4       	brcc	.+8      	;  0x281a
    2812:	81 e0       	ldi	r24, 0x01	; 1
    2814:	08 95       	ret
    2816:	84 3f       	cpi	r24, 0xF4	; 244
    2818:	e1 f3       	breq	.-8      	;  0x2812
    281a:	80 e0       	ldi	r24, 0x00	; 0
    281c:	08 95       	ret
    281e:	88 3e       	cpi	r24, 0xE8	; 232
    2820:	c0 f3       	brcs	.-16     	;  0x2812
    2822:	81 3f       	cpi	r24, 0xF1	; 241
    2824:	d1 f7       	brne	.-12     	;  0x281a
    2826:	f5 cf       	rjmp	.-22     	;  0x2812
    2828:	93 fb       	bst	r25, 3
    282a:	88 27       	eor	r24, r24
    282c:	80 f9       	bld	r24, 0
    282e:	08 95       	ret
    2830:	0e 94 20 19 	call	0x3240	;  0x3240
    2834:	0c 94 f9 13 	jmp	0x27f2	;  0x27f2
    2838:	cf 93       	push	r28
    283a:	df 93       	push	r29
    283c:	00 d0       	rcall	.+0      	;  0x283e
    283e:	00 d0       	rcall	.+0      	;  0x2840
    2840:	0f 92       	push	r0
    2842:	cd b7       	in	r28, 0x3d	; 61
    2844:	de b7       	in	r29, 0x3e	; 62
    2846:	0f 90       	pop	r0
    2848:	0f 90       	pop	r0
    284a:	0f 90       	pop	r0
    284c:	0f 90       	pop	r0
    284e:	0f 90       	pop	r0
    2850:	df 91       	pop	r29
    2852:	cf 91       	pop	r28
    2854:	08 95       	ret
    2856:	cf 93       	push	r28
    2858:	df 93       	push	r29
    285a:	00 d0       	rcall	.+0      	;  0x285c
    285c:	00 d0       	rcall	.+0      	;  0x285e
    285e:	00 d0       	rcall	.+0      	;  0x2860
    2860:	cd b7       	in	r28, 0x3d	; 61
    2862:	de b7       	in	r29, 0x3e	; 62
    2864:	26 96       	adiw	r28, 0x06	; 6
    2866:	0f b6       	in	r0, 0x3f	; 63
    2868:	f8 94       	cli
    286a:	de bf       	out	0x3e, r29	; 62
    286c:	0f be       	out	0x3f, r0	; 63
    286e:	cd bf       	out	0x3d, r28	; 61
    2870:	df 91       	pop	r29
    2872:	cf 91       	pop	r28
    2874:	08 95       	ret
    2876:	1f 93       	push	r17
    2878:	cf 93       	push	r28
    287a:	df 93       	push	r29
    287c:	c0 91 d8 01 	lds	r28, 0x01D8	;  0x8001d8
    2880:	16 e0       	ldi	r17, 0x06	; 6
    2882:	80 91 d9 01 	lds	r24, 0x01D9	;  0x8001d9
    2886:	8c 13       	cpse	r24, r28
    2888:	04 c0       	rjmp	.+8      	;  0x2892
    288a:	df 91       	pop	r29
    288c:	cf 91       	pop	r28
    288e:	1f 91       	pop	r17
    2890:	08 95       	ret
    2892:	d0 e0       	ldi	r29, 0x00	; 0
    2894:	1c 9f       	mul	r17, r28
    2896:	f0 01       	movw	r30, r0
    2898:	1d 9f       	mul	r17, r29
    289a:	f0 0d       	add	r31, r0
    289c:	11 24       	eor	r1, r1
    289e:	e6 52       	subi	r30, 0x26	; 38
    28a0:	fe 4f       	sbci	r31, 0xFE	; 254
    28a2:	40 81       	ld	r20, Z
    28a4:	51 81       	ldd	r21, Z+1	; 0x01
    28a6:	62 81       	ldd	r22, Z+2	; 0x02
    28a8:	73 81       	ldd	r23, Z+3	; 0x03
    28aa:	84 81       	ldd	r24, Z+4	; 0x04
    28ac:	95 81       	ldd	r25, Z+5	; 0x05
    28ae:	0e 94 2b 14 	call	0x2856	;  0x2856
    28b2:	21 96       	adiw	r28, 0x01	; 1
    28b4:	c7 70       	andi	r28, 0x07	; 7
    28b6:	e5 cf       	rjmp	.-54     	;  0x2882
    28b8:	40 91 0a 02 	lds	r20, 0x020A	;  0x80020a
    28bc:	50 91 0b 02 	lds	r21, 0x020B	;  0x80020b
    28c0:	60 91 0c 02 	lds	r22, 0x020C	;  0x80020c
    28c4:	70 91 0d 02 	lds	r23, 0x020D	;  0x80020d
    28c8:	80 91 0e 02 	lds	r24, 0x020E	;  0x80020e
    28cc:	90 91 0f 02 	lds	r25, 0x020F	;  0x80020f
    28d0:	0c 94 2b 14 	jmp	0x2856	;  0x2856
    28d4:	1f 93       	push	r17
    28d6:	cf 93       	push	r28
    28d8:	df 93       	push	r29
    28da:	80 91 0f 02 	lds	r24, 0x020F	;  0x80020f
    28de:	80 7f       	andi	r24, 0xF0	; 240
    28e0:	a9 f4       	brne	.+42     	;  0x290c
    28e2:	80 91 0c 02 	lds	r24, 0x020C	;  0x80020c
    28e6:	88 23       	and	r24, r24
    28e8:	89 f0       	breq	.+34     	;  0x290c
    28ea:	80 91 d8 01 	lds	r24, 0x01D8	;  0x8001d8
    28ee:	c0 91 d9 01 	lds	r28, 0x01D9	;  0x8001d9
    28f2:	60 91 0a 02 	lds	r22, 0x020A	;  0x80020a
    28f6:	70 91 0b 02 	lds	r23, 0x020B	;  0x80020b
    28fa:	a0 91 0d 02 	lds	r26, 0x020D	;  0x80020d
    28fe:	b0 91 0e 02 	lds	r27, 0x020E	;  0x80020e
    2902:	d6 2f       	mov	r29, r22
    2904:	d7 23       	and	r29, r23
    2906:	16 e0       	ldi	r17, 0x06	; 6
    2908:	c8 13       	cpse	r28, r24
    290a:	04 c0       	rjmp	.+8      	;  0x2914
    290c:	df 91       	pop	r29
    290e:	cf 91       	pop	r28
    2910:	1f 91       	pop	r17
    2912:	08 95       	ret
    2914:	90 e0       	ldi	r25, 0x00	; 0
    2916:	10 97       	sbiw	r26, 0x00	; 0
    2918:	11 f0       	breq	.+4      	;  0x291e
    291a:	df 3f       	cpi	r29, 0xFF	; 255
    291c:	19 f4       	brne	.+6      	;  0x2924
    291e:	01 96       	adiw	r24, 0x01	; 1
    2920:	87 70       	andi	r24, 0x07	; 7
    2922:	f2 cf       	rjmp	.-28     	;  0x2908
    2924:	18 9f       	mul	r17, r24
    2926:	90 01       	movw	r18, r0
    2928:	19 9f       	mul	r17, r25
    292a:	30 0d       	add	r19, r0
    292c:	11 24       	eor	r1, r1
    292e:	f9 01       	movw	r30, r18
    2930:	e6 52       	subi	r30, 0x26	; 38
    2932:	fe 4f       	sbci	r31, 0xFE	; 254
    2934:	41 81       	ldd	r20, Z+1	; 0x01
    2936:	47 13       	cpse	r20, r23
    2938:	f2 cf       	rjmp	.-28     	;  0x291e
    293a:	40 81       	ld	r20, Z
    293c:	46 13       	cpse	r20, r22
    293e:	ef cf       	rjmp	.-34     	;  0x291e
    2940:	42 81       	ldd	r20, Z+2	; 0x02
    2942:	41 11       	cpse	r20, r1
    2944:	ec cf       	rjmp	.-40     	;  0x291e
    2946:	43 81       	ldd	r20, Z+3	; 0x03
    2948:	54 81       	ldd	r21, Z+4	; 0x04
    294a:	4a 1b       	sub	r20, r26
    294c:	5b 0b       	sbc	r21, r27
    294e:	48 3c       	cpi	r20, 0xC8	; 200
    2950:	51 05       	cpc	r21, r1
    2952:	28 f7       	brcc	.-54     	;  0x291e
    2954:	80 91 0f 02 	lds	r24, 0x020F	;  0x80020f
    2958:	8f 70       	andi	r24, 0x0F	; 15
    295a:	80 61       	ori	r24, 0x10	; 16
    295c:	80 93 0f 02 	sts	0x020F, r24	;  0x80020f
    2960:	f9 01       	movw	r30, r18
    2962:	e1 52       	subi	r30, 0x21	; 33
    2964:	fe 4f       	sbci	r31, 0xFE	; 254
    2966:	80 81       	ld	r24, Z
    2968:	8f 70       	andi	r24, 0x0F	; 15
    296a:	80 61       	ori	r24, 0x10	; 16
    296c:	80 83       	st	Z, r24
    296e:	8a e0       	ldi	r24, 0x0A	; 10
    2970:	92 e0       	ldi	r25, 0x02	; 2
    2972:	0e 94 c3 13 	call	0x2786	;  0x2786
    2976:	df 91       	pop	r29
    2978:	cf 91       	pop	r28
    297a:	1f 91       	pop	r17
    297c:	0c 94 3b 14 	jmp	0x2876	;  0x2876
    2980:	af 92       	push	r10
    2982:	bf 92       	push	r11
    2984:	cf 92       	push	r12
    2986:	df 92       	push	r13
    2988:	ef 92       	push	r14
    298a:	ff 92       	push	r15
    298c:	0f 93       	push	r16
    298e:	1f 93       	push	r17
    2990:	cf 93       	push	r28
    2992:	df 93       	push	r29
    2994:	cd b7       	in	r28, 0x3d	; 61
    2996:	de b7       	in	r29, 0x3e	; 62
    2998:	61 97       	sbiw	r28, 0x11	; 17
    299a:	0f b6       	in	r0, 0x3f	; 63
    299c:	f8 94       	cli
    299e:	de bf       	out	0x3e, r29	; 62
    29a0:	0f be       	out	0x3f, r0	; 63
    29a2:	cd bf       	out	0x3d, r28	; 61
    29a4:	8c 01       	movw	r16, r24
    29a6:	85 e0       	ldi	r24, 0x05	; 5
    29a8:	f8 01       	movw	r30, r16
    29aa:	de 01       	movw	r26, r28
    29ac:	1d 96       	adiw	r26, 0x0d	; 13
    29ae:	01 90       	ld	r0, Z+
    29b0:	0d 92       	st	X+, r0
    29b2:	8a 95       	dec	r24
    29b4:	e1 f7       	brne	.-8      	;  0x29ae
    29b6:	f8 01       	movw	r30, r16
    29b8:	40 81       	ld	r20, Z
    29ba:	51 81       	ldd	r21, Z+1	; 0x01
    29bc:	e2 80       	ldd	r14, Z+2	; 0x02
    29be:	8a e0       	ldi	r24, 0x0A	; 10
    29c0:	c8 2e       	mov	r12, r24
    29c2:	82 e0       	ldi	r24, 0x02	; 2
    29c4:	d8 2e       	mov	r13, r24
    29c6:	60 91 0d 02 	lds	r22, 0x020D	;  0x80020d
    29ca:	70 91 0e 02 	lds	r23, 0x020E	;  0x80020e
    29ce:	61 15       	cp	r22, r1
    29d0:	71 05       	cpc	r23, r1
    29d2:	09 f4       	brne	.+2      	;  0x29d6
    29d4:	61 c1       	rjmp	.+706    	;  0x2c98
    29d6:	90 91 0a 02 	lds	r25, 0x020A	;  0x80020a
    29da:	20 91 0b 02 	lds	r18, 0x020B	;  0x80020b
    29de:	89 2f       	mov	r24, r25
    29e0:	82 23       	and	r24, r18
    29e2:	8f 3f       	cpi	r24, 0xFF	; 255
    29e4:	09 f4       	brne	.+2      	;  0x29e8
    29e6:	58 c1       	rjmp	.+688    	;  0x2c98
    29e8:	a3 80       	ldd	r10, Z+3	; 0x03
    29ea:	b4 80       	ldd	r11, Z+4	; 0x04
    29ec:	f0 90 0c 02 	lds	r15, 0x020C	;  0x80020c
    29f0:	f5 01       	movw	r30, r10
    29f2:	e6 1b       	sub	r30, r22
    29f4:	f7 0b       	sbc	r31, r23
    29f6:	ff 20       	and	r15, r15
    29f8:	09 f4       	brne	.+2      	;  0x29fc
    29fa:	fc c0       	rjmp	.+504    	;  0x2bf4
    29fc:	80 91 0f 02 	lds	r24, 0x020F	;  0x80020f
    2a00:	38 2f       	mov	r19, r24
    2a02:	30 7f       	andi	r19, 0xF0	; 240
    2a04:	e8 3c       	cpi	r30, 0xC8	; 200
    2a06:	f1 05       	cpc	r31, r1
    2a08:	08 f0       	brcs	.+2      	;  0x2a0c
    2a0a:	b2 c0       	rjmp	.+356    	;  0x2b70
    2a0c:	31 11       	cpse	r19, r1
    2a0e:	79 c0       	rjmp	.+242    	;  0x2b02
    2a10:	fe 2c       	mov	r15, r14
    2a12:	25 13       	cpse	r18, r21
    2a14:	23 c0       	rjmp	.+70     	;  0x2a5c
    2a16:	94 13       	cpse	r25, r20
    2a18:	21 c0       	rjmp	.+66     	;  0x2a5c
    2a1a:	e1 10       	cpse	r14, r1
    2a1c:	1f c0       	rjmp	.+62     	;  0x2a5c
    2a1e:	8f 70       	andi	r24, 0x0F	; 15
    2a20:	80 61       	ori	r24, 0x10	; 16
    2a22:	80 93 0f 02 	sts	0x020F, r24	;  0x80020f
    2a26:	0e 94 5c 14 	call	0x28b8	;  0x28b8
    2a2a:	c6 01       	movw	r24, r12
    2a2c:	0e 94 c3 13 	call	0x2786	;  0x2786
    2a30:	80 91 0f 02 	lds	r24, 0x020F	;  0x80020f
    2a34:	f8 01       	movw	r30, r16
    2a36:	85 83       	std	Z+5, r24	; 0x05
    2a38:	8f 2d       	mov	r24, r15
    2a3a:	61 96       	adiw	r28, 0x11	; 17
    2a3c:	0f b6       	in	r0, 0x3f	; 63
    2a3e:	f8 94       	cli
    2a40:	de bf       	out	0x3e, r29	; 62
    2a42:	0f be       	out	0x3f, r0	; 63
    2a44:	cd bf       	out	0x3d, r28	; 61
    2a46:	df 91       	pop	r29
    2a48:	cf 91       	pop	r28
    2a4a:	1f 91       	pop	r17
    2a4c:	0f 91       	pop	r16
    2a4e:	ff 90       	pop	r15
    2a50:	ef 90       	pop	r14
    2a52:	df 90       	pop	r13
    2a54:	cf 90       	pop	r12
    2a56:	bf 90       	pop	r11
    2a58:	af 90       	pop	r10
    2a5a:	08 95       	ret
    2a5c:	ab 28       	or	r10, r11
    2a5e:	29 f0       	breq	.+10     	;  0x2a6a
    2a60:	84 2f       	mov	r24, r20
    2a62:	85 23       	and	r24, r21
    2a64:	8f 3f       	cpi	r24, 0xFF	; 255
    2a66:	09 f0       	breq	.+2      	;  0x2a6a
    2a68:	33 c1       	rjmp	.+614    	;  0x2cd0
    2a6a:	80 e0       	ldi	r24, 0x00	; 0
    2a6c:	f8 2f       	mov	r31, r24
    2a6e:	f1 70       	andi	r31, 0x01	; 1
    2a70:	df 2e       	mov	r13, r31
    2a72:	80 ff       	sbrs	r24, 0
    2a74:	3c c0       	rjmp	.+120    	;  0x2aee
    2a76:	80 91 d8 01 	lds	r24, 0x01D8	;  0x8001d8
    2a7a:	20 91 d9 01 	lds	r18, 0x01D9	;  0x8001d9
    2a7e:	36 e0       	ldi	r19, 0x06	; 6
    2a80:	82 13       	cpse	r24, r18
    2a82:	15 c0       	rjmp	.+42     	;  0x2aae
    2a84:	4d 87       	std	Y+13, r20	; 0x0d
    2a86:	5e 87       	std	Y+14, r21	; 0x0e
    2a88:	8d 85       	ldd	r24, Y+13	; 0x0d
    2a8a:	9e 85       	ldd	r25, Y+14	; 0x0e
    2a8c:	0e 94 20 19 	call	0x3240	;  0x3240
    2a90:	29 2f       	mov	r18, r25
    2a92:	22 95       	swap	r18
    2a94:	2f 70       	andi	r18, 0x0F	; 15
    2a96:	22 30       	cpi	r18, 0x02	; 2
    2a98:	f0 f0       	brcs	.+60     	;  0x2ad6
    2a9a:	24 30       	cpi	r18, 0x04	; 4
    2a9c:	18 f5       	brcc	.+70     	;  0x2ae4
    2a9e:	9f 70       	andi	r25, 0x0F	; 15
    2aa0:	f1 f0       	breq	.+60     	;  0x2ade
    2aa2:	f8 01       	movw	r30, r16
    2aa4:	95 81       	ldd	r25, Z+5	; 0x05
    2aa6:	90 7f       	andi	r25, 0xF0	; 240
    2aa8:	d1 f4       	brne	.+52     	;  0x2ade
    2aaa:	d1 2c       	mov	r13, r1
    2aac:	1e c0       	rjmp	.+60     	;  0x2aea
    2aae:	90 e0       	ldi	r25, 0x00	; 0
    2ab0:	38 9f       	mul	r19, r24
    2ab2:	f0 01       	movw	r30, r0
    2ab4:	39 9f       	mul	r19, r25
    2ab6:	f0 0d       	add	r31, r0
    2ab8:	11 24       	eor	r1, r1
    2aba:	e6 52       	subi	r30, 0x26	; 38
    2abc:	fe 4f       	sbci	r31, 0xFE	; 254
    2abe:	61 81       	ldd	r22, Z+1	; 0x01
    2ac0:	65 13       	cpse	r22, r21
    2ac2:	06 c0       	rjmp	.+12     	;  0x2ad0
    2ac4:	60 81       	ld	r22, Z
    2ac6:	64 13       	cpse	r22, r20
    2ac8:	03 c0       	rjmp	.+6      	;  0x2ad0
    2aca:	62 81       	ldd	r22, Z+2	; 0x02
    2acc:	6e 11       	cpse	r22, r14
    2ace:	0f c0       	rjmp	.+30     	;  0x2aee
    2ad0:	01 96       	adiw	r24, 0x01	; 1
    2ad2:	87 70       	andi	r24, 0x07	; 7
    2ad4:	d5 cf       	rjmp	.-86     	;  0x2a80
    2ad6:	9f 70       	andi	r25, 0x0F	; 15
    2ad8:	11 f0       	breq	.+4      	;  0x2ade
    2ada:	88 23       	and	r24, r24
    2adc:	31 f3       	breq	.-52     	;  0x2aaa
    2ade:	80 5e       	subi	r24, 0xE0	; 224
    2ae0:	88 30       	cpi	r24, 0x08	; 8
    2ae2:	18 f3       	brcs	.-58     	;  0x2aaa
    2ae4:	c8 01       	movw	r24, r16
    2ae6:	0e 94 c3 13 	call	0x2786	;  0x2786
    2aea:	fd 2c       	mov	r15, r13
    2aec:	a5 cf       	rjmp	.-182    	;  0x2a38
    2aee:	ee 20       	and	r14, r14
    2af0:	09 f4       	brne	.+2      	;  0x2af4
    2af2:	a2 cf       	rjmp	.-188    	;  0x2a38
    2af4:	80 91 0f 02 	lds	r24, 0x020F	;  0x80020f
    2af8:	81 60       	ori	r24, 0x01	; 1
    2afa:	80 93 0f 02 	sts	0x020F, r24	;  0x80020f
    2afe:	f1 2c       	mov	r15, r1
    2b00:	9b cf       	rjmp	.-202    	;  0x2a38
    2b02:	25 13       	cpse	r18, r21
    2b04:	06 c0       	rjmp	.+12     	;  0x2b12
    2b06:	94 13       	cpse	r25, r20
    2b08:	04 c0       	rjmp	.+8      	;  0x2b12
    2b0a:	f8 01       	movw	r30, r16
    2b0c:	ee 20       	and	r14, r14
    2b0e:	09 f4       	brne	.+2      	;  0x2b12
    2b10:	8d c0       	rjmp	.+282    	;  0x2c2c
    2b12:	4d 87       	std	Y+13, r20	; 0x0d
    2b14:	5e 87       	std	Y+14, r21	; 0x0e
    2b16:	8d 85       	ldd	r24, Y+13	; 0x0d
    2b18:	9e 85       	ldd	r25, Y+14	; 0x0e
    2b1a:	0e 94 18 14 	call	0x2830	;  0x2830
    2b1e:	88 23       	and	r24, r24
    2b20:	19 f1       	breq	.+70     	;  0x2b68
    2b22:	ee 20       	and	r14, r14
    2b24:	09 f1       	breq	.+66     	;  0x2b68
    2b26:	80 91 0f 02 	lds	r24, 0x020F	;  0x80020f
    2b2a:	80 32       	cpi	r24, 0x20	; 32
    2b2c:	70 f0       	brcs	.+28     	;  0x2b4a
    2b2e:	20 91 0a 02 	lds	r18, 0x020A	;  0x80020a
    2b32:	30 91 0b 02 	lds	r19, 0x020B	;  0x80020b
    2b36:	38 87       	std	Y+8, r19	; 0x08
    2b38:	2f 83       	std	Y+7, r18	; 0x07
    2b3a:	19 86       	std	Y+9, r1	; 0x09
    2b3c:	bb 86       	std	Y+11, r11	; 0x0b
    2b3e:	aa 86       	std	Y+10, r10	; 0x0a
    2b40:	8c 87       	std	Y+12, r24	; 0x0c
    2b42:	ce 01       	movw	r24, r28
    2b44:	07 96       	adiw	r24, 0x07	; 7
    2b46:	0e 94 c3 13 	call	0x2786	;  0x2786
    2b4a:	86 e0       	ldi	r24, 0x06	; 6
    2b4c:	f8 01       	movw	r30, r16
    2b4e:	aa e0       	ldi	r26, 0x0A	; 10
    2b50:	b2 e0       	ldi	r27, 0x02	; 2
    2b52:	01 90       	ld	r0, Z+
    2b54:	0d 92       	st	X+, r0
    2b56:	8a 95       	dec	r24
    2b58:	e1 f7       	brne	.-8      	;  0x2b52
    2b5a:	0e 94 6a 14 	call	0x28d4	;  0x28d4
    2b5e:	0e 94 5c 14 	call	0x28b8	;  0x28b8
    2b62:	ff 24       	eor	r15, r15
    2b64:	f3 94       	inc	r15
    2b66:	68 cf       	rjmp	.-304    	;  0x2a38
    2b68:	c8 01       	movw	r24, r16
    2b6a:	0e 94 c3 13 	call	0x2786	;  0x2786
    2b6e:	f9 cf       	rjmp	.-14     	;  0x2b62
    2b70:	31 11       	cpse	r19, r1
    2b72:	13 c0       	rjmp	.+38     	;  0x2b9a
    2b74:	7a 2d       	mov	r23, r10
    2b76:	b9 8a       	std	Y+17, r11	; 0x11
    2b78:	a8 8a       	std	Y+16, r10	; 0x10
    2b7a:	6e 2d       	mov	r22, r14
    2b7c:	89 89       	ldd	r24, Y+17	; 0x11
    2b7e:	0e 94 1c 14 	call	0x2838	;  0x2838
    2b82:	8a e0       	ldi	r24, 0x0A	; 10
    2b84:	92 e0       	ldi	r25, 0x02	; 2
    2b86:	0e 94 c3 13 	call	0x2786	;  0x2786
    2b8a:	86 e0       	ldi	r24, 0x06	; 6
    2b8c:	f6 01       	movw	r30, r12
    2b8e:	11 92       	st	Z+, r1
    2b90:	8a 95       	dec	r24
    2b92:	e9 f7       	brne	.-6      	;  0x2b8e
    2b94:	0e 94 5c 14 	call	0x28b8	;  0x28b8
    2b98:	b2 cf       	rjmp	.-156    	;  0x2afe
    2b9a:	25 13       	cpse	r18, r21
    2b9c:	0f c0       	rjmp	.+30     	;  0x2bbc
    2b9e:	94 13       	cpse	r25, r20
    2ba0:	0d c0       	rjmp	.+26     	;  0x2bbc
    2ba2:	e1 10       	cpse	r14, r1
    2ba4:	0b c0       	rjmp	.+22     	;  0x2bbc
    2ba6:	f8 01       	movw	r30, r16
    2ba8:	85 83       	std	Z+5, r24	; 0x05
    2baa:	c8 01       	movw	r24, r16
    2bac:	0e 94 c3 13 	call	0x2786	;  0x2786
    2bb0:	86 e0       	ldi	r24, 0x06	; 6
    2bb2:	f6 01       	movw	r30, r12
    2bb4:	11 92       	st	Z+, r1
    2bb6:	8a 95       	dec	r24
    2bb8:	e9 f7       	brne	.-6      	;  0x2bb4
    2bba:	3e cf       	rjmp	.-388    	;  0x2a38
    2bbc:	4d 87       	std	Y+13, r20	; 0x0d
    2bbe:	5e 87       	std	Y+14, r21	; 0x0e
    2bc0:	8d 85       	ldd	r24, Y+13	; 0x0d
    2bc2:	9e 85       	ldd	r25, Y+14	; 0x0e
    2bc4:	0e 94 18 14 	call	0x2830	;  0x2830
    2bc8:	88 23       	and	r24, r24
    2bca:	71 f2       	breq	.-100    	;  0x2b68
    2bcc:	ee 20       	and	r14, r14
    2bce:	61 f2       	breq	.-104    	;  0x2b68
    2bd0:	80 91 0f 02 	lds	r24, 0x020F	;  0x80020f
    2bd4:	80 32       	cpi	r24, 0x20	; 32
    2bd6:	08 f4       	brcc	.+2      	;  0x2bda
    2bd8:	b8 cf       	rjmp	.-144    	;  0x2b4a
    2bda:	20 91 0a 02 	lds	r18, 0x020A	;  0x80020a
    2bde:	30 91 0b 02 	lds	r19, 0x020B	;  0x80020b
    2be2:	3a 83       	std	Y+2, r19	; 0x02
    2be4:	29 83       	std	Y+1, r18	; 0x01
    2be6:	1b 82       	std	Y+3, r1	; 0x03
    2be8:	bd 82       	std	Y+5, r11	; 0x05
    2bea:	ac 82       	std	Y+4, r10	; 0x04
    2bec:	8e 83       	std	Y+6, r24	; 0x06
    2bee:	ce 01       	movw	r24, r28
    2bf0:	01 96       	adiw	r24, 0x01	; 1
    2bf2:	a9 cf       	rjmp	.-174    	;  0x2b46
    2bf4:	e8 3c       	cpi	r30, 0xC8	; 200
    2bf6:	f1 05       	cpc	r31, r1
    2bf8:	08 f0       	brcs	.+2      	;  0x2bfc
    2bfa:	41 c0       	rjmp	.+130    	;  0x2c7e
    2bfc:	fe 2c       	mov	r15, r14
    2bfe:	ee 20       	and	r14, r14
    2c00:	09 f4       	brne	.+2      	;  0x2c04
    2c02:	b2 cf       	rjmp	.-156    	;  0x2b68
    2c04:	25 13       	cpse	r18, r21
    2c06:	2a c0       	rjmp	.+84     	;  0x2c5c
    2c08:	94 13       	cpse	r25, r20
    2c0a:	28 c0       	rjmp	.+80     	;  0x2c5c
    2c0c:	80 91 0f 02 	lds	r24, 0x020F	;  0x80020f
    2c10:	80 fd       	sbrc	r24, 0
    2c12:	1b c0       	rjmp	.+54     	;  0x2c4a
    2c14:	98 2f       	mov	r25, r24
    2c16:	90 7f       	andi	r25, 0xF0	; 240
    2c18:	c1 f0       	breq	.+48     	;  0x2c4a
    2c1a:	f8 01       	movw	r30, r16
    2c1c:	85 83       	std	Z+5, r24	; 0x05
    2c1e:	90 3f       	cpi	r25, 0xF0	; 240
    2c20:	31 f0       	breq	.+12     	;  0x2c2e
    2c22:	98 2f       	mov	r25, r24
    2c24:	90 7f       	andi	r25, 0xF0	; 240
    2c26:	90 5f       	subi	r25, 0xF0	; 240
    2c28:	8f 70       	andi	r24, 0x0F	; 15
    2c2a:	89 2b       	or	r24, r25
    2c2c:	85 83       	std	Z+5, r24	; 0x05
    2c2e:	c8 01       	movw	r24, r16
    2c30:	0e 94 c3 13 	call	0x2786	;  0x2786
    2c34:	86 e0       	ldi	r24, 0x06	; 6
    2c36:	f8 01       	movw	r30, r16
    2c38:	aa e0       	ldi	r26, 0x0A	; 10
    2c3a:	b2 e0       	ldi	r27, 0x02	; 2
    2c3c:	01 90       	ld	r0, Z+
    2c3e:	0d 92       	st	X+, r0
    2c40:	8a 95       	dec	r24
    2c42:	e1 f7       	brne	.-8      	;  0x2c3c
    2c44:	0e 94 5c 14 	call	0x28b8	;  0x28b8
    2c48:	f7 ce       	rjmp	.-530    	;  0x2a38
    2c4a:	86 e0       	ldi	r24, 0x06	; 6
    2c4c:	f8 01       	movw	r30, r16
    2c4e:	aa e0       	ldi	r26, 0x0A	; 10
    2c50:	b2 e0       	ldi	r27, 0x02	; 2
    2c52:	01 90       	ld	r0, Z+
    2c54:	0d 92       	st	X+, r0
    2c56:	8a 95       	dec	r24
    2c58:	e1 f7       	brne	.-8      	;  0x2c52
    2c5a:	ee ce       	rjmp	.-548    	;  0x2a38
    2c5c:	4d 87       	std	Y+13, r20	; 0x0d
    2c5e:	5e 87       	std	Y+14, r21	; 0x0e
    2c60:	8d 85       	ldd	r24, Y+13	; 0x0d
    2c62:	9e 85       	ldd	r25, Y+14	; 0x0e
    2c64:	0e 94 18 14 	call	0x2830	;  0x2830
    2c68:	81 11       	cpse	r24, r1
    2c6a:	6f cf       	rjmp	.-290    	;  0x2b4a
    2c6c:	80 91 0f 02 	lds	r24, 0x020F	;  0x80020f
    2c70:	81 60       	ori	r24, 0x01	; 1
    2c72:	80 93 0f 02 	sts	0x020F, r24	;  0x80020f
    2c76:	c8 01       	movw	r24, r16
    2c78:	0e 94 c3 13 	call	0x2786	;  0x2786
    2c7c:	dd ce       	rjmp	.-582    	;  0x2a38
    2c7e:	7a 2d       	mov	r23, r10
    2c80:	b9 8a       	std	Y+17, r11	; 0x11
    2c82:	a8 8a       	std	Y+16, r10	; 0x10
    2c84:	6e 2d       	mov	r22, r14
    2c86:	89 89       	ldd	r24, Y+17	; 0x11
    2c88:	0e 94 1c 14 	call	0x2838	;  0x2838
    2c8c:	86 e0       	ldi	r24, 0x06	; 6
    2c8e:	f6 01       	movw	r30, r12
    2c90:	11 92       	st	Z+, r1
    2c92:	8a 95       	dec	r24
    2c94:	e9 f7       	brne	.-6      	;  0x2c90
    2c96:	d6 cf       	rjmp	.-84     	;  0x2c44
    2c98:	ee 20       	and	r14, r14
    2c9a:	09 f4       	brne	.+2      	;  0x2c9e
    2c9c:	65 cf       	rjmp	.-310    	;  0x2b68
    2c9e:	4d 87       	std	Y+13, r20	; 0x0d
    2ca0:	5e 87       	std	Y+14, r21	; 0x0e
    2ca2:	8d 85       	ldd	r24, Y+13	; 0x0d
    2ca4:	9e 85       	ldd	r25, Y+14	; 0x0e
    2ca6:	0e 94 18 14 	call	0x2830	;  0x2830
    2caa:	f8 2e       	mov	r15, r24
    2cac:	88 23       	and	r24, r24
    2cae:	09 f4       	brne	.+2      	;  0x2cb2
    2cb0:	5b cf       	rjmp	.-330    	;  0x2b68
    2cb2:	86 e0       	ldi	r24, 0x06	; 6
    2cb4:	f8 01       	movw	r30, r16
    2cb6:	aa e0       	ldi	r26, 0x0A	; 10
    2cb8:	b2 e0       	ldi	r27, 0x02	; 2
    2cba:	01 90       	ld	r0, Z+
    2cbc:	0d 92       	st	X+, r0
    2cbe:	8a 95       	dec	r24
    2cc0:	e1 f7       	brne	.-8      	;  0x2cba
    2cc2:	8a e0       	ldi	r24, 0x0A	; 10
    2cc4:	92 e0       	ldi	r25, 0x02	; 2
    2cc6:	0e 94 4d 10 	call	0x209a	;  0x209a
    2cca:	0e 94 6a 14 	call	0x28d4	;  0x28d4
    2cce:	ba cf       	rjmp	.-140    	;  0x2c44
    2cd0:	81 e0       	ldi	r24, 0x01	; 1
    2cd2:	8e 25       	eor	r24, r14
    2cd4:	cb ce       	rjmp	.-618    	;  0x2a6c
    2cd6:	1f 93       	push	r17
    2cd8:	cf 93       	push	r28
    2cda:	df 93       	push	r29
    2cdc:	cd b7       	in	r28, 0x3d	; 61
    2cde:	de b7       	in	r29, 0x3e	; 62
    2ce0:	2c 97       	sbiw	r28, 0x0c	; 12
    2ce2:	0f b6       	in	r0, 0x3f	; 63
    2ce4:	f8 94       	cli
    2ce6:	de bf       	out	0x3e, r29	; 62
    2ce8:	0f be       	out	0x3f, r0	; 63
    2cea:	cd bf       	out	0x3d, r28	; 61
    2cec:	4f 83       	std	Y+7, r20	; 0x07
    2cee:	58 87       	std	Y+8, r21	; 0x08
    2cf0:	69 87       	std	Y+9, r22	; 0x09
    2cf2:	7a 87       	std	Y+10, r23	; 0x0a
    2cf4:	8b 87       	std	Y+11, r24	; 0x0b
    2cf6:	9c 87       	std	Y+12, r25	; 0x0c
    2cf8:	ce 01       	movw	r24, r28
    2cfa:	07 96       	adiw	r24, 0x07	; 7
    2cfc:	0e 94 c0 14 	call	0x2980	;  0x2980
    2d00:	88 23       	and	r24, r24
    2d02:	69 f0       	breq	.+26     	;  0x2d1e
    2d04:	8a 85       	ldd	r24, Y+10	; 0x0a
    2d06:	9b 85       	ldd	r25, Y+11	; 0x0b
    2d08:	89 2b       	or	r24, r25
    2d0a:	39 f0       	breq	.+14     	;  0x2d1a
    2d0c:	4f 81       	ldd	r20, Y+7	; 0x07
    2d0e:	58 85       	ldd	r21, Y+8	; 0x08
    2d10:	84 2f       	mov	r24, r20
    2d12:	85 23       	and	r24, r21
    2d14:	8f 3f       	cpi	r24, 0xFF	; 255
    2d16:	09 f0       	breq	.+2      	;  0x2d1a
    2d18:	71 c0       	rjmp	.+226    	;  0x2dfc
    2d1a:	16 e0       	ldi	r17, 0x06	; 6
    2d1c:	5f c0       	rjmp	.+190    	;  0x2ddc
    2d1e:	86 e0       	ldi	r24, 0x06	; 6
    2d20:	fe 01       	movw	r30, r28
    2d22:	37 96       	adiw	r30, 0x07	; 7
    2d24:	de 01       	movw	r26, r28
    2d26:	11 96       	adiw	r26, 0x01	; 1
    2d28:	01 90       	ld	r0, Z+
    2d2a:	0d 92       	st	X+, r0
    2d2c:	8a 95       	dec	r24
    2d2e:	e1 f7       	brne	.-8      	;  0x2d28
    2d30:	8a 85       	ldd	r24, Y+10	; 0x0a
    2d32:	9b 85       	ldd	r25, Y+11	; 0x0b
    2d34:	89 2b       	or	r24, r25
    2d36:	89 f3       	breq	.-30     	;  0x2d1a
    2d38:	8f 81       	ldd	r24, Y+7	; 0x07
    2d3a:	98 85       	ldd	r25, Y+8	; 0x08
    2d3c:	89 23       	and	r24, r25
    2d3e:	8f 3f       	cpi	r24, 0xFF	; 255
    2d40:	61 f3       	breq	.-40     	;  0x2d1a
    2d42:	20 91 d9 01 	lds	r18, 0x01D9	;  0x8001d9
    2d46:	30 e0       	ldi	r19, 0x00	; 0
    2d48:	c9 01       	movw	r24, r18
    2d4a:	01 96       	adiw	r24, 0x01	; 1
    2d4c:	87 70       	andi	r24, 0x07	; 7
    2d4e:	99 27       	eor	r25, r25
    2d50:	40 91 d8 01 	lds	r20, 0x01D8	;  0x8001d8
    2d54:	48 17       	cp	r20, r24
    2d56:	19 06       	cpc	r1, r25
    2d58:	71 f4       	brne	.+28     	;  0x2d76
    2d5a:	0e 94 f5 13 	call	0x27ea	;  0x27ea
    2d5e:	10 92 d9 01 	sts	0x01D9, r1	;  0x8001d9
    2d62:	10 92 d8 01 	sts	0x01D8, r1	;  0x8001d8
    2d66:	86 e0       	ldi	r24, 0x06	; 6
    2d68:	ea e0       	ldi	r30, 0x0A	; 10
    2d6a:	f2 e0       	ldi	r31, 0x02	; 2
    2d6c:	df 01       	movw	r26, r30
    2d6e:	1d 92       	st	X+, r1
    2d70:	8a 95       	dec	r24
    2d72:	e9 f7       	brne	.-6      	;  0x2d6e
    2d74:	d2 cf       	rjmp	.-92     	;  0x2d1a
    2d76:	96 e0       	ldi	r25, 0x06	; 6
    2d78:	92 9f       	mul	r25, r18
    2d7a:	d0 01       	movw	r26, r0
    2d7c:	93 9f       	mul	r25, r19
    2d7e:	b0 0d       	add	r27, r0
    2d80:	11 24       	eor	r1, r1
    2d82:	a6 52       	subi	r26, 0x26	; 38
    2d84:	be 4f       	sbci	r27, 0xFE	; 254
    2d86:	fe 01       	movw	r30, r28
    2d88:	31 96       	adiw	r30, 0x01	; 1
    2d8a:	01 90       	ld	r0, Z+
    2d8c:	0d 92       	st	X+, r0
    2d8e:	9a 95       	dec	r25
    2d90:	e1 f7       	brne	.-8      	;  0x2d8a
    2d92:	80 93 d9 01 	sts	0x01D9, r24	;  0x8001d9
    2d96:	0e 94 3b 14 	call	0x2876	;  0x2876
    2d9a:	bf cf       	rjmp	.-130    	;  0x2d1a
    2d9c:	81 9f       	mul	r24, r17
    2d9e:	c0 01       	movw	r24, r0
    2da0:	11 24       	eor	r1, r1
    2da2:	86 52       	subi	r24, 0x26	; 38
    2da4:	9e 4f       	sbci	r25, 0xFE	; 254
    2da6:	0e 94 c0 14 	call	0x2980	;  0x2980
    2daa:	88 23       	and	r24, r24
    2dac:	e9 f0       	breq	.+58     	;  0x2de8
    2dae:	e0 91 d8 01 	lds	r30, 0x01D8	;  0x8001d8
    2db2:	1e 9f       	mul	r17, r30
    2db4:	f0 01       	movw	r30, r0
    2db6:	11 24       	eor	r1, r1
    2db8:	e6 52       	subi	r30, 0x26	; 38
    2dba:	fe 4f       	sbci	r31, 0xFE	; 254
    2dbc:	40 81       	ld	r20, Z
    2dbe:	51 81       	ldd	r21, Z+1	; 0x01
    2dc0:	62 81       	ldd	r22, Z+2	; 0x02
    2dc2:	73 81       	ldd	r23, Z+3	; 0x03
    2dc4:	84 81       	ldd	r24, Z+4	; 0x04
    2dc6:	95 81       	ldd	r25, Z+5	; 0x05
    2dc8:	0e 94 2b 14 	call	0x2856	;  0x2856
    2dcc:	80 91 d8 01 	lds	r24, 0x01D8	;  0x8001d8
    2dd0:	90 e0       	ldi	r25, 0x00	; 0
    2dd2:	01 96       	adiw	r24, 0x01	; 1
    2dd4:	87 70       	andi	r24, 0x07	; 7
    2dd6:	99 27       	eor	r25, r25
    2dd8:	80 93 d8 01 	sts	0x01D8, r24	;  0x8001d8
    2ddc:	80 91 d8 01 	lds	r24, 0x01D8	;  0x8001d8
    2de0:	90 91 d9 01 	lds	r25, 0x01D9	;  0x8001d9
    2de4:	89 13       	cpse	r24, r25
    2de6:	da cf       	rjmp	.-76     	;  0x2d9c
    2de8:	2c 96       	adiw	r28, 0x0c	; 12
    2dea:	0f b6       	in	r0, 0x3f	; 63
    2dec:	f8 94       	cli
    2dee:	de bf       	out	0x3e, r29	; 62
    2df0:	0f be       	out	0x3f, r0	; 63
    2df2:	cd bf       	out	0x3d, r28	; 61
    2df4:	df 91       	pop	r29
    2df6:	cf 91       	pop	r28
    2df8:	1f 91       	pop	r17
    2dfa:	08 95       	ret
    2dfc:	69 85       	ldd	r22, Y+9	; 0x09
    2dfe:	7a 85       	ldd	r23, Y+10	; 0x0a
    2e00:	8b 85       	ldd	r24, Y+11	; 0x0b
    2e02:	9c 85       	ldd	r25, Y+12	; 0x0c
    2e04:	0e 94 2b 14 	call	0x2856	;  0x2856
    2e08:	88 cf       	rjmp	.-240    	;  0x2d1a
    2e0a:	ef 92       	push	r14
    2e0c:	ff 92       	push	r15
    2e0e:	0f 93       	push	r16
    2e10:	1f 93       	push	r17
    2e12:	cf 93       	push	r28
    2e14:	df 93       	push	r29
    2e16:	8c 01       	movw	r16, r24
    2e18:	89 2b       	or	r24, r25
    2e1a:	81 f0       	breq	.+32     	;  0x2e3c
    2e1c:	f1 2c       	mov	r15, r1
    2e1e:	ee 24       	eor	r14, r14
    2e20:	e3 94       	inc	r14
    2e22:	e8 01       	movw	r28, r16
    2e24:	21 96       	adiw	r28, 0x01	; 1
    2e26:	f8 01       	movw	r30, r16
    2e28:	84 91       	lpm	r24, Z
    2e2a:	84 37       	cpi	r24, 0x74	; 116
    2e2c:	70 f4       	brcc	.+28     	;  0x2e4a
    2e2e:	84 30       	cpi	r24, 0x04	; 4
    2e30:	08 f0       	brcs	.+2      	;  0x2e34
    2e32:	5f c0       	rjmp	.+190    	;  0x2ef2
    2e34:	81 30       	cpi	r24, 0x01	; 1
    2e36:	b1 f0       	breq	.+44     	;  0x2e64
    2e38:	82 30       	cpi	r24, 0x02	; 2
    2e3a:	a1 f1       	breq	.+104    	;  0x2ea4
    2e3c:	df 91       	pop	r29
    2e3e:	cf 91       	pop	r28
    2e40:	1f 91       	pop	r17
    2e42:	0f 91       	pop	r16
    2e44:	ff 90       	pop	r15
    2e46:	ef 90       	pop	r14
    2e48:	08 95       	ret
    2e4a:	85 37       	cpi	r24, 0x75	; 117
    2e4c:	09 f4       	brne	.+2      	;  0x2e50
    2e4e:	4c c0       	rjmp	.+152    	;  0x2ee8
    2e50:	08 f4       	brcc	.+2      	;  0x2e54
    2e52:	3d c0       	rjmp	.+122    	;  0x2ece
    2e54:	9c e7       	ldi	r25, 0x7C	; 124
    2e56:	98 0f       	add	r25, r24
    2e58:	90 37       	cpi	r25, 0x70	; 112
    2e5a:	80 f7       	brcc	.-32     	;  0x2e3c
    2e5c:	8f 77       	andi	r24, 0x7F	; 127
    2e5e:	0e 94 e9 10 	call	0x21d2	;  0x21d2
    2e62:	49 c0       	rjmp	.+146    	;  0x2ef6
    2e64:	0e 5f       	subi	r16, 0xFE	; 254
    2e66:	1f 4f       	sbci	r17, 0xFF	; 255
    2e68:	fe 01       	movw	r30, r28
    2e6a:	84 91       	lpm	r24, Z
    2e6c:	90 e2       	ldi	r25, 0x20	; 32
    2e6e:	98 0f       	add	r25, r24
    2e70:	98 30       	cpi	r25, 0x08	; 8
    2e72:	60 f4       	brcc	.+24     	;  0x2e8c
    2e74:	87 70       	andi	r24, 0x07	; 7
    2e76:	fe 2d       	mov	r31, r14
    2e78:	01 c0       	rjmp	.+2      	;  0x2e7c
    2e7a:	ff 0f       	add	r31, r31
    2e7c:	8a 95       	dec	r24
    2e7e:	ea f7       	brpl	.-6      	;  0x2e7a
    2e80:	8f 2f       	mov	r24, r31
    2e82:	0e 94 96 19 	call	0x332c	;  0x332c
    2e86:	0e 94 bf 19 	call	0x337e	;  0x337e
    2e8a:	02 c0       	rjmp	.+4      	;  0x2e90
    2e8c:	0e 94 52 10 	call	0x20a4	;  0x20a4
    2e90:	8f 2d       	mov	r24, r15
    2e92:	81 50       	subi	r24, 0x01	; 1
    2e94:	30 f2       	brcs	.-116    	;  0x2e22
    2e96:	ef e9       	ldi	r30, 0x9F	; 159
    2e98:	ff e0       	ldi	r31, 0x0F	; 15
    2e9a:	31 97       	sbiw	r30, 0x01	; 1
    2e9c:	f1 f7       	brne	.-4      	;  0x2e9a
    2e9e:	00 c0       	rjmp	.+0      	;  0x2ea0
    2ea0:	00 00       	nop
    2ea2:	f7 cf       	rjmp	.-18     	;  0x2e92
    2ea4:	0e 5f       	subi	r16, 0xFE	; 254
    2ea6:	1f 4f       	sbci	r17, 0xFF	; 255
    2ea8:	fe 01       	movw	r30, r28
    2eaa:	84 91       	lpm	r24, Z
    2eac:	90 e2       	ldi	r25, 0x20	; 32
    2eae:	98 0f       	add	r25, r24
    2eb0:	98 30       	cpi	r25, 0x08	; 8
    2eb2:	50 f4       	brcc	.+20     	;  0x2ec8
    2eb4:	87 70       	andi	r24, 0x07	; 7
    2eb6:	fe 2d       	mov	r31, r14
    2eb8:	01 c0       	rjmp	.+2      	;  0x2ebc
    2eba:	ff 0f       	add	r31, r31
    2ebc:	8a 95       	dec	r24
    2ebe:	ea f7       	brpl	.-6      	;  0x2eba
    2ec0:	8f 2f       	mov	r24, r31
    2ec2:	0e 94 9c 19 	call	0x3338	;  0x3338
    2ec6:	df cf       	rjmp	.-66     	;  0x2e86
    2ec8:	0e 94 e9 10 	call	0x21d2	;  0x21d2
    2ecc:	e1 cf       	rjmp	.-62     	;  0x2e90
    2ece:	0e 5f       	subi	r16, 0xFE	; 254
    2ed0:	1f 4f       	sbci	r17, 0xFF	; 255
    2ed2:	fe 01       	movw	r30, r28
    2ed4:	c4 91       	lpm	r28, Z
    2ed6:	c1 50       	subi	r28, 0x01	; 1
    2ed8:	d8 f2       	brcs	.-74     	;  0x2e90
    2eda:	8f e9       	ldi	r24, 0x9F	; 159
    2edc:	9f e0       	ldi	r25, 0x0F	; 15
    2ede:	01 97       	sbiw	r24, 0x01	; 1
    2ee0:	f1 f7       	brne	.-4      	;  0x2ede
    2ee2:	00 c0       	rjmp	.+0      	;  0x2ee4
    2ee4:	00 00       	nop
    2ee6:	f7 cf       	rjmp	.-18     	;  0x2ed6
    2ee8:	0e 5f       	subi	r16, 0xFE	; 254
    2eea:	1f 4f       	sbci	r17, 0xFF	; 255
    2eec:	fe 01       	movw	r30, r28
    2eee:	f4 90       	lpm	r15, Z
    2ef0:	cf cf       	rjmp	.-98     	;  0x2e90
    2ef2:	0e 94 52 10 	call	0x20a4	;  0x20a4
    2ef6:	8e 01       	movw	r16, r28
    2ef8:	cb cf       	rjmp	.-106    	;  0x2e90
    2efa:	08 95       	ret
    2efc:	0c 94 7d 17 	jmp	0x2efa	;  0x2efa
    2f00:	0e 94 7e 17 	call	0x2efc	;  0x2efc
    2f04:	60 93 23 02 	sts	0x0223, r22	;  0x800223
    2f08:	70 93 24 02 	sts	0x0224, r23	;  0x800224
    2f0c:	80 93 25 02 	sts	0x0225, r24	;  0x800225
    2f10:	90 93 26 02 	sts	0x0226, r25	;  0x800226
    2f14:	0c 94 df 13 	jmp	0x27be	;  0x27be
    2f18:	08 95       	ret
    2f1a:	0c 94 80 17 	jmp	0x2f00	;  0x2f00
    2f1e:	0f 93       	push	r16
    2f20:	1f 93       	push	r17
    2f22:	00 91 23 02 	lds	r16, 0x0223	;  0x800223
    2f26:	10 91 24 02 	lds	r17, 0x0224	;  0x800224
    2f2a:	20 91 25 02 	lds	r18, 0x0225	;  0x800225
    2f2e:	30 91 26 02 	lds	r19, 0x0226	;  0x800226
    2f32:	60 2b       	or	r22, r16
    2f34:	71 2b       	or	r23, r17
    2f36:	82 2b       	or	r24, r18
    2f38:	93 2b       	or	r25, r19
    2f3a:	1f 91       	pop	r17
    2f3c:	0f 91       	pop	r16
    2f3e:	0c 94 80 17 	jmp	0x2f00	;  0x2f00
    2f42:	0f 93       	push	r16
    2f44:	1f 93       	push	r17
    2f46:	00 91 23 02 	lds	r16, 0x0223	;  0x800223
    2f4a:	10 91 24 02 	lds	r17, 0x0224	;  0x800224
    2f4e:	20 91 25 02 	lds	r18, 0x0225	;  0x800225
    2f52:	30 91 26 02 	lds	r19, 0x0226	;  0x800226
    2f56:	60 23       	and	r22, r16
    2f58:	71 23       	and	r23, r17
    2f5a:	82 23       	and	r24, r18
    2f5c:	93 23       	and	r25, r19
    2f5e:	1f 91       	pop	r17
    2f60:	0f 91       	pop	r16
    2f62:	0c 94 80 17 	jmp	0x2f00	;  0x2f00
    2f66:	0f 93       	push	r16
    2f68:	1f 93       	push	r17
    2f6a:	00 91 23 02 	lds	r16, 0x0223	;  0x800223
    2f6e:	10 91 24 02 	lds	r17, 0x0224	;  0x800224
    2f72:	20 91 25 02 	lds	r18, 0x0225	;  0x800225
    2f76:	30 91 26 02 	lds	r19, 0x0226	;  0x800226
    2f7a:	60 27       	eor	r22, r16
    2f7c:	71 27       	eor	r23, r17
    2f7e:	82 27       	eor	r24, r18
    2f80:	93 27       	eor	r25, r19
    2f82:	1f 91       	pop	r17
    2f84:	0f 91       	pop	r16
    2f86:	0c 94 80 17 	jmp	0x2f00	;  0x2f00
    2f8a:	0c 94 7d 17 	jmp	0x2efa	;  0x2efa
    2f8e:	0c 94 c5 17 	jmp	0x2f8a	;  0x2f8a
    2f92:	0e 94 c7 17 	call	0x2f8e	;  0x2f8e
    2f96:	60 93 1f 02 	sts	0x021F, r22	;  0x80021f
    2f9a:	70 93 20 02 	sts	0x0220, r23	;  0x800220
    2f9e:	80 93 21 02 	sts	0x0221, r24	;  0x800221
    2fa2:	90 93 22 02 	sts	0x0222, r25	;  0x800222
    2fa6:	0c 94 df 13 	jmp	0x27be	;  0x27be
    2faa:	60 e0       	ldi	r22, 0x00	; 0
    2fac:	70 e0       	ldi	r23, 0x00	; 0
    2fae:	cb 01       	movw	r24, r22
    2fb0:	0c 94 c9 17 	jmp	0x2f92	;  0x2f92
    2fb4:	0f 93       	push	r16
    2fb6:	1f 93       	push	r17
    2fb8:	41 e0       	ldi	r20, 0x01	; 1
    2fba:	50 e0       	ldi	r21, 0x00	; 0
    2fbc:	60 e0       	ldi	r22, 0x00	; 0
    2fbe:	70 e0       	ldi	r23, 0x00	; 0
    2fc0:	8a 01       	movw	r16, r20
    2fc2:	9b 01       	movw	r18, r22
    2fc4:	04 c0       	rjmp	.+8      	;  0x2fce
    2fc6:	00 0f       	add	r16, r16
    2fc8:	11 1f       	adc	r17, r17
    2fca:	22 1f       	adc	r18, r18
    2fcc:	33 1f       	adc	r19, r19
    2fce:	8a 95       	dec	r24
    2fd0:	d2 f7       	brpl	.-12     	;  0x2fc6
    2fd2:	c9 01       	movw	r24, r18
    2fd4:	b8 01       	movw	r22, r16
    2fd6:	1f 91       	pop	r17
    2fd8:	0f 91       	pop	r16
    2fda:	0c 94 c9 17 	jmp	0x2f92	;  0x2f92
    2fde:	0f 93       	push	r16
    2fe0:	1f 93       	push	r17
    2fe2:	41 e0       	ldi	r20, 0x01	; 1
    2fe4:	50 e0       	ldi	r21, 0x00	; 0
    2fe6:	60 e0       	ldi	r22, 0x00	; 0
    2fe8:	70 e0       	ldi	r23, 0x00	; 0
    2fea:	04 c0       	rjmp	.+8      	;  0x2ff4
    2fec:	44 0f       	add	r20, r20
    2fee:	55 1f       	adc	r21, r21
    2ff0:	66 1f       	adc	r22, r22
    2ff2:	77 1f       	adc	r23, r23
    2ff4:	8a 95       	dec	r24
    2ff6:	d2 f7       	brpl	.-12     	;  0x2fec
    2ff8:	80 91 1f 02 	lds	r24, 0x021F	;  0x80021f
    2ffc:	90 91 20 02 	lds	r25, 0x0220	;  0x800220
    3000:	a0 91 21 02 	lds	r26, 0x0221	;  0x800221
    3004:	b0 91 22 02 	lds	r27, 0x0222	;  0x800222
    3008:	8a 01       	movw	r16, r20
    300a:	9b 01       	movw	r18, r22
    300c:	08 2b       	or	r16, r24
    300e:	19 2b       	or	r17, r25
    3010:	2a 2b       	or	r18, r26
    3012:	3b 2b       	or	r19, r27
    3014:	c9 01       	movw	r24, r18
    3016:	b8 01       	movw	r22, r16
    3018:	1f 91       	pop	r17
    301a:	0f 91       	pop	r16
    301c:	0c 94 c9 17 	jmp	0x2f92	;  0x2f92
    3020:	0f 93       	push	r16
    3022:	1f 93       	push	r17
    3024:	41 e0       	ldi	r20, 0x01	; 1
    3026:	50 e0       	ldi	r21, 0x00	; 0
    3028:	60 e0       	ldi	r22, 0x00	; 0
    302a:	70 e0       	ldi	r23, 0x00	; 0
    302c:	04 c0       	rjmp	.+8      	;  0x3036
    302e:	44 0f       	add	r20, r20
    3030:	55 1f       	adc	r21, r21
    3032:	66 1f       	adc	r22, r22
    3034:	77 1f       	adc	r23, r23
    3036:	8a 95       	dec	r24
    3038:	d2 f7       	brpl	.-12     	;  0x302e
    303a:	cb 01       	movw	r24, r22
    303c:	ba 01       	movw	r22, r20
    303e:	60 95       	com	r22
    3040:	70 95       	com	r23
    3042:	80 95       	com	r24
    3044:	90 95       	com	r25
    3046:	00 91 1f 02 	lds	r16, 0x021F	;  0x80021f
    304a:	10 91 20 02 	lds	r17, 0x0220	;  0x800220
    304e:	20 91 21 02 	lds	r18, 0x0221	;  0x800221
    3052:	30 91 22 02 	lds	r19, 0x0222	;  0x800222
    3056:	60 23       	and	r22, r16
    3058:	71 23       	and	r23, r17
    305a:	82 23       	and	r24, r18
    305c:	93 23       	and	r25, r19
    305e:	1f 91       	pop	r17
    3060:	0f 91       	pop	r16
    3062:	0c 94 c9 17 	jmp	0x2f92	;  0x2f92
    3066:	0f 93       	push	r16
    3068:	1f 93       	push	r17
    306a:	41 e0       	ldi	r20, 0x01	; 1
    306c:	50 e0       	ldi	r21, 0x00	; 0
    306e:	60 e0       	ldi	r22, 0x00	; 0
    3070:	70 e0       	ldi	r23, 0x00	; 0
    3072:	04 c0       	rjmp	.+8      	;  0x307c
    3074:	44 0f       	add	r20, r20
    3076:	55 1f       	adc	r21, r21
    3078:	66 1f       	adc	r22, r22
    307a:	77 1f       	adc	r23, r23
    307c:	8a 95       	dec	r24
    307e:	d2 f7       	brpl	.-12     	;  0x3074
    3080:	80 91 1f 02 	lds	r24, 0x021F	;  0x80021f
    3084:	90 91 20 02 	lds	r25, 0x0220	;  0x800220
    3088:	a0 91 21 02 	lds	r26, 0x0221	;  0x800221
    308c:	b0 91 22 02 	lds	r27, 0x0222	;  0x800222
    3090:	8a 01       	movw	r16, r20
    3092:	9b 01       	movw	r18, r22
    3094:	08 27       	eor	r16, r24
    3096:	19 27       	eor	r17, r25
    3098:	2a 27       	eor	r18, r26
    309a:	3b 27       	eor	r19, r27
    309c:	c9 01       	movw	r24, r18
    309e:	b8 01       	movw	r22, r16
    30a0:	1f 91       	pop	r17
    30a2:	0f 91       	pop	r16
    30a4:	0c 94 c9 17 	jmp	0x2f92	;  0x2f92
    30a8:	0f 93       	push	r16
    30aa:	1f 93       	push	r17
    30ac:	00 91 1f 02 	lds	r16, 0x021F	;  0x80021f
    30b0:	10 91 20 02 	lds	r17, 0x0220	;  0x800220
    30b4:	20 91 21 02 	lds	r18, 0x0221	;  0x800221
    30b8:	30 91 22 02 	lds	r19, 0x0222	;  0x800222
    30bc:	60 2b       	or	r22, r16
    30be:	71 2b       	or	r23, r17
    30c0:	82 2b       	or	r24, r18
    30c2:	93 2b       	or	r25, r19
    30c4:	1f 91       	pop	r17
    30c6:	0f 91       	pop	r16
    30c8:	0c 94 c9 17 	jmp	0x2f92	;  0x2f92
    30cc:	0f 93       	push	r16
    30ce:	1f 93       	push	r17
    30d0:	00 91 1f 02 	lds	r16, 0x021F	;  0x80021f
    30d4:	10 91 20 02 	lds	r17, 0x0220	;  0x800220
    30d8:	20 91 21 02 	lds	r18, 0x0221	;  0x800221
    30dc:	30 91 22 02 	lds	r19, 0x0222	;  0x800222
    30e0:	60 23       	and	r22, r16
    30e2:	71 23       	and	r23, r17
    30e4:	82 23       	and	r24, r18
    30e6:	93 23       	and	r25, r19
    30e8:	1f 91       	pop	r17
    30ea:	0f 91       	pop	r16
    30ec:	0c 94 c9 17 	jmp	0x2f92	;  0x2f92
    30f0:	0f 93       	push	r16
    30f2:	1f 93       	push	r17
    30f4:	00 91 1f 02 	lds	r16, 0x021F	;  0x80021f
    30f8:	10 91 20 02 	lds	r17, 0x0220	;  0x800220
    30fc:	20 91 21 02 	lds	r18, 0x0221	;  0x800221
    3100:	30 91 22 02 	lds	r19, 0x0222	;  0x800222
    3104:	60 27       	eor	r22, r16
    3106:	71 27       	eor	r23, r17
    3108:	82 27       	eor	r24, r18
    310a:	93 27       	eor	r25, r19
    310c:	1f 91       	pop	r17
    310e:	0f 91       	pop	r16
    3110:	0c 94 c9 17 	jmp	0x2f92	;  0x2f92
    3114:	08 95       	ret
    3116:	99 0f       	add	r25, r25
    3118:	99 0f       	add	r25, r25
    311a:	89 0f       	add	r24, r25
    311c:	98 2f       	mov	r25, r24
    311e:	97 70       	andi	r25, 0x07	; 7
    3120:	41 e0       	ldi	r20, 0x01	; 1
    3122:	01 c0       	rjmp	.+2      	;  0x3126
    3124:	44 0f       	add	r20, r20
    3126:	9a 95       	dec	r25
    3128:	ea f7       	brpl	.-6      	;  0x3124
    312a:	86 95       	lsr	r24
    312c:	86 95       	lsr	r24
    312e:	86 95       	lsr	r24
    3130:	95 e0       	ldi	r25, 0x05	; 5
    3132:	89 9f       	mul	r24, r25
    3134:	f0 01       	movw	r30, r0
    3136:	11 24       	eor	r1, r1
    3138:	e0 5f       	subi	r30, 0xF0	; 240
    313a:	fd 4f       	sbci	r31, 0xFD	; 253
    313c:	30 e0       	ldi	r19, 0x00	; 0
    313e:	20 e0       	ldi	r18, 0x00	; 0
    3140:	70 e0       	ldi	r23, 0x00	; 0
    3142:	51 91       	ld	r21, Z+
    3144:	df 01       	movw	r26, r30
    3146:	11 97       	sbiw	r26, 0x01	; 1
    3148:	cb 01       	movw	r24, r22
    314a:	02 2e       	mov	r0, r18
    314c:	02 c0       	rjmp	.+4      	;  0x3152
    314e:	96 95       	lsr	r25
    3150:	87 95       	ror	r24
    3152:	0a 94       	dec	r0
    3154:	e2 f7       	brpl	.-8      	;  0x314e
    3156:	81 70       	andi	r24, 0x01	; 1
    3158:	81 95       	neg	r24
    315a:	85 27       	eor	r24, r21
    315c:	84 23       	and	r24, r20
    315e:	85 27       	eor	r24, r21
    3160:	8c 93       	st	X, r24
    3162:	2f 5f       	subi	r18, 0xFF	; 255
    3164:	3f 4f       	sbci	r19, 0xFF	; 255
    3166:	25 30       	cpi	r18, 0x05	; 5
    3168:	31 05       	cpc	r19, r1
    316a:	59 f7       	brne	.-42     	;  0x3142
    316c:	08 95       	ret
    316e:	99 0f       	add	r25, r25
    3170:	99 0f       	add	r25, r25
    3172:	89 0f       	add	r24, r25
    3174:	98 2f       	mov	r25, r24
    3176:	97 70       	andi	r25, 0x07	; 7
    3178:	86 95       	lsr	r24
    317a:	86 95       	lsr	r24
    317c:	86 95       	lsr	r24
    317e:	25 e0       	ldi	r18, 0x05	; 5
    3180:	82 9f       	mul	r24, r18
    3182:	f0 01       	movw	r30, r0
    3184:	11 24       	eor	r1, r1
    3186:	e0 5f       	subi	r30, 0xF0	; 240
    3188:	fd 4f       	sbci	r31, 0xFD	; 253
    318a:	50 e0       	ldi	r21, 0x00	; 0
    318c:	40 e0       	ldi	r20, 0x00	; 0
    318e:	80 e0       	ldi	r24, 0x00	; 0
    3190:	21 91       	ld	r18, Z+
    3192:	30 e0       	ldi	r19, 0x00	; 0
    3194:	09 2e       	mov	r0, r25
    3196:	02 c0       	rjmp	.+4      	;  0x319c
    3198:	36 95       	lsr	r19
    319a:	27 95       	ror	r18
    319c:	0a 94       	dec	r0
    319e:	e2 f7       	brpl	.-8      	;  0x3198
    31a0:	21 70       	andi	r18, 0x01	; 1
    31a2:	33 27       	eor	r19, r19
    31a4:	04 2e       	mov	r0, r20
    31a6:	01 c0       	rjmp	.+2      	;  0x31aa
    31a8:	22 0f       	add	r18, r18
    31aa:	0a 94       	dec	r0
    31ac:	ea f7       	brpl	.-6      	;  0x31a8
    31ae:	82 2b       	or	r24, r18
    31b0:	4f 5f       	subi	r20, 0xFF	; 255
    31b2:	5f 4f       	sbci	r21, 0xFF	; 255
    31b4:	45 30       	cpi	r20, 0x05	; 5
    31b6:	51 05       	cpc	r21, r1
    31b8:	59 f7       	brne	.-42     	;  0x3190
    31ba:	08 95       	ret
    31bc:	bf 92       	push	r11
    31be:	cf 92       	push	r12
    31c0:	df 92       	push	r13
    31c2:	ef 92       	push	r14
    31c4:	ff 92       	push	r15
    31c6:	0f 93       	push	r16
    31c8:	1f 93       	push	r17
    31ca:	cf 93       	push	r28
    31cc:	df 93       	push	r29
    31ce:	8c 01       	movw	r16, r24
    31d0:	c0 90 1f 02 	lds	r12, 0x021F	;  0x80021f
    31d4:	d0 90 20 02 	lds	r13, 0x0220	;  0x800220
    31d8:	e0 90 21 02 	lds	r14, 0x0221	;  0x800221
    31dc:	f0 90 22 02 	lds	r15, 0x0222	;  0x800222
    31e0:	80 91 23 02 	lds	r24, 0x0223	;  0x800223
    31e4:	90 91 24 02 	lds	r25, 0x0224	;  0x800224
    31e8:	a0 91 25 02 	lds	r26, 0x0225	;  0x800225
    31ec:	b0 91 26 02 	lds	r27, 0x0226	;  0x800226
    31f0:	c8 2a       	or	r12, r24
    31f2:	d9 2a       	or	r13, r25
    31f4:	ea 2a       	or	r14, r26
    31f6:	fb 2a       	or	r15, r27
    31f8:	cf e1       	ldi	r28, 0x1F	; 31
    31fa:	d0 e0       	ldi	r29, 0x00	; 0
    31fc:	bc 2e       	mov	r11, r28
    31fe:	d7 01       	movw	r26, r14
    3200:	c6 01       	movw	r24, r12
    3202:	0c 2e       	mov	r0, r28
    3204:	04 c0       	rjmp	.+8      	;  0x320e
    3206:	b6 95       	lsr	r27
    3208:	a7 95       	ror	r26
    320a:	97 95       	ror	r25
    320c:	87 95       	ror	r24
    320e:	0a 94       	dec	r0
    3210:	d2 f7       	brpl	.-12     	;  0x3206
    3212:	80 fd       	sbrc	r24, 0
    3214:	0e c0       	rjmp	.+28     	;  0x3232
    3216:	21 97       	sbiw	r28, 0x01	; 1
    3218:	88 f7       	brcc	.-30     	;  0x31fc
    321a:	b1 2c       	mov	r11, r1
    321c:	8b 2d       	mov	r24, r11
    321e:	df 91       	pop	r29
    3220:	cf 91       	pop	r28
    3222:	1f 91       	pop	r17
    3224:	0f 91       	pop	r16
    3226:	ff 90       	pop	r15
    3228:	ef 90       	pop	r14
    322a:	df 90       	pop	r13
    322c:	cf 90       	pop	r12
    322e:	bf 90       	pop	r11
    3230:	08 95       	ret
    3232:	b8 01       	movw	r22, r16
    3234:	8c 2f       	mov	r24, r28
    3236:	0e 94 62 09 	call	0x12c4	;  0x12c4
    323a:	01 97       	sbiw	r24, 0x01	; 1
    323c:	61 f3       	breq	.-40     	;  0x3216
    323e:	ee cf       	rjmp	.-36     	;  0x321c
    3240:	cf 93       	push	r28
    3242:	df 93       	push	r29
    3244:	ec 01       	movw	r28, r24
    3246:	0e 94 de 18 	call	0x31bc	;  0x31bc
    324a:	be 01       	movw	r22, r28
    324c:	df 91       	pop	r29
    324e:	cf 91       	pop	r28
    3250:	0c 94 62 09 	jmp	0x12c4	;  0x12c4
    3254:	1f 93       	push	r17
    3256:	cf 93       	push	r28
    3258:	df 93       	push	r29
    325a:	eb 01       	movw	r28, r22
    325c:	90 91 d7 01 	lds	r25, 0x01D7	;  0x8001d7
    3260:	99 23       	and	r25, r25
    3262:	31 f0       	breq	.+12     	;  0x3270
    3264:	cb 01       	movw	r24, r22
    3266:	df 91       	pop	r29
    3268:	cf 91       	pop	r28
    326a:	1f 91       	pop	r17
    326c:	0c 94 20 19 	jmp	0x3240	;  0x3240
    3270:	88 23       	and	r24, r24
    3272:	79 f0       	breq	.+30     	;  0x3292
    3274:	cb 01       	movw	r24, r22
    3276:	0e 94 de 18 	call	0x31bc	;  0x31bc
    327a:	18 2f       	mov	r17, r24
    327c:	68 2f       	mov	r22, r24
    327e:	ce 01       	movw	r24, r28
    3280:	0e 94 8b 18 	call	0x3116	;  0x3116
    3284:	be 01       	movw	r22, r28
    3286:	81 2f       	mov	r24, r17
    3288:	df 91       	pop	r29
    328a:	cf 91       	pop	r28
    328c:	1f 91       	pop	r17
    328e:	0c 94 62 09 	jmp	0x12c4	;  0x12c4
    3292:	cb 01       	movw	r24, r22
    3294:	0e 94 b7 18 	call	0x316e	;  0x316e
    3298:	18 2f       	mov	r17, r24
    329a:	f4 cf       	rjmp	.-24     	;  0x3284
    329c:	68 2f       	mov	r22, r24
    329e:	80 91 00 01 	lds	r24, 0x0100	;  0x800100
    32a2:	90 91 01 01 	lds	r25, 0x0101	;  0x800101
    32a6:	0c 94 31 1b 	jmp	0x3662	;  0x3662
    32aa:	68 2f       	mov	r22, r24
    32ac:	80 91 00 01 	lds	r24, 0x0100	;  0x800100
    32b0:	90 91 01 01 	lds	r25, 0x0101	;  0x800101
    32b4:	0c 94 33 1b 	jmp	0x3666	;  0x3666
    32b8:	80 91 00 01 	lds	r24, 0x0100	;  0x800100
    32bc:	90 91 01 01 	lds	r25, 0x0101	;  0x800101
    32c0:	0c 94 35 1b 	jmp	0x366a	;  0x366a
    32c4:	80 91 27 02 	lds	r24, 0x0227	;  0x800227
    32c8:	85 95       	asr	r24
    32ca:	85 95       	asr	r24
    32cc:	85 95       	asr	r24
    32ce:	08 95       	ret
    32d0:	80 91 27 02 	lds	r24, 0x0227	;  0x800227
    32d4:	87 70       	andi	r24, 0x07	; 7
    32d6:	08 95       	ret
    32d8:	90 91 27 02 	lds	r25, 0x0227	;  0x800227
    32dc:	97 70       	andi	r25, 0x07	; 7
    32de:	81 e0       	ldi	r24, 0x01	; 1
    32e0:	09 f4       	brne	.+2      	;  0x32e4
    32e2:	80 e0       	ldi	r24, 0x00	; 0
    32e4:	08 95       	ret
    32e6:	80 91 33 02 	lds	r24, 0x0233	;  0x800233
    32ea:	08 95       	ret
    32ec:	90 91 33 02 	lds	r25, 0x0233	;  0x800233
    32f0:	89 2b       	or	r24, r25
    32f2:	80 93 33 02 	sts	0x0233, r24	;  0x800233
    32f6:	08 95       	ret
    32f8:	80 95       	com	r24
    32fa:	90 91 33 02 	lds	r25, 0x0233	;  0x800233
    32fe:	98 23       	and	r25, r24
    3300:	90 93 33 02 	sts	0x0233, r25	;  0x800233
    3304:	08 95       	ret
    3306:	10 92 33 02 	sts	0x0233, r1	;  0x800233
    330a:	08 95       	ret
    330c:	90 91 32 02 	lds	r25, 0x0232	;  0x800232
    3310:	89 2b       	or	r24, r25
    3312:	80 93 32 02 	sts	0x0232, r24	;  0x800232
    3316:	08 95       	ret
    3318:	80 95       	com	r24
    331a:	90 91 32 02 	lds	r25, 0x0232	;  0x800232
    331e:	98 23       	and	r25, r24
    3320:	90 93 32 02 	sts	0x0232, r25	;  0x800232
    3324:	08 95       	ret
    3326:	10 92 32 02 	sts	0x0232, r1	;  0x800232
    332a:	08 95       	ret
    332c:	90 91 31 02 	lds	r25, 0x0231	;  0x800231
    3330:	89 2b       	or	r24, r25
    3332:	80 93 31 02 	sts	0x0231, r24	;  0x800231
    3336:	08 95       	ret
    3338:	80 95       	com	r24
    333a:	90 91 31 02 	lds	r25, 0x0231	;  0x800231
    333e:	98 23       	and	r25, r24
    3340:	90 93 31 02 	sts	0x0231, r25	;  0x800231
    3344:	08 95       	ret
    3346:	10 92 31 02 	sts	0x0231, r1	;  0x800231
    334a:	08 95       	ret
    334c:	80 91 28 02 	lds	r24, 0x0228	;  0x800228
    3350:	08 95       	ret
    3352:	08 95       	ret
    3354:	0c 94 a9 19 	jmp	0x3352	;  0x3352
    3358:	90 91 28 02 	lds	r25, 0x0228	;  0x800228
    335c:	98 17       	cp	r25, r24
    335e:	21 f0       	breq	.+8      	;  0x3368
    3360:	80 93 28 02 	sts	0x0228, r24	;  0x800228
    3364:	0c 94 aa 19 	jmp	0x3354	;  0x3354
    3368:	08 95       	ret
    336a:	80 91 28 02 	lds	r24, 0x0228	;  0x800228
    336e:	88 23       	and	r24, r24
    3370:	29 f0       	breq	.+10     	;  0x337c
    3372:	10 92 28 02 	sts	0x0228, r1	;  0x800228
    3376:	80 e0       	ldi	r24, 0x00	; 0
    3378:	0c 94 aa 19 	jmp	0x3354	;  0x3354
    337c:	08 95       	ret
    337e:	e0 91 00 01 	lds	r30, 0x0100	;  0x800100
    3382:	f0 91 01 01 	lds	r31, 0x0101	;  0x800101
    3386:	80 91 33 02 	lds	r24, 0x0233	;  0x800233
    338a:	80 83       	st	Z, r24
    338c:	e0 91 00 01 	lds	r30, 0x0100	;  0x800100
    3390:	f0 91 01 01 	lds	r31, 0x0101	;  0x800101
    3394:	80 81       	ld	r24, Z
    3396:	90 91 32 02 	lds	r25, 0x0232	;  0x800232
    339a:	89 2b       	or	r24, r25
    339c:	80 83       	st	Z, r24
    339e:	e0 91 00 01 	lds	r30, 0x0100	;  0x800100
    33a2:	f0 91 01 01 	lds	r31, 0x0101	;  0x800101
    33a6:	80 81       	ld	r24, Z
    33a8:	90 91 31 02 	lds	r25, 0x0231	;  0x800231
    33ac:	89 2b       	or	r24, r25
    33ae:	80 83       	st	Z, r24
    33b0:	90 91 28 02 	lds	r25, 0x0228	;  0x800228
    33b4:	99 23       	and	r25, r25
    33b6:	81 f0       	breq	.+32     	;  0x33d8
    33b8:	e0 91 00 01 	lds	r30, 0x0100	;  0x800100
    33bc:	f0 91 01 01 	lds	r31, 0x0101	;  0x800101
    33c0:	80 81       	ld	r24, Z
    33c2:	89 2b       	or	r24, r25
    33c4:	80 83       	st	Z, r24
    33c6:	80 91 00 01 	lds	r24, 0x0100	;  0x800100
    33ca:	90 91 01 01 	lds	r25, 0x0101	;  0x800101
    33ce:	0e 94 e9 1a 	call	0x35d2	;  0x35d2
    33d2:	81 11       	cpse	r24, r1
    33d4:	0e 94 b5 19 	call	0x336a	;  0x336a
    33d8:	80 91 00 01 	lds	r24, 0x0100	;  0x800100
    33dc:	90 91 01 01 	lds	r25, 0x0101	;  0x800101
    33e0:	0c 94 be 0e 	jmp	0x1d7c	;  0x1d7c
    33e4:	08 95       	ret
    33e6:	0c 94 f2 19 	jmp	0x33e4	;  0x33e4
    33ea:	98 e0       	ldi	r25, 0x08	; 8
    33ec:	89 9f       	mul	r24, r25
    33ee:	90 01       	movw	r18, r0
    33f0:	11 24       	eor	r1, r1
    33f2:	62 2b       	or	r22, r18
    33f4:	60 93 27 02 	sts	0x0227, r22	;  0x800227
    33f8:	0e 94 ef 17 	call	0x2fde	;  0x2fde
    33fc:	80 91 27 02 	lds	r24, 0x0227	;  0x800227
    3400:	85 95       	asr	r24
    3402:	85 95       	asr	r24
    3404:	85 95       	asr	r24
    3406:	0c 94 f3 19 	jmp	0x33e6	;  0x33e6
    340a:	10 92 27 02 	sts	0x0227, r1	;  0x800227
    340e:	80 e0       	ldi	r24, 0x00	; 0
    3410:	0c 94 f3 19 	jmp	0x33e6	;  0x33e6
    3414:	90 91 27 02 	lds	r25, 0x0227	;  0x800227
    3418:	80 95       	com	r24
    341a:	89 23       	and	r24, r25
    341c:	80 93 27 02 	sts	0x0227, r24	;  0x800227
    3420:	28 2f       	mov	r18, r24
    3422:	27 70       	andi	r18, 0x07	; 7
    3424:	71 f4       	brne	.+28     	;  0x3442
    3426:	28 2f       	mov	r18, r24
    3428:	08 2e       	mov	r0, r24
    342a:	00 0c       	add	r0, r0
    342c:	33 0b       	sbc	r19, r19
    342e:	92 17       	cp	r25, r18
    3430:	13 06       	cpc	r1, r19
    3432:	39 f0       	breq	.+14     	;  0x3442
    3434:	85 95       	asr	r24
    3436:	85 95       	asr	r24
    3438:	85 95       	asr	r24
    343a:	0e 94 10 18 	call	0x3020	;  0x3020
    343e:	0c 94 05 1a 	jmp	0x340a	;  0x340a
    3442:	08 95       	ret
    3444:	90 93 c3 01 	sts	0x01C3, r25	;  0x8001c3
    3448:	80 93 c2 01 	sts	0x01C2, r24	;  0x8001c2
    344c:	08 95       	ret
    344e:	82 95       	swap	r24
    3450:	90 e0       	ldi	r25, 0x00	; 0
    3452:	9c 01       	movw	r18, r24
    3454:	22 0f       	add	r18, r18
    3456:	33 1f       	adc	r19, r19
    3458:	22 0f       	add	r18, r18
    345a:	33 1f       	adc	r19, r19
    345c:	2c 7c       	andi	r18, 0xCC	; 204
    345e:	95 95       	asr	r25
    3460:	87 95       	ror	r24
    3462:	95 95       	asr	r25
    3464:	87 95       	ror	r24
    3466:	83 73       	andi	r24, 0x33	; 51
    3468:	28 2b       	or	r18, r24
    346a:	30 e0       	ldi	r19, 0x00	; 0
    346c:	c9 01       	movw	r24, r18
    346e:	88 0f       	add	r24, r24
    3470:	99 1f       	adc	r25, r25
    3472:	8a 7a       	andi	r24, 0xAA	; 170
    3474:	35 95       	asr	r19
    3476:	27 95       	ror	r18
    3478:	25 75       	andi	r18, 0x55	; 85
    347a:	82 2b       	or	r24, r18
    347c:	08 95       	ret
    347e:	6f ef       	ldi	r22, 0xFF	; 255
    3480:	7f ef       	ldi	r23, 0xFF	; 255
    3482:	90 e0       	ldi	r25, 0x00	; 0
    3484:	80 e0       	ldi	r24, 0x00	; 0
    3486:	0c 94 86 2c 	jmp	0x590c	;  0x590c
    348a:	90 e0       	ldi	r25, 0x00	; 0
    348c:	80 e0       	ldi	r24, 0x00	; 0
    348e:	0e 94 62 2c 	call	0x58c4	;  0x58c4
    3492:	21 e0       	ldi	r18, 0x01	; 1
    3494:	8c 3e       	cpi	r24, 0xEC	; 236
    3496:	9e 4f       	sbci	r25, 0xFE	; 254
    3498:	09 f0       	breq	.+2      	;  0x349c
    349a:	20 e0       	ldi	r18, 0x00	; 0
    349c:	82 2f       	mov	r24, r18
    349e:	08 95       	ret
    34a0:	82 e0       	ldi	r24, 0x02	; 2
    34a2:	90 e0       	ldi	r25, 0x00	; 0
    34a4:	0c 94 5a 2c 	jmp	0x58b4	;  0x58b4
    34a8:	83 e0       	ldi	r24, 0x03	; 3
    34aa:	90 e0       	ldi	r25, 0x00	; 0
    34ac:	0c 94 5a 2c 	jmp	0x58b4	;  0x58b4
    34b0:	cf 93       	push	r28
    34b2:	84 e0       	ldi	r24, 0x04	; 4
    34b4:	90 e0       	ldi	r25, 0x00	; 0
    34b6:	0e 94 5a 2c 	call	0x58b4	;  0x58b4
    34ba:	c8 2f       	mov	r28, r24
    34bc:	81 e2       	ldi	r24, 0x21	; 33
    34be:	90 e0       	ldi	r25, 0x00	; 0
    34c0:	0e 94 5a 2c 	call	0x58b4	;  0x58b4
    34c4:	98 2f       	mov	r25, r24
    34c6:	8c 2f       	mov	r24, r28
    34c8:	cf 91       	pop	r28
    34ca:	08 95       	ret
    34cc:	cf 93       	push	r28
    34ce:	c9 2f       	mov	r28, r25
    34d0:	68 2f       	mov	r22, r24
    34d2:	84 e0       	ldi	r24, 0x04	; 4
    34d4:	90 e0       	ldi	r25, 0x00	; 0
    34d6:	0e 94 68 2c 	call	0x58d0	;  0x58d0
    34da:	6c 2f       	mov	r22, r28
    34dc:	81 e2       	ldi	r24, 0x21	; 33
    34de:	90 e0       	ldi	r25, 0x00	; 0
    34e0:	cf 91       	pop	r28
    34e2:	0c 94 68 2c 	jmp	0x58d0	;  0x58d0
    34e6:	ab 01       	movw	r20, r22
    34e8:	bc 01       	movw	r22, r24
    34ea:	8f e0       	ldi	r24, 0x0F	; 15
    34ec:	90 e0       	ldi	r25, 0x00	; 0
    34ee:	0c 94 7a 2c 	jmp	0x58f4	;  0x58f4
    34f2:	ab 01       	movw	r20, r22
    34f4:	bc 01       	movw	r22, r24
    34f6:	83 e1       	ldi	r24, 0x13	; 19
    34f8:	90 e0       	ldi	r25, 0x00	; 0
    34fa:	0c 94 7a 2c 	jmp	0x58f4	;  0x58f4
    34fe:	60 e0       	ldi	r22, 0x00	; 0
    3500:	70 e0       	ldi	r23, 0x00	; 0
    3502:	cb 01       	movw	r24, r22
    3504:	0c 94 79 1a 	jmp	0x34f2	;  0x34f2
    3508:	60 e0       	ldi	r22, 0x00	; 0
    350a:	70 e0       	ldi	r23, 0x00	; 0
    350c:	cb 01       	movw	r24, r22
    350e:	0e 94 73 1a 	call	0x34e6	;  0x34e6
    3512:	0c 94 7f 1a 	jmp	0x34fe	;  0x34fe
    3516:	6c ee       	ldi	r22, 0xEC	; 236
    3518:	7e ef       	ldi	r23, 0xFE	; 254
    351a:	90 e0       	ldi	r25, 0x00	; 0
    351c:	80 e0       	ldi	r24, 0x00	; 0
    351e:	0e 94 86 2c 	call	0x590c	;  0x590c
    3522:	60 e0       	ldi	r22, 0x00	; 0
    3524:	82 e0       	ldi	r24, 0x02	; 2
    3526:	90 e0       	ldi	r25, 0x00	; 0
    3528:	0e 94 68 2c 	call	0x58d0	;  0x58d0
    352c:	60 e0       	ldi	r22, 0x00	; 0
    352e:	83 e0       	ldi	r24, 0x03	; 3
    3530:	90 e0       	ldi	r25, 0x00	; 0
    3532:	0e 94 68 2c 	call	0x58d0	;  0x58d0
    3536:	10 92 23 02 	sts	0x0223, r1	;  0x800223
    353a:	10 92 24 02 	sts	0x0224, r1	;  0x800224
    353e:	10 92 25 02 	sts	0x0225, r1	;  0x800225
    3542:	10 92 26 02 	sts	0x0226, r1	;  0x800226
    3546:	60 e0       	ldi	r22, 0x00	; 0
    3548:	84 e0       	ldi	r24, 0x04	; 4
    354a:	90 e0       	ldi	r25, 0x00	; 0
    354c:	0e 94 68 2c 	call	0x58d0	;  0x58d0
    3550:	60 e0       	ldi	r22, 0x00	; 0
    3552:	81 e2       	ldi	r24, 0x21	; 33
    3554:	90 e0       	ldi	r25, 0x00	; 0
    3556:	0e 94 68 2c 	call	0x58d0	;  0x58d0
    355a:	60 e0       	ldi	r22, 0x00	; 0
    355c:	85 e0       	ldi	r24, 0x05	; 5
    355e:	90 e0       	ldi	r25, 0x00	; 0
    3560:	0e 94 68 2c 	call	0x58d0	;  0x58d0
    3564:	60 e0       	ldi	r22, 0x00	; 0
    3566:	86 e0       	ldi	r24, 0x06	; 6
    3568:	90 e0       	ldi	r25, 0x00	; 0
    356a:	0e 94 68 2c 	call	0x58d0	;  0x58d0
    356e:	6f ef       	ldi	r22, 0xFF	; 255
    3570:	87 e0       	ldi	r24, 0x07	; 7
    3572:	90 e0       	ldi	r25, 0x00	; 0
    3574:	0e 94 68 2c 	call	0x58d0	;  0x58d0
    3578:	40 e0       	ldi	r20, 0x00	; 0
    357a:	50 e0       	ldi	r21, 0x00	; 0
    357c:	ba 01       	movw	r22, r20
    357e:	88 e0       	ldi	r24, 0x08	; 8
    3580:	90 e0       	ldi	r25, 0x00	; 0
    3582:	0e 94 7a 2c 	call	0x58f4	;  0x58f4
    3586:	60 e0       	ldi	r22, 0x00	; 0
    3588:	8d e0       	ldi	r24, 0x0D	; 13
    358a:	90 e0       	ldi	r25, 0x00	; 0
    358c:	0e 94 68 2c 	call	0x58d0	;  0x58d0
    3590:	40 e0       	ldi	r20, 0x00	; 0
    3592:	50 e0       	ldi	r21, 0x00	; 0
    3594:	ba 01       	movw	r22, r20
    3596:	88 e1       	ldi	r24, 0x18	; 24
    3598:	90 e0       	ldi	r25, 0x00	; 0
    359a:	0e 94 7a 2c 	call	0x58f4	;  0x58f4
    359e:	60 e0       	ldi	r22, 0x00	; 0
    35a0:	87 e1       	ldi	r24, 0x17	; 23
    35a2:	90 e0       	ldi	r25, 0x00	; 0
    35a4:	0e 94 68 2c 	call	0x58d0	;  0x58d0
    35a8:	40 e0       	ldi	r20, 0x00	; 0
    35aa:	50 e0       	ldi	r21, 0x00	; 0
    35ac:	ba 01       	movw	r22, r20
    35ae:	8c e1       	ldi	r24, 0x1C	; 28
    35b0:	90 e0       	ldi	r25, 0x00	; 0
    35b2:	0e 94 7a 2c 	call	0x58f4	;  0x58f4
