
flash.hex:     file format ihex


Disassembly of section .sec1:

00000000 <.sec1>:
       0:	0c 94 45 06 	jmp	0xc8a	;  0xc8a
       4:	0c 94 8c 06 	jmp	0xd18	;  0xd18
       8:	0c 94 8c 06 	jmp	0xd18	;  0xd18
       c:	0c 94 8c 06 	jmp	0xd18	;  0xd18
      10:	0c 94 8c 06 	jmp	0xd18	;  0xd18
      14:	0c 94 8c 06 	jmp	0xd18	;  0xd18
      18:	0c 94 8c 06 	jmp	0xd18	;  0xd18
      1c:	0c 94 8c 06 	jmp	0xd18	;  0xd18
      20:	0c 94 8c 06 	jmp	0xd18	;  0xd18
      24:	0c 94 8c 06 	jmp	0xd18	;  0xd18
      28:	0c 94 89 29 	jmp	0x5312	;  0x5312
      2c:	0c 94 5d 2a 	jmp	0x54ba	;  0x54ba
      30:	0c 94 90 1b 	jmp	0x3720	;  0x3720
      34:	0c 94 8c 06 	jmp	0xd18	;  0xd18
      38:	0c 94 8c 06 	jmp	0xd18	;  0xd18
      3c:	0c 94 8c 06 	jmp	0xd18	;  0xd18
      40:	0c 94 8c 06 	jmp	0xd18	;  0xd18
      44:	0c 94 8c 06 	jmp	0xd18	;  0xd18
      48:	0c 94 8c 06 	jmp	0xd18	;  0xd18
      4c:	0c 94 8c 06 	jmp	0xd18	;  0xd18
      50:	0c 94 8c 06 	jmp	0xd18	;  0xd18
      54:	0c 94 e7 1b 	jmp	0x37ce	;  0x37ce
      58:	0c 94 8c 06 	jmp	0xd18	;  0xd18
      5c:	0c 94 8c 06 	jmp	0xd18	;  0xd18
      60:	0c 94 8c 06 	jmp	0xd18	;  0xd18
      64:	0c 94 8c 06 	jmp	0xd18	;  0xd18
      68:	0c 94 8c 06 	jmp	0xd18	;  0xd18
      6c:	0c 94 8c 06 	jmp	0xd18	;  0xd18
      70:	0c 94 8c 06 	jmp	0xd18	;  0xd18
      74:	0c 94 8c 06 	jmp	0xd18	;  0xd18
      78:	0c 94 8c 06 	jmp	0xd18	;  0xd18
      7c:	0c 94 8c 06 	jmp	0xd18	;  0xd18
      80:	0c 94 8c 06 	jmp	0xd18	;  0xd18
      84:	0c 94 8c 06 	jmp	0xd18	;  0xd18
      88:	0c 94 8c 06 	jmp	0xd18	;  0xd18
      8c:	0c 94 8c 06 	jmp	0xd18	;  0xd18
      90:	0c 94 8c 06 	jmp	0xd18	;  0xd18
      94:	0c 94 8c 06 	jmp	0xd18	;  0xd18
      98:	0c 94 8c 06 	jmp	0xd18	;  0xd18
      9c:	0c 94 8c 06 	jmp	0xd18	;  0xd18
      a0:	0c 94 8c 06 	jmp	0xd18	;  0xd18
      a4:	0c 94 8c 06 	jmp	0xd18	;  0xd18
      a8:	0c 94 8c 06 	jmp	0xd18	;  0xd18
      ac:	66 6c       	ori	r22, 0xC6	; 198
      ae:	61 67       	ori	r22, 0x71	; 113
      b0:	7b 64       	ori	r23, 0x4B	; 75
      b2:	34 74       	andi	r19, 0x44	; 68
      b4:	61 5f       	subi	r22, 0xF1	; 241
      b6:	33 78       	andi	r19, 0x83	; 131
      b8:	66 31       	cpi	r22, 0x16	; 22
      ba:	6c 5f       	subi	r22, 0xFC	; 252
      bc:	72 33       	cpi	r23, 0x32	; 50
      be:	76 33       	cpi	r23, 0x36	; 54
      c0:	72 73       	andi	r23, 0x32	; 50
      c2:	33 5f       	subi	r19, 0xF3	; 243
      c4:	33 6e       	ori	r19, 0xE3	; 227
      c6:	67 31       	cpi	r22, 0x17	; 23
      c8:	6e 33       	cpi	r22, 0x3E	; 62
      ca:	33 72       	andi	r19, 0x23	; 35
      cc:	31 6e       	ori	r19, 0xE1	; 225
      ce:	67 7d       	andi	r22, 0xD7	; 215
      d0:	00 42       	sbci	r16, 0x20	; 32
      d2:	45 47       	sbci	r20, 0x75	; 117
      d4:	49 4e       	sbci	r20, 0xE9	; 233
      d6:	4e 49       	sbci	r20, 0x9E	; 158
      d8:	4e 47       	sbci	r20, 0x7E	; 126
      da:	20 44       	sbci	r18, 0x40	; 64
      dc:	41 54       	subi	r20, 0x41	; 65
      de:	41 20       	and	r4, r1
      e0:	45 58       	subi	r20, 0x85	; 133
      e2:	46 49       	sbci	r20, 0x96	; 150
      e4:	4c 00       	.word	0x004c	; ????
      e6:	01 51       	subi	r16, 0x11	; 17
      e8:	54 00       	.word	0x0054	; ????
      ea:	55 00       	.word	0x0055	; ????
      ec:	4c 00       	.word	0x004c	; ????
      ee:	24 00       	.word	0x0024	; ????
      f0:	25 00       	.word	0x0025	; ????
      f2:	26 00       	.word	0x0026	; ????
      f4:	56 00       	.word	0x0056	; ????
      f6:	21 00       	.word	0x0021	; ????
      f8:	22 00       	.word	0x0022	; ????
      fa:	23 00       	.word	0x0023	; ????
      fc:	57 00       	.word	0x0057	; ????
      fe:	1e 00       	.word	0x001e	; ????
     100:	1f 00       	.word	0x001f	; ????
     102:	20 00       	.word	0x0020	; ????
     104:	58 00       	.word	0x0058	; ????
     106:	27 00       	.word	0x0027	; ????
     108:	36 00       	.word	0x0036	; ????
     10a:	63 00       	.word	0x0063	; ????
     10c:	2a 00       	.word	0x002a	; ????
     10e:	01 00       	.word	0x0001	; ????
     110:	08 5d       	subi	r16, 0xD8	; 216
     112:	55 00       	.word	0x0055	; ????
     114:	4c 00       	.word	0x004c	; ????
     116:	24 00       	.word	0x0024	; ????
     118:	25 00       	.word	0x0025	; ????
     11a:	26 00       	.word	0x0026	; ????
     11c:	56 00       	.word	0x0056	; ????
     11e:	04 00       	.word	0x0004	; ????
     120:	52 00       	.word	0x0052	; ????
     122:	05 00       	.word	0x0005	; ????
     124:	57 00       	.word	0x0057	; ????
     126:	50 00       	.word	0x0050	; ????
     128:	51 00       	.word	0x0051	; ????
     12a:	4f 00       	.word	0x004f	; ????
     12c:	58 00       	.word	0x0058	; ????
     12e:	27 00       	.word	0x0027	; ????
     130:	36 00       	.word	0x0036	; ????
     132:	63 00       	.word	0x0063	; ????
     134:	2a 00       	.word	0x002a	; ????
     136:	44 45       	sbci	r20, 0x54	; 84
     138:	42 55       	subi	r20, 0x52	; 82
     13a:	47 3a       	cpi	r20, 0xA7	; 167
     13c:	20 64       	ori	r18, 0x40	; 64
     13e:	69 73       	andi	r22, 0x39	; 57
     140:	61 62       	ori	r22, 0x21	; 33
     142:	6c 65       	ori	r22, 0x5C	; 92
     144:	64 2e       	mov	r6, r20
     146:	0a 00       	.word	0x000a	; ????
     148:	44 45       	sbci	r20, 0x54	; 84
     14a:	42 55       	subi	r20, 0x52	; 82
     14c:	47 3a       	cpi	r20, 0xA7	; 167
     14e:	20 65       	ori	r18, 0x50	; 80
     150:	6e 61       	ori	r22, 0x1E	; 30
     152:	62 6c       	ori	r22, 0xC2	; 194
     154:	65 64       	ori	r22, 0x45	; 69
     156:	2e 0a       	sbc	r2, r30
	...
     160:	00 2a       	or	r0, r16
     162:	2b 28       	or	r2, r11
	...
     174:	29 00       	.word	0x0029	; ????
     176:	00 00       	nop
     178:	00 2c       	mov	r0, r0
     17a:	1e 34       	cpi	r17, 0x4E	; 78
     17c:	20 21       	and	r18, r0
     17e:	22 24       	eor	r2, r2
     180:	34 26       	eor	r3, r20
     182:	27 25       	eor	r18, r7
     184:	2e 36       	cpi	r18, 0x6E	; 110
     186:	2d 37       	cpi	r18, 0x7D	; 125
     188:	38 27       	eor	r19, r24
     18a:	1e 1f       	adc	r17, r30
     18c:	20 21       	and	r18, r0
     18e:	22 23       	and	r18, r18
     190:	24 25       	eor	r18, r4
     192:	26 33       	cpi	r18, 0x36	; 54
     194:	33 36       	cpi	r19, 0x63	; 99
     196:	2e 37       	cpi	r18, 0x7E	; 126
     198:	38 1f       	adc	r19, r24
     19a:	04 05       	cpc	r16, r4
     19c:	06 07       	cpc	r16, r22
     19e:	08 09       	sbc	r16, r8
     1a0:	0a 0b       	sbc	r16, r26
     1a2:	0c 0d       	add	r16, r12
     1a4:	0e 0f       	add	r16, r30
     1a6:	10 11       	cpse	r17, r0
     1a8:	12 13       	cpse	r17, r18
     1aa:	14 15       	cp	r17, r4
     1ac:	16 17       	cp	r17, r22
     1ae:	18 19       	sub	r17, r8
     1b0:	1a 1b       	sub	r17, r26
     1b2:	1c 1d       	adc	r17, r12
     1b4:	2f 31       	cpi	r18, 0x1F	; 31
     1b6:	30 23       	and	r19, r16
     1b8:	2d 35       	cpi	r18, 0x5D	; 93
     1ba:	04 05       	cpc	r16, r4
     1bc:	06 07       	cpc	r16, r22
     1be:	08 09       	sbc	r16, r8
     1c0:	0a 0b       	sbc	r16, r26
     1c2:	0c 0d       	add	r16, r12
     1c4:	0e 0f       	add	r16, r30
     1c6:	10 11       	cpse	r17, r0
     1c8:	12 13       	cpse	r17, r18
     1ca:	14 15       	cp	r17, r4
     1cc:	16 17       	cp	r17, r22
     1ce:	18 19       	sub	r17, r8
     1d0:	1a 1b       	sub	r17, r26
     1d2:	1c 1d       	adc	r17, r12
     1d4:	2f 31       	cpi	r18, 0x1F	; 31
     1d6:	30 35       	cpi	r19, 0x50	; 80
     1d8:	4c 00       	.word	0x004c	; ????
	...
     1ea:	00 00       	nop
     1ec:	00 7e       	andi	r16, 0xE0	; 224
     1ee:	0f 00       	.word	0x000f	; ????
     1f0:	d4 ff       	sbrs	r29, 4
     1f2:	ff ff       	.word	0xffff	; ????
     1f4:	c7 00       	.word	0x00c7	; ????
     1f6:	00 00       	nop
     1f8:	78 0a       	sbc	r7, r24
     1fa:	00 25       	eor	r16, r0
     1fc:	30 38       	cpi	r19, 0x80	; 128
     1fe:	62 00       	.word	0x0062	; ????
     200:	3a 20       	and	r3, r10
     202:	00 25       	eor	r16, r0
     204:	30 32       	cpi	r19, 0x20	; 32
     206:	58 00       	.word	0x0058	; ????
     208:	0a 72       	andi	r16, 0x2A	; 42
     20a:	2f 63       	ori	r18, 0x3F	; 63
     20c:	20 30       	cpi	r18, 0x00	; 0
     20e:	31 32       	cpi	r19, 0x21	; 33
     210:	33 34       	cpi	r19, 0x43	; 67
     212:	35 36       	cpi	r19, 0x65	; 101
     214:	37 0a       	sbc	r3, r23
     216:	00 0a       	sbc	r0, r16
     218:	00 25       	eor	r16, r0
     21a:	30 32       	cpi	r19, 0x20	; 32
     21c:	58 20       	and	r5, r8
     21e:	00 6b       	ori	r16, 0xB0	; 176
     220:	65 79       	andi	r22, 0x95	; 149
     222:	62 6f       	ori	r22, 0xF2	; 242
     224:	61 72       	andi	r22, 0x21	; 33
     226:	64 5f       	subi	r22, 0xF4	; 244
     228:	72 65       	ori	r23, 0x52	; 82
     22a:	70 6f       	ori	r23, 0xF0	; 240
     22c:	72 74       	andi	r23, 0x42	; 66
     22e:	3a 20       	and	r3, r10
     230:	00 0a       	sbc	r0, r16
     232:	00 25       	eor	r16, r0
     234:	30 32       	cpi	r19, 0x20	; 32
     236:	58 00       	.word	0x0058	; ????
     238:	6b 65       	ori	r22, 0x5B	; 91
     23a:	79 62       	ori	r23, 0x29	; 41
     23c:	6f 61       	ori	r22, 0x1F	; 31
     23e:	72 64       	ori	r23, 0x42	; 66
     240:	5f 73       	andi	r21, 0x3F	; 63
     242:	65 74       	andi	r22, 0x45	; 69
     244:	5f 6c       	ori	r21, 0xCF	; 207
     246:	65 64       	ori	r22, 0x45	; 69
     248:	3a 20       	and	r3, r10
     24a:	00 29       	or	r16, r0
     24c:	0a 00       	.word	0x000a	; ????
     24e:	25 75       	andi	r18, 0x55	; 85
     250:	00 2f       	mov	r16, r16
     252:	00 25       	eor	r16, r0
     254:	75 00       	.word	0x0075	; ????
     256:	5d 28       	or	r5, r13
     258:	00 25       	eor	r16, r0
     25a:	64 00       	.word	0x0064	; ????
     25c:	20 00       	.word	0x0020	; ????
     25e:	25 64       	ori	r18, 0x45	; 69
     260:	00 20       	and	r0, r0
     262:	00 25       	eor	r16, r0
     264:	64 00       	.word	0x0064	; ????
     266:	20 00       	.word	0x0020	; ????
     268:	25 64       	ori	r18, 0x45	; 69
     26a:	00 7c       	andi	r16, 0xC0	; 192
     26c:	00 25       	eor	r16, r0
     26e:	30 32       	cpi	r19, 0x20	; 32
     270:	58 00       	.word	0x0058	; ????
     272:	6d 6f       	ori	r22, 0xFD	; 253
     274:	75 73       	andi	r23, 0x35	; 53
     276:	65 6b       	ori	r22, 0xB5	; 181
     278:	65 79       	andi	r22, 0x95	; 149
     27a:	20 5b       	subi	r18, 0xB0	; 176
     27c:	62 74       	andi	r22, 0x42	; 66
     27e:	6e 7c       	andi	r22, 0xCE	; 206
     280:	78 20       	and	r7, r8
     282:	79 20       	and	r7, r9
     284:	76 20       	and	r7, r6
     286:	68 5d       	subi	r22, 0xD8	; 216
     288:	28 72       	andi	r18, 0x28	; 40
     28a:	65 70       	andi	r22, 0x05	; 5
     28c:	2f 61       	ori	r18, 0x1F	; 31
     28e:	63 6c       	ori	r22, 0xC3	; 195
     290:	29 3a       	cpi	r18, 0xA9	; 169
     292:	20 5b       	subi	r18, 0xB0	; 176
     294:	00 6d       	ori	r16, 0xD0	; 208
     296:	6b 5f       	subi	r22, 0xFB	; 251
     298:	77 68       	ori	r23, 0x87	; 135
     29a:	65 65       	ori	r22, 0x55	; 85
     29c:	6c 5f       	subi	r22, 0xFC	; 252
     29e:	74 69       	ori	r23, 0x94	; 148
     2a0:	6d 65       	ori	r22, 0x5D	; 93
     2a2:	5f 74       	andi	r21, 0x4F	; 79
     2a4:	6f 5f       	subi	r22, 0xFF	; 255
     2a6:	6d 61       	ori	r22, 0x1D	; 29
     2a8:	78 20       	and	r7, r8
     2aa:	3d 20       	and	r3, r13
     2ac:	25 64       	ori	r18, 0x45	; 69
     2ae:	0a 00       	.word	0x000a	; ????
     2b0:	6d 6b       	ori	r22, 0xBD	; 189
     2b2:	5f 77       	andi	r21, 0x7F	; 127
     2b4:	68 65       	ori	r22, 0x58	; 88
     2b6:	65 6c       	ori	r22, 0xC5	; 197
     2b8:	5f 6d       	ori	r21, 0xDF	; 223
     2ba:	61 78       	andi	r22, 0x81	; 129
     2bc:	5f 73       	andi	r21, 0x3F	; 63
     2be:	70 65       	ori	r23, 0x50	; 80
     2c0:	65 64       	ori	r22, 0x45	; 69
     2c2:	20 3d       	cpi	r18, 0xD0	; 208
     2c4:	20 25       	eor	r18, r0
     2c6:	64 0a       	sbc	r6, r20
     2c8:	00 6d       	ori	r16, 0xD0	; 208
     2ca:	6b 5f       	subi	r22, 0xFB	; 251
     2cc:	74 69       	ori	r23, 0x94	; 148
     2ce:	6d 65       	ori	r22, 0x5D	; 93
     2d0:	5f 74       	andi	r21, 0x4F	; 79
     2d2:	6f 5f       	subi	r22, 0xFF	; 255
     2d4:	6d 61       	ori	r22, 0x1D	; 29
     2d6:	78 20       	and	r7, r8
     2d8:	3d 20       	and	r3, r13
     2da:	25 64       	ori	r18, 0x45	; 69
     2dc:	0a 00       	.word	0x000a	; ????
     2de:	6d 6b       	ori	r22, 0xBD	; 189
     2e0:	5f 6d       	ori	r21, 0xDF	; 223
     2e2:	61 78       	andi	r22, 0x81	; 129
     2e4:	5f 73       	andi	r21, 0x3F	; 63
     2e6:	70 65       	ori	r23, 0x50	; 80
     2e8:	65 64       	ori	r22, 0x45	; 69
     2ea:	20 3d       	cpi	r18, 0xD0	; 208
     2ec:	20 25       	eor	r18, r0
     2ee:	64 0a       	sbc	r6, r20
     2f0:	00 6d       	ori	r16, 0xD0	; 208
     2f2:	6b 5f       	subi	r22, 0xFB	; 251
     2f4:	69 6e       	ori	r22, 0xE9	; 233
     2f6:	74 65       	ori	r23, 0x54	; 84
     2f8:	72 76       	andi	r23, 0x62	; 98
     2fa:	61 6c       	ori	r22, 0xC1	; 193
     2fc:	20 3d       	cpi	r18, 0xD0	; 208
     2fe:	20 25       	eor	r18, r0
     300:	64 0a       	sbc	r6, r20
     302:	00 6d       	ori	r16, 0xD0	; 208
     304:	6b 5f       	subi	r22, 0xFB	; 251
     306:	64 65       	ori	r22, 0x54	; 84
     308:	6c 61       	ori	r22, 0x1C	; 28
     30a:	79 20       	and	r7, r9
     30c:	3d 20       	and	r3, r13
     30e:	25 64       	ori	r18, 0x45	; 69
     310:	0a 00       	.word	0x000a	; ????
     312:	6d 6b       	ori	r22, 0xBD	; 189
     314:	5f 77       	andi	r21, 0x7F	; 127
     316:	68 65       	ori	r22, 0x58	; 88
     318:	65 6c       	ori	r22, 0xC5	; 197
     31a:	5f 74       	andi	r21, 0x4F	; 79
     31c:	69 6d       	ori	r22, 0xD9	; 217
     31e:	65 5f       	subi	r22, 0xF5	; 245
     320:	74 6f       	ori	r23, 0xF4	; 244
     322:	5f 6d       	ori	r21, 0xDF	; 223
     324:	61 78       	andi	r22, 0x81	; 129
     326:	20 3d       	cpi	r18, 0xD0	; 208
     328:	20 25       	eor	r18, r0
     32a:	64 0a       	sbc	r6, r20
     32c:	00 6d       	ori	r16, 0xD0	; 208
     32e:	6b 5f       	subi	r22, 0xFB	; 251
     330:	77 68       	ori	r23, 0x87	; 135
     332:	65 65       	ori	r22, 0x55	; 85
     334:	6c 5f       	subi	r22, 0xFC	; 252
     336:	6d 61       	ori	r22, 0x1D	; 29
     338:	78 5f       	subi	r23, 0xF8	; 248
     33a:	73 70       	andi	r23, 0x03	; 3
     33c:	65 65       	ori	r22, 0x55	; 85
     33e:	64 20       	and	r6, r4
     340:	3d 20       	and	r3, r13
     342:	25 64       	ori	r18, 0x45	; 69
     344:	0a 00       	.word	0x000a	; ????
     346:	6d 6b       	ori	r22, 0xBD	; 189
     348:	5f 74       	andi	r21, 0x4F	; 79
     34a:	69 6d       	ori	r22, 0xD9	; 217
     34c:	65 5f       	subi	r22, 0xF5	; 245
     34e:	74 6f       	ori	r23, 0xF4	; 244
     350:	5f 6d       	ori	r21, 0xDF	; 223
     352:	61 78       	andi	r22, 0x81	; 129
     354:	20 3d       	cpi	r18, 0xD0	; 208
     356:	20 25       	eor	r18, r0
     358:	64 0a       	sbc	r6, r20
     35a:	00 6d       	ori	r16, 0xD0	; 208
     35c:	6b 5f       	subi	r22, 0xFB	; 251
     35e:	6d 61       	ori	r22, 0x1D	; 29
     360:	78 5f       	subi	r23, 0xF8	; 248
     362:	73 70       	andi	r23, 0x03	; 3
     364:	65 65       	ori	r22, 0x55	; 85
     366:	64 20       	and	r6, r4
     368:	3d 20       	and	r3, r13
     36a:	25 64       	ori	r18, 0x45	; 69
     36c:	0a 00       	.word	0x000a	; ????
     36e:	6d 6b       	ori	r22, 0xBD	; 189
     370:	5f 69       	ori	r21, 0x9F	; 159
     372:	6e 74       	andi	r22, 0x4E	; 78
     374:	65 72       	andi	r22, 0x25	; 37
     376:	76 61       	ori	r23, 0x16	; 22
     378:	6c 20       	and	r6, r12
     37a:	3d 20       	and	r3, r13
     37c:	25 64       	ori	r18, 0x45	; 69
     37e:	0a 00       	.word	0x000a	; ????
     380:	6d 6b       	ori	r22, 0xBD	; 189
     382:	5f 64       	ori	r21, 0x4F	; 79
     384:	65 6c       	ori	r22, 0xC5	; 197
     386:	61 79       	andi	r22, 0x91	; 145
     388:	20 3d       	cpi	r18, 0xD0	; 208
     38a:	20 25       	eor	r18, r0
     38c:	64 0a       	sbc	r6, r20
     38e:	00 0a       	sbc	r0, r16
     390:	00 25       	eor	r16, r0
     392:	75 00       	.word	0x0075	; ????
     394:	36 3a       	cpi	r19, 0xA6	; 166
     396:	20 77       	andi	r18, 0x70	; 112
     398:	68 65       	ori	r22, 0x58	; 88
     39a:	65 6c       	ori	r22, 0xC5	; 197
     39c:	5f 74       	andi	r21, 0x4F	; 79
     39e:	69 6d       	ori	r22, 0xD9	; 217
     3a0:	65 5f       	subi	r22, 0xF5	; 245
     3a2:	74 6f       	ori	r23, 0xF4	; 244
     3a4:	5f 6d       	ori	r21, 0xDF	; 223
     3a6:	61 78       	andi	r22, 0x81	; 129
     3a8:	3a 20       	and	r3, r10
     3aa:	00 0a       	sbc	r0, r16
     3ac:	00 25       	eor	r16, r0
     3ae:	75 00       	.word	0x0075	; ????
     3b0:	35 3a       	cpi	r19, 0xA5	; 165
     3b2:	20 77       	andi	r18, 0x70	; 112
     3b4:	68 65       	ori	r22, 0x58	; 88
     3b6:	65 6c       	ori	r22, 0xC5	; 197
     3b8:	5f 6d       	ori	r21, 0xDF	; 223
     3ba:	61 78       	andi	r22, 0x81	; 129
     3bc:	5f 73       	andi	r21, 0x3F	; 63
     3be:	70 65       	ori	r23, 0x50	; 80
     3c0:	65 64       	ori	r22, 0x45	; 69
     3c2:	3a 20       	and	r3, r10
     3c4:	00 0a       	sbc	r0, r16
     3c6:	00 25       	eor	r16, r0
     3c8:	75 00       	.word	0x0075	; ????
     3ca:	34 3a       	cpi	r19, 0xA4	; 164
     3cc:	20 74       	andi	r18, 0x40	; 64
     3ce:	69 6d       	ori	r22, 0xD9	; 217
     3d0:	65 5f       	subi	r22, 0xF5	; 245
     3d2:	74 6f       	ori	r23, 0xF4	; 244
     3d4:	5f 6d       	ori	r21, 0xDF	; 223
     3d6:	61 78       	andi	r22, 0x81	; 129
     3d8:	3a 20       	and	r3, r10
     3da:	00 0a       	sbc	r0, r16
     3dc:	00 25       	eor	r16, r0
     3de:	75 00       	.word	0x0075	; ????
     3e0:	33 3a       	cpi	r19, 0xA3	; 163
     3e2:	20 6d       	ori	r18, 0xD0	; 208
     3e4:	61 78       	andi	r22, 0x81	; 129
     3e6:	5f 73       	andi	r21, 0x3F	; 63
     3e8:	70 65       	ori	r23, 0x50	; 80
     3ea:	65 64       	ori	r22, 0x45	; 69
     3ec:	3a 20       	and	r3, r10
     3ee:	00 0a       	sbc	r0, r16
     3f0:	00 25       	eor	r16, r0
     3f2:	75 00       	.word	0x0075	; ????
     3f4:	32 3a       	cpi	r19, 0xA2	; 162
     3f6:	20 69       	ori	r18, 0x90	; 144
     3f8:	6e 74       	andi	r22, 0x4E	; 78
     3fa:	65 72       	andi	r22, 0x25	; 37
     3fc:	76 61       	ori	r23, 0x16	; 22
     3fe:	6c 28       	or	r6, r12
     400:	6d 73       	andi	r22, 0x3D	; 61
     402:	29 3a       	cpi	r18, 0xA9	; 169
     404:	20 00       	.word	0x0020	; ????
     406:	0a 00       	.word	0x000a	; ????
     408:	25 75       	andi	r18, 0x55	; 85
     40a:	00 31       	cpi	r16, 0x10	; 16
     40c:	3a 20       	and	r3, r10
     40e:	64 65       	ori	r22, 0x54	; 84
     410:	6c 61       	ori	r22, 0x1C	; 28
     412:	79 28       	or	r7, r9
     414:	2a 31       	cpi	r18, 0x1A	; 26
     416:	30 6d       	ori	r19, 0xD0	; 208
     418:	73 29       	or	r23, r3
     41a:	3a 20       	and	r3, r10
     41c:	00 0a       	sbc	r0, r16
     41e:	09 2d       	mov	r16, r9
     420:	20 56       	subi	r18, 0x60	; 96
     422:	61 6c       	ori	r22, 0xC1	; 193
     424:	75 65       	ori	r23, 0x55	; 85
     426:	73 20       	and	r7, r3
     428:	2d 0a       	sbc	r2, r29
     42a:	00 4d       	sbci	r16, 0xD0	; 208
     42c:	3e 00       	.word	0x003e	; ????
     42e:	4d 25       	eor	r20, r13
     430:	64 3e       	cpi	r22, 0xE4	; 228
     432:	20 00       	.word	0x0020	; ????
     434:	3f 00       	.word	0x003f	; ????
     436:	73 65       	ori	r23, 0x53	; 83
     438:	74 20       	and	r7, r4
     43a:	64 65       	ori	r22, 0x54	; 84
     43c:	66 61       	ori	r22, 0x16	; 22
     43e:	75 6c       	ori	r23, 0xC5	; 197
     440:	74 0a       	sbc	r7, r20
     442:	00 43       	sbci	r16, 0x30	; 48
     444:	3e 20       	and	r3, r14
     446:	00 77       	andi	r16, 0x70	; 112
     448:	68 65       	ori	r22, 0x58	; 88
     44a:	72 65       	ori	r23, 0x52	; 82
     44c:	20 64       	ori	r18, 0x40	; 64
     44e:	65 6c       	ori	r22, 0xC5	; 197
     450:	74 61       	ori	r23, 0x14	; 20
     452:	3a 20       	and	r3, r10
     454:	63 75       	andi	r22, 0x53	; 83
     456:	72 73       	andi	r23, 0x32	; 50
     458:	6f 72       	andi	r22, 0x2F	; 47
     45a:	3d 25       	eor	r19, r13
     45c:	64 2c       	mov	r6, r4
     45e:	20 77       	andi	r18, 0x70	; 112
     460:	68 65       	ori	r22, 0x58	; 88
     462:	65 6c       	ori	r22, 0xC5	; 197
     464:	3d 25       	eor	r19, r13
     466:	64 0a       	sbc	r6, r20
     468:	53 65       	ori	r21, 0x53	; 83
     46a:	65 20       	and	r6, r5
     46c:	68 74       	andi	r22, 0x48	; 72
     46e:	74 70       	andi	r23, 0x04	; 4
     470:	3a 2f       	mov	r19, r26
     472:	2f 65       	ori	r18, 0x5F	; 95
     474:	6e 2e       	mov	r6, r30
     476:	77 69       	ori	r23, 0x97	; 151
     478:	6b 69       	ori	r22, 0x9B	; 155
     47a:	70 65       	ori	r23, 0x50	; 80
     47c:	64 69       	ori	r22, 0x94	; 148
     47e:	61 2e       	mov	r6, r17
     480:	6f 72       	andi	r22, 0x2F	; 47
     482:	67 2f       	mov	r22, r23
     484:	77 69       	ori	r23, 0x97	; 151
     486:	6b 69       	ori	r22, 0x9B	; 155
     488:	2f 4d       	sbci	r18, 0xDF	; 223
     48a:	6f 75       	andi	r22, 0x5F	; 95
     48c:	73 65       	ori	r23, 0x53	; 83
     48e:	5f 6b       	ori	r21, 0xBF	; 191
     490:	65 79       	andi	r22, 0x95	; 149
     492:	73 0a       	sbc	r7, r19
     494:	00 0a       	sbc	r0, r16
     496:	09 2d       	mov	r16, r9
     498:	20 4d       	sbci	r18, 0xD0	; 208
     49a:	6f 75       	andi	r22, 0x5F	; 95
     49c:	73 65       	ori	r23, 0x53	; 83
     49e:	6b 65       	ori	r22, 0x5B	; 91
     4a0:	79 20       	and	r7, r9
     4a2:	2d 0a       	sbc	r2, r29
     4a4:	45 53       	subi	r20, 0x35	; 53
     4a6:	43 2f       	mov	r20, r19
     4a8:	71 3a       	cpi	r23, 0xA1	; 161
     4aa:	09 71       	andi	r16, 0x19	; 25
     4ac:	75 69       	ori	r23, 0x95	; 149
     4ae:	74 0a       	sbc	r7, r20
     4b0:	31 3a       	cpi	r19, 0xA1	; 161
     4b2:	09 64       	ori	r16, 0x49	; 73
     4b4:	65 6c       	ori	r22, 0xC5	; 197
     4b6:	61 79       	andi	r22, 0x91	; 145
     4b8:	28 2a       	or	r2, r24
     4ba:	31 30       	cpi	r19, 0x01	; 1
     4bc:	6d 73       	andi	r22, 0x3D	; 61
     4be:	29 0a       	sbc	r2, r25
     4c0:	32 3a       	cpi	r19, 0xA2	; 162
     4c2:	09 69       	ori	r16, 0x99	; 153
     4c4:	6e 74       	andi	r22, 0x4E	; 78
     4c6:	65 72       	andi	r22, 0x25	; 37
     4c8:	76 61       	ori	r23, 0x16	; 22
     4ca:	6c 28       	or	r6, r12
     4cc:	6d 73       	andi	r22, 0x3D	; 61
     4ce:	29 0a       	sbc	r2, r25
     4d0:	33 3a       	cpi	r19, 0xA3	; 163
     4d2:	09 6d       	ori	r16, 0xD9	; 217
     4d4:	61 78       	andi	r22, 0x81	; 129
     4d6:	5f 73       	andi	r21, 0x3F	; 63
     4d8:	70 65       	ori	r23, 0x50	; 80
     4da:	65 64       	ori	r22, 0x45	; 69
     4dc:	0a 34       	cpi	r16, 0x4A	; 74
     4de:	3a 09       	sbc	r19, r10
     4e0:	74 69       	ori	r23, 0x94	; 148
     4e2:	6d 65       	ori	r22, 0x5D	; 93
     4e4:	5f 74       	andi	r21, 0x4F	; 79
     4e6:	6f 5f       	subi	r22, 0xFF	; 255
     4e8:	6d 61       	ori	r22, 0x1D	; 29
     4ea:	78 0a       	sbc	r7, r24
     4ec:	35 3a       	cpi	r19, 0xA5	; 165
     4ee:	09 77       	andi	r16, 0x79	; 121
     4f0:	68 65       	ori	r22, 0x58	; 88
     4f2:	65 6c       	ori	r22, 0xC5	; 197
     4f4:	5f 6d       	ori	r21, 0xDF	; 223
     4f6:	61 78       	andi	r22, 0x81	; 129
     4f8:	5f 73       	andi	r21, 0x3F	; 63
     4fa:	70 65       	ori	r23, 0x50	; 80
     4fc:	65 64       	ori	r22, 0x45	; 69
     4fe:	0a 36       	cpi	r16, 0x6A	; 106
     500:	3a 09       	sbc	r19, r10
     502:	77 68       	ori	r23, 0x87	; 135
     504:	65 65       	ori	r22, 0x55	; 85
     506:	6c 5f       	subi	r22, 0xFC	; 252
     508:	74 69       	ori	r23, 0x94	; 148
     50a:	6d 65       	ori	r22, 0x5D	; 93
     50c:	5f 74       	andi	r21, 0x4F	; 79
     50e:	6f 5f       	subi	r22, 0xFF	; 255
     510:	6d 61       	ori	r22, 0x1D	; 29
     512:	78 0a       	sbc	r7, r24
     514:	0a 70       	andi	r16, 0x0A	; 10
     516:	3a 09       	sbc	r19, r10
     518:	70 72       	andi	r23, 0x20	; 32
     51a:	69 6e       	ori	r22, 0xE9	; 233
     51c:	74 20       	and	r7, r4
     51e:	76 61       	ori	r23, 0x16	; 22
     520:	6c 75       	andi	r22, 0x5C	; 92
     522:	65 73       	andi	r22, 0x35	; 53
     524:	0a 64       	ori	r16, 0x4A	; 74
     526:	3a 09       	sbc	r19, r10
     528:	73 65       	ori	r23, 0x53	; 83
     52a:	74 20       	and	r7, r4
     52c:	64 65       	ori	r22, 0x54	; 84
     52e:	66 61       	ori	r22, 0x16	; 22
     530:	75 6c       	ori	r23, 0xC5	; 197
     532:	74 73       	andi	r23, 0x34	; 52
     534:	0a 75       	andi	r16, 0x5A	; 90
     536:	70 3a       	cpi	r23, 0xA0	; 160
     538:	09 2b       	or	r16, r25
     53a:	31 0a       	sbc	r3, r17
     53c:	64 6f       	ori	r22, 0xF4	; 244
     53e:	77 6e       	ori	r23, 0xE7	; 231
     540:	3a 09       	sbc	r19, r10
     542:	2d 31       	cpi	r18, 0x1D	; 29
     544:	0a 70       	andi	r16, 0x0A	; 10
     546:	67 75       	andi	r22, 0x57	; 87
     548:	70 3a       	cpi	r23, 0xA0	; 160
     54a:	09 2b       	or	r16, r25
     54c:	31 30       	cpi	r19, 0x01	; 1
     54e:	0a 70       	andi	r16, 0x0A	; 10
     550:	67 64       	ori	r22, 0x47	; 71
     552:	6f 77       	andi	r22, 0x7F	; 127
     554:	6e 3a       	cpi	r22, 0xAE	; 174
     556:	09 2d       	mov	r16, r9
     558:	31 30       	cpi	r19, 0x01	; 1
     55a:	0a 0a       	sbc	r0, r26
     55c:	73 70       	andi	r23, 0x03	; 3
     55e:	65 65       	ori	r22, 0x55	; 85
     560:	64 20       	and	r6, r4
     562:	3d 20       	and	r3, r13
     564:	64 65       	ori	r22, 0x54	; 84
     566:	6c 74       	andi	r22, 0x4C	; 76
     568:	61 20       	and	r6, r1
     56a:	2a 20       	and	r2, r10
     56c:	6d 61       	ori	r22, 0x1D	; 29
     56e:	78 5f       	subi	r23, 0xF8	; 248
     570:	73 70       	andi	r23, 0x03	; 3
     572:	65 65       	ori	r22, 0x55	; 85
     574:	64 20       	and	r6, r4
     576:	2a 20       	and	r2, r10
     578:	28 72       	andi	r18, 0x28	; 40
     57a:	65 70       	andi	r22, 0x05	; 5
     57c:	65 61       	ori	r22, 0x15	; 21
     57e:	74 20       	and	r7, r4
     580:	2f 20       	and	r2, r15
     582:	74 69       	ori	r23, 0x94	; 148
     584:	6d 65       	ori	r22, 0x5D	; 93
     586:	5f 74       	andi	r21, 0x4F	; 79
     588:	6f 5f       	subi	r22, 0xFF	; 255
     58a:	6d 61       	ori	r22, 0x1D	; 29
     58c:	78 29       	or	r23, r8
     58e:	0a 00       	.word	0x000a	; ????
     590:	3f 00       	.word	0x003f	; ????
     592:	4d 3e       	cpi	r20, 0xED	; 237
     594:	20 00       	.word	0x0020	; ????
     596:	43 3e       	cpi	r20, 0xE3	; 227
     598:	20 00       	.word	0x0020	; ????
     59a:	4c 25       	eor	r20, r12
     59c:	64 0a       	sbc	r6, r20
     59e:	00 74       	andi	r16, 0x40	; 64
     5a0:	69 6d       	ori	r22, 0xD9	; 217
     5a2:	65 72       	andi	r22, 0x25	; 37
     5a4:	5f 72       	andi	r21, 0x2F	; 47
     5a6:	65 61       	ori	r22, 0x15	; 21
     5a8:	64 33       	cpi	r22, 0x34	; 52
     5aa:	32 28       	or	r3, r2
     5ac:	29 3a       	cpi	r18, 0xA9	; 169
     5ae:	20 25       	eor	r18, r0
     5b0:	30 34       	cpi	r19, 0x40	; 64
     5b2:	6c 58       	subi	r22, 0x8C	; 140
     5b4:	0a 00       	.word	0x000a	; ????
     5b6:	6b 65       	ori	r22, 0x5B	; 91
     5b8:	79 62       	ori	r23, 0x29	; 41
     5ba:	6f 61       	ori	r22, 0x1F	; 31
     5bc:	72 64       	ori	r23, 0x42	; 66
     5be:	5f 69       	ori	r21, 0x9F	; 159
     5c0:	64 6c       	ori	r22, 0xC4	; 196
     5c2:	65 3a       	cpi	r22, 0xA5	; 165
     5c4:	20 25       	eor	r18, r0
     5c6:	58 0a       	sbc	r5, r24
     5c8:	00 6b       	ori	r16, 0xB0	; 176
     5ca:	65 79       	andi	r22, 0x95	; 149
     5cc:	62 6f       	ori	r22, 0xF2	; 242
     5ce:	61 72       	andi	r22, 0x21	; 33
     5d0:	64 5f       	subi	r22, 0xF4	; 244
     5d2:	70 72       	andi	r23, 0x20	; 32
     5d4:	6f 74       	andi	r22, 0x4F	; 79
     5d6:	6f 63       	ori	r22, 0x3F	; 63
     5d8:	6f 6c       	ori	r22, 0xCF	; 207
     5da:	3a 20       	and	r3, r10
     5dc:	25 58       	subi	r18, 0x85	; 133
     5de:	0a 00       	.word	0x000a	; ????
     5e0:	68 6f       	ori	r22, 0xF8	; 248
     5e2:	73 74       	andi	r23, 0x43	; 67
     5e4:	5f 6b       	ori	r21, 0xBF	; 191
     5e6:	65 79       	andi	r22, 0x95	; 149
     5e8:	62 6f       	ori	r22, 0xF2	; 242
     5ea:	61 72       	andi	r22, 0x21	; 33
     5ec:	64 5f       	subi	r22, 0xF4	; 244
     5ee:	6c 65       	ori	r22, 0x5C	; 92
     5f0:	64 73       	andi	r22, 0x34	; 52
     5f2:	28 29       	or	r18, r8
     5f4:	3a 20       	and	r3, r10
     5f6:	25 58       	subi	r18, 0x85	; 133
     5f8:	0a 00       	.word	0x000a	; ????
     5fa:	0a 09       	sbc	r16, r10
     5fc:	2d 20       	and	r2, r13
     5fe:	53 74       	andi	r21, 0x43	; 67
     600:	61 74       	andi	r22, 0x41	; 65
     602:	75 73       	andi	r23, 0x35	; 53
     604:	20 2d       	mov	r18, r0
     606:	0a 00       	.word	0x000a	; ????
     608:	47 43       	sbci	r20, 0x37	; 55
     60a:	43 3a       	cpi	r20, 0xA3	; 163
     60c:	20 38       	cpi	r18, 0x80	; 128
     60e:	2e 34       	cpi	r18, 0x4E	; 78
     610:	2e 30       	cpi	r18, 0x0E	; 14
     612:	20 41       	sbci	r18, 0x10	; 16
     614:	56 52       	subi	r21, 0x26	; 38
     616:	2d 4c       	sbci	r18, 0xCD	; 205
     618:	49 42       	sbci	r20, 0x29	; 41
     61a:	43 3a       	cpi	r20, 0xA3	; 163
     61c:	20 32       	cpi	r18, 0x20	; 32
     61e:	2e 30       	cpi	r18, 0x0E	; 14
     620:	2e 30       	cpi	r18, 0x0E	; 14
     622:	20 41       	sbci	r18, 0x10	; 16
     624:	56 52       	subi	r21, 0x26	; 38
     626:	5f 41       	sbci	r21, 0x1F	; 31
     628:	52 43       	sbci	r21, 0x32	; 50
     62a:	48 3a       	cpi	r20, 0xA8	; 168
     62c:	20 61       	ori	r18, 0x10	; 16
     62e:	76 72       	andi	r23, 0x26	; 38
     630:	35 0a       	sbc	r3, r21
     632:	00 4f       	sbci	r16, 0xF0	; 240
     634:	50 54       	subi	r21, 0x40	; 64
     636:	49 4f       	sbci	r20, 0xF9	; 249
     638:	4e 53       	subi	r20, 0x3E	; 62
     63a:	3a 20       	and	r3, r10
     63c:	4c 55       	subi	r20, 0x5C	; 92
     63e:	46 41       	sbci	r20, 0x16	; 22
     640:	20 4d       	sbci	r18, 0xD0	; 208
     642:	4f 55       	subi	r20, 0x5F	; 95
     644:	53 45       	sbci	r21, 0x53	; 83
     646:	4b 45       	sbci	r20, 0x5B	; 91
     648:	59 20       	and	r5, r9
     64a:	45 58       	subi	r20, 0x85	; 133
     64c:	54 52       	subi	r21, 0x24	; 36
     64e:	41 4b       	sbci	r20, 0xB1	; 177
     650:	45 59       	subi	r20, 0x95	; 149
     652:	20 43       	sbci	r18, 0x30	; 48
     654:	4f 4e       	sbci	r20, 0xEF	; 239
     656:	53 4f       	sbci	r21, 0xF3	; 243
     658:	4c 45       	sbci	r20, 0x5C	; 92
     65a:	20 43       	sbci	r18, 0x30	; 48
     65c:	4f 4d       	sbci	r20, 0xDF	; 223
     65e:	4d 41       	sbci	r20, 0x1D	; 29
     660:	4e 44       	sbci	r20, 0x4E	; 78
     662:	20 34       	cpi	r18, 0x40	; 64
     664:	30 39       	cpi	r19, 0x90	; 144
     666:	36 0a       	sbc	r3, r22
     668:	00 42       	sbci	r16, 0x20	; 32
     66a:	55 49       	sbci	r21, 0x95	; 149
     66c:	4c 44       	sbci	r20, 0x4C	; 76
     66e:	3a 20       	and	r3, r10
     670:	22 30       	cpi	r18, 0x02	; 2
     672:	2e 39       	cpi	r18, 0x9E	; 158
     674:	2e 31       	cpi	r18, 0x1E	; 30
     676:	30 2d       	mov	r19, r0
     678:	34 31       	cpi	r19, 0x14	; 20
     67a:	2d 67       	ori	r18, 0x7D	; 125
     67c:	66 34       	cpi	r22, 0x46	; 70
     67e:	32 30       	cpi	r19, 0x02	; 2
     680:	37 34       	cpi	r19, 0x47	; 71
     682:	22 20       	and	r2, r2
     684:	28 31       	cpi	r18, 0x18	; 24
     686:	37 3a       	cpi	r19, 0xA7	; 167
     688:	30 37       	cpi	r19, 0x70	; 112
     68a:	3a 32       	cpi	r19, 0x2A	; 42
     68c:	30 20       	and	r3, r0
     68e:	53 65       	ori	r21, 0x53	; 83
     690:	70 20       	and	r7, r0
     692:	20 32       	cpi	r18, 0x20	; 32
     694:	20 32       	cpi	r18, 0x20	; 32
     696:	30 32       	cpi	r19, 0x20	; 32
     698:	30 29       	or	r19, r0
     69a:	0a 00       	.word	0x000a	; ????
     69c:	56 49       	sbci	r21, 0x96	; 150
     69e:	44 3a       	cpi	r20, 0xA4	; 164
     6a0:	20 30       	cpi	r18, 0x00	; 0
     6a2:	78 46       	sbci	r23, 0x68	; 104
     6a4:	45 45       	sbci	r20, 0x55	; 85
     6a6:	44 28       	or	r4, r4
     6a8:	4b 65       	ori	r20, 0x5B	; 91
     6aa:	79 48       	sbci	r23, 0x89	; 137
     6ac:	69 76       	andi	r22, 0x69	; 105
     6ae:	65 29       	or	r22, r5
     6b0:	20 50       	subi	r18, 0x00	; 0
     6b2:	49 44       	sbci	r20, 0x49	; 73
     6b4:	3a 20       	and	r3, r10
     6b6:	30 78       	andi	r19, 0x80	; 128
     6b8:	36 30       	cpi	r19, 0x06	; 6
     6ba:	36 30       	cpi	r19, 0x06	; 6
     6bc:	28 6d       	ori	r18, 0xD8	; 216
     6be:	61 79       	andi	r22, 0x91	; 145
     6c0:	70 61       	ori	r23, 0x10	; 16
     6c2:	64 29       	or	r22, r4
     6c4:	20 56       	subi	r18, 0x60	; 96
     6c6:	45 52       	subi	r20, 0x25	; 37
     6c8:	3a 20       	and	r3, r10
     6ca:	30 78       	andi	r19, 0x80	; 128
     6cc:	30 30       	cpi	r19, 0x00	; 0
     6ce:	30 31       	cpi	r19, 0x10	; 16
     6d0:	0a 00       	.word	0x000a	; ????
     6d2:	44 45       	sbci	r20, 0x54	; 84
     6d4:	53 43       	sbci	r21, 0x33	; 51
     6d6:	3a 20       	and	r3, r10
     6d8:	42 75       	andi	r20, 0x52	; 82
     6da:	64 67       	ori	r22, 0x74	; 116
     6dc:	65 74       	andi	r22, 0x45	; 69
     6de:	2d 66       	ori	r18, 0x6D	; 109
     6e0:	72 69       	ori	r23, 0x92	; 146
     6e2:	65 6e       	ori	r22, 0xE5	; 229
     6e4:	64 6c       	ori	r22, 0xC4	; 196
     6e6:	79 20       	and	r7, r9
     6e8:	6e 75       	andi	r22, 0x5E	; 94
     6ea:	6d 70       	andi	r22, 0x0D	; 13
     6ec:	61 64       	ori	r22, 0x41	; 65
     6ee:	0a 00       	.word	0x000a	; ????
     6f0:	0a 09       	sbc	r16, r10
     6f2:	2d 20       	and	r2, r13
     6f4:	56 65       	ori	r21, 0x56	; 86
     6f6:	72 73       	andi	r23, 0x32	; 50
     6f8:	69 6f       	ori	r22, 0xF9	; 249
     6fa:	6e 20       	and	r6, r14
     6fc:	2d 0a       	sbc	r2, r29
     6fe:	00 0a       	sbc	r0, r16
     700:	09 2d       	mov	r16, r9
     702:	20 43       	sbci	r18, 0x30	; 48
     704:	6f 6e       	ori	r22, 0xEF	; 239
     706:	73 6f       	ori	r23, 0xF3	; 243
     708:	6c 65       	ori	r22, 0x5C	; 92
     70a:	20 2d       	mov	r18, r0
     70c:	0a 45       	sbci	r16, 0x5A	; 90
     70e:	53 43       	sbci	r21, 0x33	; 51
     710:	2f 71       	andi	r18, 0x1F	; 31
     712:	3a 09       	sbc	r19, r10
     714:	71 75       	andi	r23, 0x51	; 81
     716:	69 74       	andi	r22, 0x49	; 73
     718:	0a 6d       	ori	r16, 0xDA	; 218
     71a:	3a 09       	sbc	r19, r10
     71c:	6d 6f       	ori	r22, 0xFD	; 253
     71e:	75 73       	andi	r23, 0x35	; 53
     720:	65 6b       	ori	r22, 0xB5	; 181
     722:	65 79       	andi	r22, 0x95	; 149
     724:	0a 00       	.word	0x000a	; ????
     726:	0a 09       	sbc	r16, r10
     728:	2d 20       	and	r2, r13
     72a:	4d 61       	ori	r20, 0x1D	; 29
     72c:	67 69       	ori	r22, 0x97	; 151
     72e:	63 20       	and	r6, r3
     730:	2d 0a       	sbc	r2, r29
     732:	44 3a       	cpi	r20, 0xA4	; 164
     734:	09 44       	sbci	r16, 0x49	; 73
     736:	65 62       	ori	r22, 0x25	; 37
     738:	75 67       	ori	r23, 0x75	; 117
     73a:	20 4d       	sbci	r18, 0xD0	; 208
     73c:	65 73       	andi	r22, 0x35	; 53
     73e:	73 61       	ori	r23, 0x13	; 19
     740:	67 65       	ori	r22, 0x57	; 87
     742:	20 54       	subi	r18, 0x40	; 64
     744:	6f 67       	ori	r22, 0x7F	; 127
     746:	67 6c       	ori	r22, 0xC7	; 199
     748:	65 0a       	sbc	r6, r21
     74a:	58 3a       	cpi	r21, 0xA8	; 168
     74c:	09 4d       	sbci	r16, 0xD9	; 217
     74e:	61 74       	andi	r22, 0x41	; 65
     750:	72 69       	ori	r23, 0x92	; 146
     752:	78 20       	and	r7, r8
     754:	44 65       	ori	r20, 0x54	; 84
     756:	62 75       	andi	r22, 0x52	; 82
     758:	67 20       	and	r6, r7
     75a:	4d 6f       	ori	r20, 0xFD	; 253
     75c:	64 65       	ori	r22, 0x54	; 84
     75e:	20 54       	subi	r18, 0x40	; 64
     760:	6f 67       	ori	r22, 0x7F	; 127
     762:	67 6c       	ori	r22, 0xC7	; 199
     764:	65 20       	and	r6, r5
     766:	2d 20       	and	r2, r13
     768:	53 68       	ori	r21, 0x83	; 131
     76a:	6f 77       	andi	r22, 0x7F	; 127
     76c:	20 6b       	ori	r18, 0xB0	; 176
     76e:	65 79       	andi	r22, 0x95	; 149
     770:	70 72       	andi	r23, 0x20	; 32
     772:	65 73       	andi	r22, 0x35	; 53
     774:	73 65       	ori	r23, 0x53	; 83
     776:	73 20       	and	r7, r3
     778:	69 6e       	ori	r22, 0xE9	; 233
     77a:	20 6d       	ori	r18, 0xD0	; 208
     77c:	61 74       	andi	r22, 0x41	; 65
     77e:	72 69       	ori	r23, 0x92	; 146
     780:	78 20       	and	r7, r8
     782:	67 72       	andi	r22, 0x27	; 39
     784:	69 64       	ori	r22, 0x49	; 73
     786:	0a 4b       	sbci	r16, 0xBA	; 186
     788:	3a 09       	sbc	r19, r10
     78a:	4b 65       	ori	r20, 0x5B	; 91
     78c:	79 62       	ori	r23, 0x29	; 41
     78e:	6f 61       	ori	r22, 0x1F	; 31
     790:	72 64       	ori	r23, 0x42	; 66
     792:	20 44       	sbci	r18, 0x40	; 64
     794:	65 62       	ori	r22, 0x25	; 37
     796:	75 67       	ori	r23, 0x75	; 117
     798:	20 54       	subi	r18, 0x40	; 64
     79a:	6f 67       	ori	r22, 0x7F	; 127
     79c:	67 6c       	ori	r22, 0xC7	; 199
     79e:	65 20       	and	r6, r5
     7a0:	2d 20       	and	r2, r13
     7a2:	53 68       	ori	r21, 0x83	; 131
     7a4:	6f 77       	andi	r22, 0x7F	; 127
     7a6:	20 6b       	ori	r18, 0xB0	; 176
     7a8:	65 79       	andi	r22, 0x95	; 149
     7aa:	70 72       	andi	r23, 0x20	; 32
     7ac:	65 73       	andi	r22, 0x35	; 53
     7ae:	73 20       	and	r7, r3
     7b0:	72 65       	ori	r23, 0x52	; 82
     7b2:	70 6f       	ori	r23, 0xF0	; 240
     7b4:	72 74       	andi	r23, 0x42	; 66
     7b6:	0a 4d       	sbci	r16, 0xDA	; 218
     7b8:	3a 09       	sbc	r19, r10
     7ba:	44 65       	ori	r20, 0x54	; 84
     7bc:	62 75       	andi	r22, 0x52	; 82
     7be:	67 20       	and	r6, r7
     7c0:	4d 6f       	ori	r20, 0xFD	; 253
     7c2:	75 73       	andi	r23, 0x35	; 53
     7c4:	65 20       	and	r6, r5
     7c6:	54 6f       	ori	r21, 0xF4	; 244
     7c8:	67 67       	ori	r22, 0x77	; 119
     7ca:	6c 65       	ori	r22, 0x5C	; 92
     7cc:	0a 56       	subi	r16, 0x6A	; 106
     7ce:	3a 09       	sbc	r19, r10
     7d0:	56 65       	ori	r21, 0x56	; 86
     7d2:	72 73       	andi	r23, 0x32	; 50
     7d4:	69 6f       	ori	r22, 0xF9	; 249
     7d6:	6e 0a       	sbc	r6, r30
     7d8:	53 3a       	cpi	r21, 0xA3	; 163
     7da:	09 53       	subi	r16, 0x39	; 57
     7dc:	74 61       	ori	r23, 0x14	; 20
     7de:	74 75       	andi	r23, 0x54	; 84
     7e0:	73 0a       	sbc	r7, r19
     7e2:	43 3a       	cpi	r20, 0xA3	; 163
     7e4:	09 41       	sbci	r16, 0x19	; 25
     7e6:	63 74       	andi	r22, 0x43	; 67
     7e8:	69 76       	andi	r22, 0x69	; 105
     7ea:	61 74       	andi	r22, 0x41	; 65
     7ec:	65 20       	and	r6, r5
     7ee:	43 6f       	ori	r20, 0xF3	; 243
     7f0:	6e 73       	andi	r22, 0x3E	; 62
     7f2:	6f 6c       	ori	r22, 0xCF	; 207
     7f4:	65 20       	and	r6, r5
     7f6:	4d 6f       	ori	r20, 0xFD	; 253
     7f8:	64 65       	ori	r22, 0x54	; 84
     7fa:	0a 46       	sbci	r16, 0x6A	; 106
     7fc:	31 2d       	mov	r19, r1
     7fe:	46 31       	cpi	r20, 0x16	; 22
     800:	30 3a       	cpi	r19, 0xA0	; 160
     802:	09 53       	subi	r16, 0x39	; 57
     804:	77 69       	ori	r23, 0x97	; 151
     806:	74 63       	ori	r23, 0x34	; 52
     808:	68 20       	and	r6, r8
     80a:	74 6f       	ori	r23, 0xF4	; 244
     80c:	20 4c       	sbci	r18, 0xC0	; 192
     80e:	61 79       	andi	r22, 0x91	; 145
     810:	65 72       	andi	r22, 0x25	; 37
     812:	20 30       	cpi	r18, 0x00	; 0
     814:	2d 39       	cpi	r18, 0x9D	; 157
     816:	20 28       	or	r2, r0
     818:	46 31       	cpi	r20, 0x16	; 22
     81a:	30 20       	and	r3, r0
     81c:	3d 20       	and	r3, r13
     81e:	4c 30       	cpi	r20, 0x0C	; 12
     820:	29 0a       	sbc	r2, r25
     822:	30 2d       	mov	r19, r0
     824:	39 3a       	cpi	r19, 0xA9	; 169
     826:	09 53       	subi	r16, 0x39	; 57
     828:	77 69       	ori	r23, 0x97	; 151
     82a:	74 63       	ori	r23, 0x34	; 52
     82c:	68 20       	and	r6, r8
     82e:	74 6f       	ori	r23, 0xF4	; 244
     830:	20 4c       	sbci	r18, 0xC0	; 192
     832:	61 79       	andi	r22, 0x91	; 145
     834:	65 72       	andi	r22, 0x25	; 37
     836:	20 30       	cpi	r18, 0x00	; 0
     838:	2d 39       	cpi	r18, 0x9D	; 157
     83a:	0a 47       	sbci	r16, 0x7A	; 122
     83c:	52 41       	sbci	r21, 0x12	; 18
     83e:	56 45       	sbci	r21, 0x56	; 86
     840:	3a 09       	sbc	r19, r10
     842:	53 77       	andi	r21, 0x73	; 115
     844:	69 74       	andi	r22, 0x49	; 73
     846:	63 68       	ori	r22, 0x83	; 131
     848:	20 74       	andi	r18, 0x40	; 64
     84a:	6f 20       	and	r6, r15
     84c:	4c 61       	ori	r20, 0x1C	; 28
     84e:	79 65       	ori	r23, 0x59	; 89
     850:	72 20       	and	r7, r2
     852:	30 20       	and	r3, r0
     854:	28 61       	ori	r18, 0x18	; 24
     856:	6c 74       	andi	r22, 0x4C	; 76
     858:	65 72       	andi	r22, 0x25	; 37
     85a:	6e 61       	ori	r22, 0x1E	; 30
     85c:	74 65       	ori	r23, 0x54	; 84
     85e:	29 0a       	sbc	r2, r25
     860:	42 3a       	cpi	r20, 0xA2	; 162
     862:	09 4a       	sbci	r16, 0xA9	; 169
     864:	75 6d       	ori	r23, 0xD5	; 213
     866:	70 20       	and	r7, r0
     868:	74 6f       	ori	r23, 0xF4	; 244
     86a:	20 42       	sbci	r18, 0x20	; 32
     86c:	6f 6f       	ori	r22, 0xFF	; 255
     86e:	74 6c       	ori	r23, 0xC4	; 196
     870:	6f 61       	ori	r22, 0x1F	; 31
     872:	64 65       	ori	r22, 0x54	; 84
     874:	72 0a       	sbc	r7, r18
     876:	45 53       	subi	r20, 0x35	; 53
     878:	43 3a       	cpi	r20, 0xA3	; 163
     87a:	09 4a       	sbci	r16, 0xA9	; 169
     87c:	75 6d       	ori	r23, 0xD5	; 213
     87e:	70 20       	and	r7, r0
     880:	74 6f       	ori	r23, 0xF4	; 244
     882:	20 42       	sbci	r18, 0x20	; 32
     884:	6f 6f       	ori	r22, 0xFF	; 255
     886:	74 6c       	ori	r23, 0xC4	; 196
     888:	6f 61       	ori	r22, 0x1F	; 31
     88a:	64 65       	ori	r22, 0x54	; 84
     88c:	72 20       	and	r7, r2
     88e:	28 61       	ori	r18, 0x18	; 24
     890:	6c 74       	andi	r22, 0x4C	; 76
     892:	65 72       	andi	r22, 0x25	; 37
     894:	6e 61       	ori	r22, 0x1E	; 30
     896:	74 65       	ori	r23, 0x54	; 84
     898:	29 0a       	sbc	r2, r25
     89a:	45 3a       	cpi	r20, 0xA5	; 165
     89c:	09 50       	subi	r16, 0x09	; 9
     89e:	72 69       	ori	r23, 0x92	; 146
     8a0:	6e 74       	andi	r22, 0x4E	; 78
     8a2:	20 45       	sbci	r18, 0x50	; 80
     8a4:	45 50       	subi	r20, 0x05	; 5
     8a6:	52 4f       	sbci	r21, 0xF2	; 242
     8a8:	4d 20       	and	r4, r13
     8aa:	53 65       	ori	r21, 0x53	; 83
     8ac:	74 74       	andi	r23, 0x44	; 68
     8ae:	69 6e       	ori	r22, 0xE9	; 233
     8b0:	67 73       	andi	r22, 0x37	; 55
     8b2:	0a 42       	sbci	r16, 0x2A	; 42
     8b4:	53 50       	subi	r21, 0x03	; 3
     8b6:	41 43       	sbci	r20, 0x31	; 49
     8b8:	45 3a       	cpi	r20, 0xA5	; 165
     8ba:	09 43       	sbci	r16, 0x39	; 57
     8bc:	6c 65       	ori	r22, 0x5C	; 92
     8be:	61 72       	andi	r22, 0x21	; 33
     8c0:	20 45       	sbci	r18, 0x50	; 80
     8c2:	45 50       	subi	r20, 0x05	; 5
     8c4:	52 4f       	sbci	r21, 0xF2	; 242
     8c6:	4d 0a       	sbc	r4, r29
     8c8:	00 0a       	sbc	r0, r16
     8ca:	00 25       	eor	r16, r0
     8cc:	75 00       	.word	0x0075	; ????
     8ce:	2e 6e       	ori	r18, 0xEE	; 238
     8d0:	6b 72       	andi	r22, 0x2B	; 43
     8d2:	6f 3a       	cpi	r22, 0xAF	; 175
     8d4:	20 00       	.word	0x0020	; ????
     8d6:	0a 00       	.word	0x000a	; ????
     8d8:	25 75       	andi	r18, 0x55	; 85
     8da:	00 2e       	mov	r0, r16
     8dc:	73 77       	andi	r23, 0x73	; 115
     8de:	61 70       	andi	r22, 0x01	; 1
     8e0:	5f 62       	ori	r21, 0x2F	; 47
     8e2:	61 63       	ori	r22, 0x31	; 49
     8e4:	6b 73       	andi	r22, 0x3B	; 59
     8e6:	6c 61       	ori	r22, 0x1C	; 28
     8e8:	73 68       	ori	r23, 0x83	; 131
     8ea:	5f 62       	ori	r21, 0x2F	; 47
     8ec:	61 63       	ori	r22, 0x31	; 49
     8ee:	6b 73       	andi	r22, 0x3B	; 59
     8f0:	70 61       	ori	r23, 0x10	; 16
     8f2:	63 65       	ori	r22, 0x53	; 83
     8f4:	3a 20       	and	r3, r10
     8f6:	00 0a       	sbc	r0, r16
     8f8:	00 25       	eor	r16, r0
     8fa:	75 00       	.word	0x0075	; ????
     8fc:	2e 73       	andi	r18, 0x3E	; 62
     8fe:	77 61       	ori	r23, 0x17	; 23
     900:	70 5f       	subi	r23, 0xF0	; 240
     902:	67 72       	andi	r22, 0x27	; 39
     904:	61 76       	andi	r22, 0x61	; 97
     906:	65 5f       	subi	r22, 0xF5	; 245
     908:	65 73       	andi	r22, 0x35	; 53
     90a:	63 3a       	cpi	r22, 0xA3	; 163
     90c:	20 00       	.word	0x0020	; ????
     90e:	0a 00       	.word	0x000a	; ????
     910:	25 75       	andi	r18, 0x55	; 85
     912:	00 2e       	mov	r0, r16
     914:	6e 6f       	ori	r22, 0xFE	; 254
     916:	5f 67       	ori	r21, 0x7F	; 127
     918:	75 69       	ori	r23, 0x95	; 149
     91a:	3a 20       	and	r3, r10
     91c:	00 0a       	sbc	r0, r16
     91e:	00 25       	eor	r16, r0
     920:	75 00       	.word	0x0075	; ????
     922:	2e 73       	andi	r18, 0x3E	; 62
     924:	77 61       	ori	r23, 0x17	; 23
     926:	70 5f       	subi	r23, 0xF0	; 240
     928:	72 61       	ori	r23, 0x12	; 18
     92a:	6c 74       	andi	r22, 0x4C	; 76
     92c:	5f 72       	andi	r21, 0x2F	; 47
     92e:	67 75       	andi	r22, 0x57	; 87
     930:	69 3a       	cpi	r22, 0xA9	; 169
     932:	20 00       	.word	0x0020	; ????
     934:	0a 00       	.word	0x000a	; ????
     936:	25 75       	andi	r18, 0x55	; 85
     938:	00 2e       	mov	r0, r16
     93a:	73 77       	andi	r23, 0x73	; 115
     93c:	61 70       	andi	r22, 0x01	; 1
     93e:	5f 6c       	ori	r21, 0xCF	; 207
     940:	61 6c       	ori	r22, 0xC1	; 193
     942:	74 5f       	subi	r23, 0xF4	; 244
     944:	6c 67       	ori	r22, 0x7C	; 124
     946:	75 69       	ori	r23, 0x95	; 149
     948:	3a 20       	and	r3, r10
     94a:	00 0a       	sbc	r0, r16
     94c:	00 25       	eor	r16, r0
     94e:	75 00       	.word	0x0075	; ????
     950:	2e 73       	andi	r18, 0x3E	; 62
     952:	77 61       	ori	r23, 0x17	; 23
     954:	70 5f       	subi	r23, 0xF0	; 240
     956:	72 63       	ori	r23, 0x32	; 50
     958:	74 6c       	ori	r23, 0xC4	; 196
     95a:	5f 72       	andi	r21, 0x2F	; 47
     95c:	67 75       	andi	r22, 0x57	; 87
     95e:	69 3a       	cpi	r22, 0xA9	; 169
     960:	20 00       	.word	0x0020	; ????
     962:	0a 00       	.word	0x000a	; ????
     964:	25 75       	andi	r18, 0x55	; 85
     966:	00 2e       	mov	r0, r16
     968:	73 77       	andi	r23, 0x73	; 115
     96a:	61 70       	andi	r22, 0x01	; 1
     96c:	5f 6c       	ori	r21, 0xCF	; 207
     96e:	63 74       	andi	r22, 0x43	; 67
     970:	6c 5f       	subi	r22, 0xFC	; 252
     972:	6c 67       	ori	r22, 0x7C	; 124
     974:	75 69       	ori	r23, 0x95	; 149
     976:	3a 20       	and	r3, r10
     978:	00 0a       	sbc	r0, r16
     97a:	00 25       	eor	r16, r0
     97c:	75 00       	.word	0x0075	; ????
     97e:	2e 63       	ori	r18, 0x3E	; 62
     980:	61 70       	andi	r22, 0x01	; 1
     982:	73 6c       	ori	r23, 0xC3	; 195
     984:	6f 63       	ori	r22, 0x3F	; 63
     986:	6b 5f       	subi	r22, 0xFB	; 251
     988:	74 6f       	ori	r23, 0xF4	; 244
     98a:	5f 63       	ori	r21, 0x3F	; 63
     98c:	6f 6e       	ori	r22, 0xEF	; 239
     98e:	74 72       	andi	r23, 0x24	; 36
     990:	6f 6c       	ori	r22, 0xCF	; 207
     992:	3a 20       	and	r3, r10
     994:	00 0a       	sbc	r0, r16
     996:	00 25       	eor	r16, r0
     998:	75 00       	.word	0x0075	; ????
     99a:	2e 73       	andi	r18, 0x3E	; 62
     99c:	77 61       	ori	r23, 0x17	; 23
     99e:	70 5f       	subi	r23, 0xF0	; 240
     9a0:	63 6f       	ori	r22, 0xF3	; 243
     9a2:	6e 74       	andi	r22, 0x4E	; 78
     9a4:	72 6f       	ori	r23, 0xF2	; 242
     9a6:	6c 5f       	subi	r22, 0xFC	; 252
     9a8:	63 61       	ori	r22, 0x13	; 19
     9aa:	70 73       	andi	r23, 0x30	; 48
     9ac:	6c 6f       	ori	r22, 0xFC	; 252
     9ae:	63 6b       	ori	r22, 0xB3	; 179
     9b0:	3a 20       	and	r3, r10
     9b2:	00 0a       	sbc	r0, r16
     9b4:	00 25       	eor	r16, r0
     9b6:	30 32       	cpi	r19, 0x20	; 32
     9b8:	58 00       	.word	0x0058	; ????
     9ba:	6b 65       	ori	r22, 0x5B	; 91
     9bc:	79 6d       	ori	r23, 0xD9	; 217
     9be:	61 70       	andi	r22, 0x01	; 1
     9c0:	5f 63       	ori	r21, 0x3F	; 63
     9c2:	6f 6e       	ori	r22, 0xEF	; 239
     9c4:	66 69       	ori	r22, 0x96	; 150
     9c6:	67 2e       	mov	r6, r23
     9c8:	72 61       	ori	r23, 0x12	; 18
     9ca:	77 3a       	cpi	r23, 0xA7	; 167
     9cc:	20 00       	.word	0x0020	; ????
     9ce:	0a 00       	.word	0x000a	; ????
     9d0:	25 75       	andi	r18, 0x55	; 85
     9d2:	00 2e       	mov	r0, r16
     9d4:	6d 6f       	ori	r22, 0xFD	; 253
     9d6:	75 73       	andi	r23, 0x35	; 53
     9d8:	65 3a       	cpi	r22, 0xA5	; 165
     9da:	20 00       	.word	0x0020	; ????
     9dc:	0a 00       	.word	0x000a	; ????
     9de:	25 75       	andi	r18, 0x55	; 85
     9e0:	00 2e       	mov	r0, r16
     9e2:	6b 65       	ori	r22, 0x5B	; 91
     9e4:	79 62       	ori	r23, 0x29	; 41
     9e6:	6f 61       	ori	r22, 0x1F	; 31
     9e8:	72 64       	ori	r23, 0x42	; 66
     9ea:	3a 20       	and	r3, r10
     9ec:	00 0a       	sbc	r0, r16
     9ee:	00 25       	eor	r16, r0
     9f0:	75 00       	.word	0x0075	; ????
     9f2:	2e 6d       	ori	r18, 0xDE	; 222
     9f4:	61 74       	andi	r22, 0x41	; 65
     9f6:	72 69       	ori	r23, 0x92	; 146
     9f8:	78 3a       	cpi	r23, 0xA8	; 168
     9fa:	20 00       	.word	0x0020	; ????
     9fc:	0a 00       	.word	0x000a	; ????
     9fe:	25 75       	andi	r18, 0x55	; 85
     a00:	00 2e       	mov	r0, r16
     a02:	65 6e       	ori	r22, 0xE5	; 229
     a04:	61 62       	ori	r22, 0x21	; 33
     a06:	6c 65       	ori	r22, 0x5C	; 92
     a08:	3a 20       	and	r3, r10
     a0a:	00 0a       	sbc	r0, r16
     a0c:	00 25       	eor	r16, r0
     a0e:	30 32       	cpi	r19, 0x20	; 32
     a10:	58 00       	.word	0x0058	; ????
     a12:	64 65       	ori	r22, 0x54	; 84
     a14:	62 75       	andi	r22, 0x52	; 82
     a16:	67 5f       	subi	r22, 0xF7	; 247
     a18:	63 6f       	ori	r22, 0xF3	; 243
     a1a:	6e 66       	ori	r22, 0x6E	; 110
     a1c:	69 67       	ori	r22, 0x79	; 121
     a1e:	2e 72       	andi	r18, 0x2E	; 46
     a20:	61 77       	andi	r22, 0x71	; 113
     a22:	3a 20       	and	r3, r10
     a24:	00 0a       	sbc	r0, r16
     a26:	00 25       	eor	r16, r0
     a28:	75 00       	.word	0x0075	; ????
     a2a:	64 65       	ori	r22, 0x54	; 84
     a2c:	66 61       	ori	r22, 0x16	; 22
     a2e:	75 6c       	ori	r23, 0xC5	; 197
     a30:	74 5f       	subi	r23, 0xF4	; 244
     a32:	6c 61       	ori	r22, 0x1C	; 28
     a34:	79 65       	ori	r23, 0x59	; 89
     a36:	72 3a       	cpi	r23, 0xA2	; 162
     a38:	20 00       	.word	0x0020	; ????
     a3a:	3f 00       	.word	0x003f	; ????
     a3c:	0a 6d       	ori	r16, 0xDA	; 218
     a3e:	6f 75       	andi	r22, 0x5F	; 95
     a40:	73 65       	ori	r23, 0x53	; 83
     a42:	3a 20       	and	r3, r10
     a44:	6f 66       	ori	r22, 0x6F	; 111
     a46:	66 0a       	sbc	r6, r22
     a48:	00 0a       	sbc	r0, r16
     a4a:	6d 6f       	ori	r22, 0xFD	; 253
     a4c:	75 73       	andi	r23, 0x35	; 53
     a4e:	65 3a       	cpi	r22, 0xA5	; 165
     a50:	20 6f       	ori	r18, 0xF0	; 240
     a52:	6e 0a       	sbc	r6, r30
     a54:	00 0a       	sbc	r0, r16
     a56:	6b 65       	ori	r22, 0x5B	; 91
     a58:	79 62       	ori	r23, 0x29	; 41
     a5a:	6f 61       	ori	r22, 0x1F	; 31
     a5c:	72 64       	ori	r23, 0x42	; 66
     a5e:	3a 20       	and	r3, r10
     a60:	6f 66       	ori	r22, 0x6F	; 111
     a62:	66 0a       	sbc	r6, r22
     a64:	00 0a       	sbc	r0, r16
     a66:	6b 65       	ori	r22, 0x5B	; 91
     a68:	79 62       	ori	r23, 0x29	; 41
     a6a:	6f 61       	ori	r22, 0x1F	; 31
     a6c:	72 64       	ori	r23, 0x42	; 66
     a6e:	3a 20       	and	r3, r10
     a70:	6f 6e       	ori	r22, 0xEF	; 239
     a72:	0a 00       	.word	0x000a	; ????
     a74:	0a 6d       	ori	r16, 0xDA	; 218
     a76:	61 74       	andi	r22, 0x41	; 65
     a78:	72 69       	ori	r23, 0x92	; 146
     a7a:	78 3a       	cpi	r23, 0xA8	; 168
     a7c:	20 6f       	ori	r18, 0xF0	; 240
     a7e:	66 66       	ori	r22, 0x66	; 102
     a80:	0a 00       	.word	0x000a	; ????
     a82:	0a 6d       	ori	r16, 0xDA	; 218
     a84:	61 74       	andi	r22, 0x41	; 65
     a86:	72 69       	ori	r23, 0x92	; 146
     a88:	78 3a       	cpi	r23, 0xA8	; 168
     a8a:	20 6f       	ori	r18, 0xF0	; 240
     a8c:	6e 0a       	sbc	r6, r30
     a8e:	00 0a       	sbc	r0, r16
     a90:	64 65       	ori	r22, 0x54	; 84
     a92:	62 75       	andi	r22, 0x52	; 82
     a94:	67 3a       	cpi	r22, 0xA7	; 167
     a96:	20 6f       	ori	r18, 0xF0	; 240
     a98:	66 66       	ori	r22, 0x66	; 102
     a9a:	0a 00       	.word	0x000a	; ????
     a9c:	0a 64       	ori	r16, 0x4A	; 74
     a9e:	65 62       	ori	r22, 0x25	; 37
     aa0:	75 67       	ori	r23, 0x75	; 117
     aa2:	3a 20       	and	r3, r10
     aa4:	6f 6e       	ori	r22, 0xEF	; 239
     aa6:	0a 00       	.word	0x000a	; ????
     aa8:	0a 0a       	sbc	r0, r26
     aaa:	4a 75       	andi	r20, 0x5A	; 90
     aac:	6d 70       	andi	r22, 0x0D	; 13
     aae:	69 6e       	ori	r22, 0xE9	; 233
     ab0:	67 20       	and	r6, r7
     ab2:	74 6f       	ori	r23, 0xF4	; 244
     ab4:	20 62       	ori	r18, 0x20	; 32
     ab6:	6f 6f       	ori	r22, 0xFF	; 255
     ab8:	74 6c       	ori	r23, 0xC4	; 196
     aba:	6f 61       	ori	r22, 0x1F	; 31
     abc:	64 65       	ori	r22, 0x54	; 84
     abe:	72 2e       	mov	r7, r18
     ac0:	2e 2e       	mov	r2, r30
     ac2:	20 00       	.word	0x0020	; ????
     ac4:	43 3e       	cpi	r20, 0xE3	; 227
     ac6:	20 00       	.word	0x0020	; ????
     ac8:	43 6c       	ori	r20, 0xC3	; 195
     aca:	65 61       	ori	r22, 0x15	; 21
     acc:	72 69       	ori	r23, 0x92	; 146
     ace:	6e 67       	ori	r22, 0x7E	; 126
     ad0:	20 45       	sbci	r18, 0x50	; 80
     ad2:	45 50       	subi	r20, 0x05	; 5
     ad4:	52 4f       	sbci	r21, 0xF2	; 242
     ad6:	4d 0a       	sbc	r4, r29
     ad8:	00 65       	ori	r16, 0x50	; 80
     ada:	65 63       	ori	r22, 0x35	; 53
     adc:	6f 6e       	ori	r22, 0xEF	; 239
     ade:	66 69       	ori	r22, 0x96	; 150
     ae0:	67 3a       	cpi	r22, 0xA7	; 167
     ae2:	0a 00       	.word	0x000a	; ????
     ae4:	5b 73       	andi	r21, 0x3B	; 59
     ae6:	5d 00       	.word	0x005d	; ????
     ae8:	4b 65       	ori	r20, 0x5B	; 91
     aea:	79 62       	ori	r23, 0x29	; 41
     aec:	6f 61       	ori	r22, 0x1F	; 31
     aee:	72 64       	ori	r23, 0x42	; 66
     af0:	20 73       	andi	r18, 0x30	; 48
     af2:	74 61       	ori	r23, 0x14	; 20
     af4:	72 74       	andi	r23, 0x42	; 66
     af6:	2e 0a       	sbc	r2, r30
     af8:	00 5b       	subi	r16, 0xB0	; 176
     afa:	57 5d       	subi	r21, 0xD7	; 215
     afc:	00 5b       	subi	r16, 0xB0	; 176
     afe:	53 5d       	subi	r21, 0xD3	; 211
     b00:	00 5b       	subi	r16, 0xB0	; 176
     b02:	52 5d       	subi	r21, 0xD2	; 210
     b04:	00 5b       	subi	r16, 0xB0	; 176
     b06:	44 5d       	subi	r20, 0xD4	; 212
     b08:	00 5b       	subi	r16, 0xB0	; 176
     b0a:	43 5d       	subi	r20, 0xD3	; 211
     b0c:	00 04       	cpc	r0, r0
     b0e:	03 30       	cpi	r16, 0x03	; 3
     b10:	00 00       	nop
     b12:	00 0e       	add	r0, r16
     b14:	03 6d       	ori	r16, 0xD3	; 211
     b16:	00 61       	ori	r16, 0x10	; 16
     b18:	00 79       	andi	r16, 0x90	; 144
     b1a:	00 70       	andi	r16, 0x00	; 0
     b1c:	00 61       	ori	r16, 0x10	; 16
     b1e:	00 64       	ori	r16, 0x40	; 64
     b20:	00 00       	nop
     b22:	00 10       	cpse	r0, r0
     b24:	03 4b       	sbci	r16, 0xB3	; 179
     b26:	00 65       	ori	r16, 0x50	; 80
     b28:	00 79       	andi	r16, 0x90	; 144
     b2a:	00 48       	sbci	r16, 0x80	; 128
     b2c:	00 69       	ori	r16, 0x90	; 144
     b2e:	00 76       	andi	r16, 0x60	; 96
     b30:	00 65       	ori	r16, 0x50	; 80
     b32:	00 00       	nop
     b34:	00 04       	cpc	r0, r0
     b36:	03 09       	sbc	r16, r3
     b38:	04 09       	sbc	r16, r4
     b3a:	02 5b       	subi	r16, 0xB2	; 178
     b3c:	00 03       	mulsu	r16, r16
     b3e:	01 00       	.word	0x0001	; ????
     b40:	a0 fa       	bst	r10, 0
     b42:	09 04       	cpc	r0, r9
     b44:	00 00       	nop
     b46:	01 03       	mulsu	r16, r17
     b48:	01 01       	movw	r0, r2
     b4a:	00 09       	sbc	r16, r0
     b4c:	21 11       	cpse	r18, r1
     b4e:	01 00       	.word	0x0001	; ????
     b50:	01 22       	and	r0, r17
     b52:	40 00       	.word	0x0040	; ????
     b54:	07 05       	cpc	r16, r7
     b56:	81 03       	fmuls	r16, r17
     b58:	08 00       	.word	0x0008	; ????
     b5a:	0a 09       	sbc	r16, r10
     b5c:	04 01       	movw	r0, r8
     b5e:	00 01       	movw	r0, r0
     b60:	03 00       	.word	0x0003	; ????
     b62:	00 00       	nop
     b64:	09 21       	and	r16, r9
     b66:	11 01       	movw	r2, r2
     b68:	00 01       	movw	r0, r0
     b6a:	22 81       	ldd	r18, Z+2	; 0x02
     b6c:	00 07       	cpc	r16, r16
     b6e:	05 82       	std	Z+5, r0	; 0x05
     b70:	03 20       	and	r0, r3
     b72:	00 0a       	sbc	r0, r16
     b74:	09 04       	cpc	r0, r9
     b76:	02 00       	.word	0x0002	; ????
     b78:	02 03       	mulsu	r16, r18
     b7a:	00 00       	nop
     b7c:	00 09       	sbc	r16, r0
     b7e:	21 11       	cpse	r18, r1
     b80:	01 00       	.word	0x0001	; ????
     b82:	01 22       	and	r0, r17
     b84:	22 00       	.word	0x0022	; ????
     b86:	07 05       	cpc	r16, r7
     b88:	83 03       	fmuls	r16, r19
     b8a:	20 00       	.word	0x0020	; ????
     b8c:	01 07       	cpc	r16, r17
     b8e:	05 03       	mulsu	r16, r21
     b90:	03 20       	and	r0, r3
     b92:	00 01       	movw	r0, r0
     b94:	12 01       	movw	r2, r4
     b96:	10 01       	movw	r2, r0
     b98:	00 00       	nop
     b9a:	00 08       	sbc	r0, r0
     b9c:	ed fe       	.word	0xfeed	; ????
     b9e:	60 60       	ori	r22, 0x00	; 0
     ba0:	01 00       	.word	0x0001	; ????
     ba2:	01 02       	muls	r16, r17
     ba4:	03 01       	movw	r0, r6
     ba6:	06 31       	cpi	r16, 0x16	; 22
     ba8:	ff 09       	sbc	r31, r15
     baa:	74 a1       	ldd	r23, Z+36	; 0x24
     bac:	01 09       	sbc	r16, r1
     bae:	75 15       	cp	r23, r5
     bb0:	00 26       	eor	r0, r16
     bb2:	ff 00       	.word	0x00ff	; ????
     bb4:	95 20       	and	r9, r5
     bb6:	75 08       	sbc	r7, r5
     bb8:	81 02       	muls	r24, r17
     bba:	09 76       	andi	r16, 0x69	; 105
     bbc:	15 00       	.word	0x0015	; ????
     bbe:	26 ff       	sbrs	r18, 6
     bc0:	00 95       	com	r16
     bc2:	20 75       	andi	r18, 0x50	; 80
     bc4:	08 91       	.word	0x9108	; ????
     bc6:	02 c0       	rjmp	.+4      	;  0xbcc
     bc8:	05 01       	movw	r0, r10
     bca:	09 02       	muls	r16, r25
     bcc:	a1 01       	movw	r20, r2
     bce:	85 02       	muls	r24, r21
     bd0:	09 01       	movw	r0, r18
     bd2:	a1 00       	.word	0x00a1	; ????
     bd4:	05 09       	sbc	r16, r5
     bd6:	19 01       	movw	r2, r18
     bd8:	29 05       	cpc	r18, r9
     bda:	15 00       	.word	0x0015	; ????
     bdc:	25 01       	movw	r4, r10
     bde:	95 05       	cpc	r25, r5
     be0:	75 01       	movw	r14, r10
     be2:	81 02       	muls	r24, r17
     be4:	95 01       	movw	r18, r10
     be6:	75 03       	mulsu	r23, r21
     be8:	81 01       	movw	r16, r2
     bea:	05 01       	movw	r0, r10
     bec:	09 30       	cpi	r16, 0x09	; 9
     bee:	09 31       	cpi	r16, 0x19	; 25
     bf0:	15 81       	ldd	r17, Z+5	; 0x05
     bf2:	25 7f       	andi	r18, 0xF5	; 245
     bf4:	95 02       	muls	r25, r21
     bf6:	75 08       	sbc	r7, r5
     bf8:	81 06       	cpc	r8, r17
     bfa:	09 38       	cpi	r16, 0x89	; 137
     bfc:	15 81       	ldd	r17, Z+5	; 0x05
     bfe:	25 7f       	andi	r18, 0xF5	; 245
     c00:	95 01       	movw	r18, r10
     c02:	75 08       	sbc	r7, r5
     c04:	81 06       	cpc	r8, r17
     c06:	05 0c       	add	r0, r5
     c08:	0a 38       	cpi	r16, 0x8A	; 138
     c0a:	02 15       	cp	r16, r2
     c0c:	81 25       	eor	r24, r1
     c0e:	7f 95 01 75 	call	0x5eea02	;  0x5eea02
     c12:	08 81       	ld	r16, Y
     c14:	06 c0       	rjmp	.+12     	;  0xc22
     c16:	c0 05       	cpc	r28, r0
     c18:	01 09       	sbc	r16, r1
     c1a:	80 a1       	ldd	r24, Z+32	; 0x20
     c1c:	01 85       	ldd	r16, Z+9	; 0x09
     c1e:	03 19       	sub	r16, r3
     c20:	01 2a       	or	r0, r17
     c22:	b7 00       	.word	0x00b7	; ????
     c24:	15 01       	movw	r2, r10
     c26:	26 b7       	in	r18, 0x36	; 54
     c28:	00 95       	com	r16
     c2a:	01 75       	andi	r16, 0x51	; 81
     c2c:	10 81       	ld	r17, Z
     c2e:	00 c0       	rjmp	.+0      	;  0xc30
     c30:	05 0c       	add	r0, r5
     c32:	09 01       	movw	r0, r18
     c34:	a1 01       	movw	r20, r2
     c36:	85 04       	cpc	r8, r5
     c38:	19 01       	movw	r2, r18
     c3a:	2a a0       	ldd	r2, Y+34	; 0x22
     c3c:	02 15       	cp	r16, r2
     c3e:	01 26       	eor	r0, r17
     c40:	a0 02       	muls	r26, r16
     c42:	95 01       	movw	r18, r10
     c44:	75 10       	cpse	r7, r5
     c46:	81 00       	.word	0x0081	; ????
     c48:	c0 05       	cpc	r28, r0
     c4a:	01 09       	sbc	r16, r1
     c4c:	06 a1       	ldd	r16, Z+38	; 0x26
     c4e:	01 05       	cpc	r16, r1
     c50:	07 19       	sub	r16, r7
     c52:	e0 29       	or	r30, r0
     c54:	e7 15       	cp	r30, r7
     c56:	00 25       	eor	r16, r0
     c58:	01 95       	neg	r16
     c5a:	08 75       	andi	r16, 0x58	; 88
     c5c:	01 81       	ldd	r16, Z+1	; 0x01
     c5e:	02 95       	swap	r16
     c60:	01 75       	andi	r16, 0x51	; 81
     c62:	08 81       	ld	r16, Y
     c64:	01 05       	cpc	r16, r1
     c66:	07 19       	sub	r16, r7
     c68:	00 29       	or	r16, r0
     c6a:	ff 15       	cp	r31, r15
     c6c:	00 26       	eor	r0, r16
     c6e:	ff 00       	.word	0x00ff	; ????
     c70:	95 06       	cpc	r9, r21
     c72:	75 08       	sbc	r7, r5
     c74:	81 00       	.word	0x0081	; ????
     c76:	05 08       	sbc	r0, r5
     c78:	19 01       	movw	r2, r18
     c7a:	29 05       	cpc	r18, r9
     c7c:	95 05       	cpc	r25, r5
     c7e:	75 01       	movw	r14, r10
     c80:	91 02       	muls	r25, r17
     c82:	95 01       	movw	r18, r10
     c84:	75 03       	mulsu	r23, r21
     c86:	91 01       	movw	r18, r2
     c88:	c0 00       	.word	0x00c0	; ????
     c8a:	11 24       	eor	r1, r1
     c8c:	1f be       	out	0x3f, r1	; 63
     c8e:	cf ef       	ldi	r28, 0xFF	; 255
     c90:	da e0       	ldi	r29, 0x0A	; 10
     c92:	de bf       	out	0x3e, r29	; 62
     c94:	cd bf       	out	0x3d, r28	; 61
     c96:	04 b6       	in	r0, 0x34	; 52
     c98:	03 fe       	sbrs	r0, 3
     c9a:	27 c0       	rjmp	.+78     	;  0xcea
     c9c:	80 91 73 02 	lds	r24, 0x0273	;  0x800273
     ca0:	90 91 74 02 	lds	r25, 0x0274	;  0x800274
     ca4:	a0 91 75 02 	lds	r26, 0x0275	;  0x800275
     ca8:	b0 91 76 02 	lds	r27, 0x0276	;  0x800276
     cac:	87 30       	cpi	r24, 0x07	; 7
     cae:	90 4b       	sbci	r25, 0xB0	; 176
     cb0:	a7 40       	sbci	r26, 0x07	; 7
     cb2:	b0 4b       	sbci	r27, 0xB0	; 176
     cb4:	d1 f4       	brne	.+52     	;  0xcea
     cb6:	10 92 73 02 	sts	0x0273, r1	;  0x800273
     cba:	10 92 74 02 	sts	0x0274, r1	;  0x800274
     cbe:	10 92 75 02 	sts	0x0275, r1	;  0x800275
     cc2:	10 92 76 02 	sts	0x0276, r1	;  0x800276
     cc6:	14 be       	out	0x34, r1	; 52
     cc8:	84 b7       	in	r24, 0x34	; 52
     cca:	87 7f       	andi	r24, 0xF7	; 247
     ccc:	84 bf       	out	0x34, r24	; 52
     cce:	0f b6       	in	r0, 0x3f	; 63
     cd0:	f8 94       	cli
     cd2:	a8 95       	wdr
     cd4:	80 91 60 00 	lds	r24, 0x0060	;  0x800060
     cd8:	88 61       	ori	r24, 0x18	; 24
     cda:	80 93 60 00 	sts	0x0060, r24	;  0x800060
     cde:	10 92 60 00 	sts	0x0060, r1	;  0x800060
     ce2:	0f be       	out	0x3f, r0	; 63
     ce4:	e0 e0       	ldi	r30, 0x00	; 0
     ce6:	f8 e3       	ldi	r31, 0x38	; 56
     ce8:	09 95       	icall
     cea:	11 e0       	ldi	r17, 0x01	; 1
     cec:	a0 e0       	ldi	r26, 0x00	; 0
     cee:	b1 e0       	ldi	r27, 0x01	; 1
     cf0:	ec e8       	ldi	r30, 0x8C	; 140
     cf2:	f9 e5       	ldi	r31, 0x59	; 89
     cf4:	02 c0       	rjmp	.+4      	;  0xcfa
     cf6:	05 90       	lpm	r0, Z+
     cf8:	0d 92       	st	X+, r0
     cfa:	a2 3c       	cpi	r26, 0xC2	; 194
     cfc:	b1 07       	cpc	r27, r17
     cfe:	d9 f7       	brne	.-10     	;  0xcf6
     d00:	22 e0       	ldi	r18, 0x02	; 2
     d02:	a2 ec       	ldi	r26, 0xC2	; 194
     d04:	b1 e0       	ldi	r27, 0x01	; 1
     d06:	01 c0       	rjmp	.+2      	;  0xd0a
     d08:	1d 92       	st	X+, r1
     d0a:	a3 37       	cpi	r26, 0x73	; 115
     d0c:	b2 07       	cpc	r27, r18
     d0e:	e1 f7       	brne	.-8      	;  0xd08
     d10:	0e 94 af 26 	call	0x4d5e	;  0x4d5e
     d14:	0c 94 9c 2c 	jmp	0x5938	;  0x5938
     d18:	0c 94 00 00 	jmp	0	;  0x0
     d1c:	ff 93       	push	r31
     d1e:	ef 93       	push	r30
     d20:	e0 91 c2 01 	lds	r30, 0x01C2	;  0x8001c2
     d24:	f0 91 c3 01 	lds	r31, 0x01C3	;  0x8001c3
     d28:	30 97       	sbiw	r30, 0x00	; 0
     d2a:	09 f0       	breq	.+2      	;  0xd2e
     d2c:	09 95       	icall
     d2e:	ef 91       	pop	r30
     d30:	ff 91       	pop	r31
     d32:	08 95       	ret
     d34:	fc 01       	movw	r30, r24
     d36:	85 91       	lpm	r24, Z+
     d38:	80 30       	cpi	r24, 0x00	; 0
     d3a:	11 f0       	breq	.+4      	;  0xd40
     d3c:	ef df       	rcall	.-34     	;  0xd1c
     d3e:	fb cf       	rjmp	.-10     	;  0xd36
     d40:	08 95       	ret
     d42:	ff 27       	eor	r31, r31
     d44:	e0 e2       	ldi	r30, 0x20	; 32
     d46:	30 e2       	ldi	r19, 0x20	; 32
     d48:	47 ff       	sbrs	r20, 7
     d4a:	0c c0       	rjmp	.+24     	;  0xd64
     d4c:	41 95       	neg	r20
     d4e:	97 ff       	sbrs	r25, 7
     d50:	09 c0       	rjmp	.+18     	;  0xd64
     d52:	ed e2       	ldi	r30, 0x2D	; 45
     d54:	60 95       	com	r22
     d56:	70 95       	com	r23
     d58:	80 95       	com	r24
     d5a:	90 95       	com	r25
     d5c:	61 1d       	adc	r22, r1
     d5e:	71 1d       	adc	r23, r1
     d60:	81 1d       	adc	r24, r1
     d62:	91 1d       	adc	r25, r1
     d64:	27 ff       	sbrs	r18, 7
     d66:	02 c0       	rjmp	.+4      	;  0xd6c
     d68:	21 95       	neg	r18
     d6a:	30 e3       	ldi	r19, 0x30	; 48
     d6c:	50 e2       	ldi	r21, 0x20	; 32
     d6e:	aa 27       	eor	r26, r26
     d70:	66 0f       	add	r22, r22
     d72:	77 1f       	adc	r23, r23
     d74:	88 1f       	adc	r24, r24
     d76:	99 1f       	adc	r25, r25
     d78:	aa 1f       	adc	r26, r26
     d7a:	a4 17       	cp	r26, r20
     d7c:	10 f0       	brcs	.+4      	;  0xd82
     d7e:	a4 1b       	sub	r26, r20
     d80:	63 95       	inc	r22
     d82:	5a 95       	dec	r21
     d84:	a9 f7       	brne	.-22     	;  0xd70
     d86:	aa 30       	cpi	r26, 0x0A	; 10
     d88:	08 f0       	brcs	.+2      	;  0xd8c
     d8a:	a9 5f       	subi	r26, 0xF9	; 249
     d8c:	a0 5d       	subi	r26, 0xD0	; 208
     d8e:	af 93       	push	r26
     d90:	f3 95       	inc	r31
     d92:	61 15       	cp	r22, r1
     d94:	71 05       	cpc	r23, r1
     d96:	81 05       	cpc	r24, r1
     d98:	91 05       	cpc	r25, r1
     d9a:	41 f7       	brne	.-48     	;  0xd6c
     d9c:	ed 32       	cpi	r30, 0x2D	; 45
     d9e:	11 f4       	brne	.+4      	;  0xda4
     da0:	ef 93       	push	r30
     da2:	f3 95       	inc	r31
     da4:	f2 17       	cp	r31, r18
     da6:	18 f4       	brcc	.+6      	;  0xdae
     da8:	3f 93       	push	r19
     daa:	f3 95       	inc	r31
     dac:	fb cf       	rjmp	.-10     	;  0xda4
     dae:	8f 91       	pop	r24
     db0:	b5 df       	rcall	.-150    	;  0xd1c
     db2:	fa 95       	dec	r31
     db4:	e1 f7       	brne	.-8      	;  0xdae
     db6:	08 95       	ret
     db8:	e9 91       	ld	r30, Y+
     dba:	f9 91       	ld	r31, Y+
     dbc:	85 91       	lpm	r24, Z+
     dbe:	80 30       	cpi	r24, 0x00	; 0
     dc0:	21 f0       	breq	.+8      	;  0xdca
     dc2:	85 32       	cpi	r24, 0x25	; 37
     dc4:	19 f0       	breq	.+6      	;  0xdcc
     dc6:	aa df       	rcall	.-172    	;  0xd1c
     dc8:	f9 cf       	rjmp	.-14     	;  0xdbc
     dca:	08 95       	ret
     dcc:	20 e0       	ldi	r18, 0x00	; 0
     dce:	e8 94       	clt
     dd0:	55 91       	lpm	r21, Z+
     dd2:	55 32       	cpi	r21, 0x25	; 37
     dd4:	c1 f3       	breq	.-16     	;  0xdc6
     dd6:	50 33       	cpi	r21, 0x30	; 48
     dd8:	11 f4       	brne	.+4      	;  0xdde
     dda:	68 94       	set
     ddc:	55 91       	lpm	r21, Z+
     dde:	5a 33       	cpi	r21, 0x3A	; 58
     de0:	48 f4       	brcc	.+18     	;  0xdf4
     de2:	50 53       	subi	r21, 0x30	; 48
     de4:	90 f3       	brcs	.-28     	;  0xdca
     de6:	22 0f       	add	r18, r18
     de8:	02 2e       	mov	r0, r18
     dea:	22 0f       	add	r18, r18
     dec:	22 0f       	add	r18, r18
     dee:	20 0d       	add	r18, r0
     df0:	25 0f       	add	r18, r21
     df2:	f4 cf       	rjmp	.-24     	;  0xddc
     df4:	0e f4       	brtc	.+2      	;  0xdf8
     df6:	21 95       	neg	r18
     df8:	89 91       	ld	r24, Y+
     dfa:	99 91       	ld	r25, Y+
     dfc:	53 36       	cpi	r21, 0x63	; 99
     dfe:	19 f3       	breq	.-58     	;  0xdc6
     e00:	53 37       	cpi	r21, 0x73	; 115
     e02:	29 f1       	breq	.+74     	;  0xe4e
     e04:	53 35       	cpi	r21, 0x53	; 83
     e06:	59 f1       	breq	.+86     	;  0xe5e
     e08:	bc 01       	movw	r22, r24
     e0a:	88 27       	eor	r24, r24
     e0c:	99 27       	eor	r25, r25
     e0e:	e8 94       	clt
     e10:	5c 36       	cpi	r21, 0x6C	; 108
     e12:	21 f4       	brne	.+8      	;  0xe1c
     e14:	89 91       	ld	r24, Y+
     e16:	99 91       	ld	r25, Y+
     e18:	68 94       	set
     e1a:	55 91       	lpm	r21, Z+
     e1c:	54 36       	cpi	r21, 0x64	; 100
     e1e:	39 f4       	brne	.+14     	;  0xe2e
     e20:	46 ef       	ldi	r20, 0xF6	; 246
     e22:	7e f0       	brts	.+30     	;  0xe42
     e24:	77 ff       	sbrs	r23, 7
     e26:	0d c0       	rjmp	.+26     	;  0xe42
     e28:	8f ef       	ldi	r24, 0xFF	; 255
     e2a:	9f ef       	ldi	r25, 0xFF	; 255
     e2c:	0a c0       	rjmp	.+20     	;  0xe42
     e2e:	55 37       	cpi	r21, 0x75	; 117
     e30:	4a e0       	ldi	r20, 0x0A	; 10
     e32:	39 f0       	breq	.+14     	;  0xe42
     e34:	58 35       	cpi	r21, 0x58	; 88
     e36:	40 e1       	ldi	r20, 0x10	; 16
     e38:	21 f0       	breq	.+8      	;  0xe42
     e3a:	52 36       	cpi	r21, 0x62	; 98
     e3c:	42 e0       	ldi	r20, 0x02	; 2
     e3e:	09 f0       	breq	.+2      	;  0xe42
     e40:	08 95       	ret
     e42:	ff 93       	push	r31
     e44:	ef 93       	push	r30
     e46:	7d df       	rcall	.-262    	;  0xd42
     e48:	ef 91       	pop	r30
     e4a:	ff 91       	pop	r31
     e4c:	b7 cf       	rjmp	.-146    	;  0xdbc
     e4e:	ff 93       	push	r31
     e50:	ef 93       	push	r30
     e52:	fc 01       	movw	r30, r24
     e54:	81 91       	ld	r24, Z+
     e56:	80 30       	cpi	r24, 0x00	; 0
     e58:	b9 f3       	breq	.-18     	;  0xe48
     e5a:	60 df       	rcall	.-320    	;  0xd1c
     e5c:	fb cf       	rjmp	.-10     	;  0xe54
     e5e:	ff 93       	push	r31
     e60:	ef 93       	push	r30
     e62:	68 df       	rcall	.-304    	;  0xd34
     e64:	f1 cf       	rjmp	.-30     	;  0xe48
     e66:	df 93       	push	r29
     e68:	cf 93       	push	r28
     e6a:	cd b7       	in	r28, 0x3d	; 61
     e6c:	de b7       	in	r29, 0x3e	; 62
     e6e:	25 96       	adiw	r28, 0x05	; 5
     e70:	a3 df       	rcall	.-186    	;  0xdb8
     e72:	cf 91       	pop	r28
     e74:	df 91       	pop	r29
     e76:	08 95       	ret
     e78:	cf 93       	push	r28
     e7a:	df 93       	push	r29
     e7c:	cd b7       	in	r28, 0x3d	; 61
     e7e:	de b7       	in	r29, 0x3e	; 62
     e80:	c1 55       	subi	r28, 0x51	; 81
     e82:	d1 09       	sbc	r29, r1
     e84:	0f b6       	in	r0, 0x3f	; 63
     e86:	f8 94       	cli
     e88:	de bf       	out	0x3e, r29	; 62
     e8a:	0f be       	out	0x3f, r0	; 63
     e8c:	cd bf       	out	0x3d, r28	; 61
     e8e:	88 30       	cpi	r24, 0x08	; 8
     e90:	2d e5       	ldi	r18, 0x5D	; 93
     e92:	92 07       	cpc	r25, r18
     e94:	71 f0       	breq	.+28     	;  0xeb2
     e96:	89 30       	cpi	r24, 0x09	; 9
     e98:	9d 45       	sbci	r25, 0x5D	; 93
     e9a:	a1 f0       	breq	.+40     	;  0xec4
     e9c:	81 e0       	ldi	r24, 0x01	; 1
     e9e:	cf 5a       	subi	r28, 0xAF	; 175
     ea0:	df 4f       	sbci	r29, 0xFF	; 255
     ea2:	0f b6       	in	r0, 0x3f	; 63
     ea4:	f8 94       	cli
     ea6:	de bf       	out	0x3e, r29	; 62
     ea8:	0f be       	out	0x3f, r0	; 63
     eaa:	cd bf       	out	0x3d, r28	; 61
     eac:	df 91       	pop	r29
     eae:	cf 91       	pop	r28
     eb0:	08 95       	ret
     eb2:	fb 01       	movw	r30, r22
     eb4:	82 81       	ldd	r24, Z+2	; 0x02
     eb6:	88 23       	and	r24, r24
     eb8:	89 f3       	breq	.-30     	;  0xe9c
     eba:	81 ed       	ldi	r24, 0xD1	; 209
     ebc:	90 e0       	ldi	r25, 0x00	; 0
     ebe:	0e 94 c2 08 	call	0x1184	;  0x1184
     ec2:	ec cf       	rjmp	.-40     	;  0xe9c
     ec4:	86 e0       	ldi	r24, 0x06	; 6
     ec6:	e5 e1       	ldi	r30, 0x15	; 21
     ec8:	f1 e0       	ldi	r31, 0x01	; 1
     eca:	de 01       	movw	r26, r28
     ecc:	a4 5b       	subi	r26, 0xB4	; 180
     ece:	bf 4f       	sbci	r27, 0xFF	; 255
     ed0:	01 90       	ld	r0, Z+
     ed2:	0d 92       	st	X+, r0
     ed4:	8a 95       	dec	r24
     ed6:	e1 f7       	brne	.-8      	;  0xed0
     ed8:	86 e0       	ldi	r24, 0x06	; 6
     eda:	eb e1       	ldi	r30, 0x1B	; 27
     edc:	f1 e0       	ldi	r31, 0x01	; 1
     ede:	de 01       	movw	r26, r28
     ee0:	aa 5b       	subi	r26, 0xBA	; 186
     ee2:	bf 4f       	sbci	r27, 0xFF	; 255
     ee4:	01 90       	ld	r0, Z+
     ee6:	0d 92       	st	X+, r0
     ee8:	8a 95       	dec	r24
     eea:	e1 f7       	brne	.-8      	;  0xee4
     eec:	87 e0       	ldi	r24, 0x07	; 7
     eee:	e1 e2       	ldi	r30, 0x21	; 33
     ef0:	f1 e0       	ldi	r31, 0x01	; 1
     ef2:	de 01       	movw	r26, r28
     ef4:	df 96       	adiw	r26, 0x3f	; 63
     ef6:	01 90       	ld	r0, Z+
     ef8:	0d 92       	st	X+, r0
     efa:	8a 95       	dec	r24
     efc:	e1 f7       	brne	.-8      	;  0xef6
     efe:	89 e0       	ldi	r24, 0x09	; 9
     f00:	e8 e2       	ldi	r30, 0x28	; 40
     f02:	f1 e0       	ldi	r31, 0x01	; 1
     f04:	de 01       	movw	r26, r28
     f06:	d6 96       	adiw	r26, 0x36	; 54
     f08:	01 90       	ld	r0, Z+
     f0a:	0d 92       	st	X+, r0
     f0c:	8a 95       	dec	r24
     f0e:	e1 f7       	brne	.-8      	;  0xf08
     f10:	8d e0       	ldi	r24, 0x0D	; 13
     f12:	e1 e3       	ldi	r30, 0x31	; 49
     f14:	f1 e0       	ldi	r31, 0x01	; 1
     f16:	de 01       	movw	r26, r28
     f18:	99 96       	adiw	r26, 0x29	; 41
     f1a:	01 90       	ld	r0, Z+
     f1c:	0d 92       	st	X+, r0
     f1e:	8a 95       	dec	r24
     f20:	e1 f7       	brne	.-8      	;  0xf1a
     f22:	fb 01       	movw	r30, r22
     f24:	82 81       	ldd	r24, Z+2	; 0x02
     f26:	88 23       	and	r24, r24
     f28:	09 f4       	brne	.+2      	;  0xf2c
     f2a:	b8 cf       	rjmp	.-144    	;  0xe9c
     f2c:	be 01       	movw	r22, r28
     f2e:	64 5b       	subi	r22, 0xB4	; 180
     f30:	7f 4f       	sbci	r23, 0xFF	; 255
     f32:	ce 01       	movw	r24, r28
     f34:	01 96       	adiw	r24, 0x01	; 1
     f36:	0e 94 53 2c 	call	0x58a6	;  0x58a6
     f3a:	be 01       	movw	r22, r28
     f3c:	6a 5b       	subi	r22, 0xBA	; 186
     f3e:	7f 4f       	sbci	r23, 0xFF	; 255
     f40:	ce 01       	movw	r24, r28
     f42:	01 96       	adiw	r24, 0x01	; 1
     f44:	0e 94 48 2c 	call	0x5890	;  0x5890
     f48:	be 01       	movw	r22, r28
     f4a:	61 5c       	subi	r22, 0xC1	; 193
     f4c:	7f 4f       	sbci	r23, 0xFF	; 255
     f4e:	ce 01       	movw	r24, r28
     f50:	01 96       	adiw	r24, 0x01	; 1
     f52:	0e 94 48 2c 	call	0x5890	;  0x5890
     f56:	be 01       	movw	r22, r28
     f58:	6a 5c       	subi	r22, 0xCA	; 202
     f5a:	7f 4f       	sbci	r23, 0xFF	; 255
     f5c:	ce 01       	movw	r24, r28
     f5e:	01 96       	adiw	r24, 0x01	; 1
     f60:	0e 94 48 2c 	call	0x5890	;  0x5890
     f64:	be 01       	movw	r22, r28
     f66:	67 5d       	subi	r22, 0xD7	; 215
     f68:	7f 4f       	sbci	r23, 0xFF	; 255
     f6a:	ce 01       	movw	r24, r28
     f6c:	01 96       	adiw	r24, 0x01	; 1
     f6e:	0e 94 48 2c 	call	0x5890	;  0x5890
     f72:	8c ea       	ldi	r24, 0xAC	; 172
     f74:	90 e0       	ldi	r25, 0x00	; 0
     f76:	a3 cf       	rjmp	.-186    	;  0xebe
     f78:	81 e0       	ldi	r24, 0x01	; 1
     f7a:	08 95       	ret
     f7c:	0c 94 3c 07 	jmp	0xe78	;  0xe78
     f80:	08 95       	ret
     f82:	0c 94 c0 07 	jmp	0xf80	;  0xf80
     f86:	1f 93       	push	r17
     f88:	cf 93       	push	r28
     f8a:	df 93       	push	r29
     f8c:	00 d0       	rcall	.+0      	;  0xf8e
     f8e:	00 d0       	rcall	.+0      	;  0xf90
     f90:	0f 92       	push	r0
     f92:	cd b7       	in	r28, 0x3d	; 61
     f94:	de b7       	in	r29, 0x3e	; 62
     f96:	49 83       	std	Y+1, r20	; 0x01
     f98:	5a 83       	std	Y+2, r21	; 0x02
     f9a:	6b 83       	std	Y+3, r22	; 0x03
     f9c:	30 91 d7 01 	lds	r19, 0x01D7	;  0x8001d7
     fa0:	89 81       	ldd	r24, Y+1	; 0x01
     fa2:	9a 81       	ldd	r25, Y+2	; 0x02
     fa4:	31 11       	cpse	r19, r1
     fa6:	1d c0       	rjmp	.+58     	;  0xfe2
     fa8:	66 23       	and	r22, r22
     faa:	b9 f0       	breq	.+46     	;  0xfda
     fac:	22 23       	and	r18, r18
     fae:	a9 f0       	breq	.+42     	;  0xfda
     fb0:	0e 94 de 18 	call	0x31bc	;  0x31bc
     fb4:	18 2f       	mov	r17, r24
     fb6:	68 2f       	mov	r22, r24
     fb8:	89 81       	ldd	r24, Y+1	; 0x01
     fba:	9a 81       	ldd	r25, Y+2	; 0x02
     fbc:	0e 94 8b 18 	call	0x3116	;  0x3116
     fc0:	69 81       	ldd	r22, Y+1	; 0x01
     fc2:	7a 81       	ldd	r23, Y+2	; 0x02
     fc4:	81 2f       	mov	r24, r17
     fc6:	0f 90       	pop	r0
     fc8:	0f 90       	pop	r0
     fca:	0f 90       	pop	r0
     fcc:	0f 90       	pop	r0
     fce:	0f 90       	pop	r0
     fd0:	df 91       	pop	r29
     fd2:	cf 91       	pop	r28
     fd4:	1f 91       	pop	r17
     fd6:	0c 94 46 09 	jmp	0x128c	;  0x128c
     fda:	0e 94 b7 18 	call	0x316e	;  0x316e
     fde:	18 2f       	mov	r17, r24
     fe0:	ef cf       	rjmp	.-34     	;  0xfc0
     fe2:	0e 94 de 18 	call	0x31bc	;  0x31bc
     fe6:	69 81       	ldd	r22, Y+1	; 0x01
     fe8:	7a 81       	ldd	r23, Y+2	; 0x02
     fea:	ed cf       	rjmp	.-38     	;  0xfc6
     fec:	fc 01       	movw	r30, r24
     fee:	26 2f       	mov	r18, r22
     ff0:	40 81       	ld	r20, Z
     ff2:	51 81       	ldd	r21, Z+1	; 0x01
     ff4:	62 81       	ldd	r22, Z+2	; 0x02
     ff6:	73 81       	ldd	r23, Z+3	; 0x03
     ff8:	84 81       	ldd	r24, Z+4	; 0x04
     ffa:	0c 94 c3 07 	jmp	0xf86	;  0xf86
     ffe:	cf 93       	push	r28
    1000:	df 93       	push	r29
    1002:	ec 01       	movw	r28, r24
    1004:	60 e0       	ldi	r22, 0x00	; 0
    1006:	0e 94 f6 07 	call	0xfec	;  0xfec
    100a:	be 01       	movw	r22, r28
    100c:	df 91       	pop	r29
    100e:	cf 91       	pop	r28
    1010:	0c 94 c1 07 	jmp	0xf82	;  0xf82
    1014:	ff 92       	push	r15
    1016:	0f 93       	push	r16
    1018:	1f 93       	push	r17
    101a:	cf 93       	push	r28
    101c:	df 93       	push	r29
    101e:	e8 2f       	mov	r30, r24
    1020:	f0 e0       	ldi	r31, 0x00	; 0
    1022:	e7 5a       	subi	r30, 0xA7	; 167
    1024:	fe 4f       	sbci	r31, 0xFE	; 254
    1026:	f4 90       	lpm	r15, Z
    1028:	c8 2f       	mov	r28, r24
    102a:	c6 95       	lsr	r28
    102c:	c6 95       	lsr	r28
    102e:	c6 95       	lsr	r28
    1030:	d0 e0       	ldi	r29, 0x00	; 0
    1032:	fe 01       	movw	r30, r28
    1034:	e7 51       	subi	r30, 0x17	; 23
    1036:	fe 4f       	sbci	r31, 0xFE	; 254
    1038:	04 91       	lpm	r16, Z
    103a:	87 70       	andi	r24, 0x07	; 7
    103c:	10 e0       	ldi	r17, 0x00	; 0
    103e:	08 2e       	mov	r0, r24
    1040:	02 c0       	rjmp	.+4      	;  0x1046
    1042:	15 95       	asr	r17
    1044:	07 95       	ror	r16
    1046:	0a 94       	dec	r0
    1048:	e2 f7       	brpl	.-8      	;  0x1042
    104a:	01 70       	andi	r16, 0x01	; 1
    104c:	11 27       	eor	r17, r17
    104e:	c7 52       	subi	r28, 0x27	; 39
    1050:	de 4f       	sbci	r29, 0xFE	; 254
    1052:	fe 01       	movw	r30, r28
    1054:	c4 91       	lpm	r28, Z
    1056:	d0 e0       	ldi	r29, 0x00	; 0
    1058:	02 c0       	rjmp	.+4      	;  0x105e
    105a:	d5 95       	asr	r29
    105c:	c7 95       	ror	r28
    105e:	8a 95       	dec	r24
    1060:	e2 f7       	brpl	.-8      	;  0x105a
    1062:	c1 70       	andi	r28, 0x01	; 1
    1064:	dd 27       	eor	r29, r29
    1066:	01 15       	cp	r16, r1
    1068:	11 05       	cpc	r17, r1
    106a:	19 f0       	breq	.+6      	;  0x1072
    106c:	81 ee       	ldi	r24, 0xE1	; 225
    106e:	0e 94 52 10 	call	0x20a4	;  0x20a4
    1072:	20 97       	sbiw	r28, 0x00	; 0
    1074:	19 f0       	breq	.+6      	;  0x107c
    1076:	86 ee       	ldi	r24, 0xE6	; 230
    1078:	0e 94 52 10 	call	0x20a4	;  0x20a4
    107c:	8f 2d       	mov	r24, r15
    107e:	0e 94 3f 11 	call	0x227e	;  0x227e
    1082:	cd 2b       	or	r28, r29
    1084:	19 f0       	breq	.+6      	;  0x108c
    1086:	86 ee       	ldi	r24, 0xE6	; 230
    1088:	0e 94 e9 10 	call	0x21d2	;  0x21d2
    108c:	01 2b       	or	r16, r17
    108e:	41 f0       	breq	.+16     	;  0x10a0
    1090:	81 ee       	ldi	r24, 0xE1	; 225
    1092:	df 91       	pop	r29
    1094:	cf 91       	pop	r28
    1096:	1f 91       	pop	r17
    1098:	0f 91       	pop	r16
    109a:	ff 90       	pop	r15
    109c:	0c 94 e9 10 	jmp	0x21d2	;  0x21d2
    10a0:	df 91       	pop	r29
    10a2:	cf 91       	pop	r28
    10a4:	1f 91       	pop	r17
    10a6:	0f 91       	pop	r16
    10a8:	ff 90       	pop	r15
    10aa:	08 95       	ret
    10ac:	ef 92       	push	r14
    10ae:	ff 92       	push	r15
    10b0:	0f 93       	push	r16
    10b2:	1f 93       	push	r17
    10b4:	cf 93       	push	r28
    10b6:	df 93       	push	r29
    10b8:	8c 01       	movw	r16, r24
    10ba:	f6 2e       	mov	r15, r22
    10bc:	8a e0       	ldi	r24, 0x0A	; 10
    10be:	e8 2e       	mov	r14, r24
    10c0:	f8 01       	movw	r30, r16
    10c2:	84 91       	lpm	r24, Z
    10c4:	88 23       	and	r24, r24
    10c6:	09 f4       	brne	.+2      	;  0x10ca
    10c8:	56 c0       	rjmp	.+172    	;  0x1176
    10ca:	81 30       	cpi	r24, 0x01	; 1
    10cc:	09 f0       	breq	.+2      	;  0x10d0
    10ce:	4f c0       	rjmp	.+158    	;  0x116e
    10d0:	e8 01       	movw	r28, r16
    10d2:	21 96       	adiw	r28, 0x01	; 1
    10d4:	fe 01       	movw	r30, r28
    10d6:	84 91       	lpm	r24, Z
    10d8:	81 30       	cpi	r24, 0x01	; 1
    10da:	51 f4       	brne	.+20     	;  0x10f0
    10dc:	21 96       	adiw	r28, 0x01	; 1
    10de:	fe 01       	movw	r30, r28
    10e0:	14 91       	lpm	r17, Z
    10e2:	81 2f       	mov	r24, r17
    10e4:	0e 94 52 10 	call	0x20a4	;  0x20a4
    10e8:	81 2f       	mov	r24, r17
    10ea:	0e 94 e9 10 	call	0x21d2	;  0x21d2
    10ee:	08 c0       	rjmp	.+16     	;  0x1100
    10f0:	82 30       	cpi	r24, 0x02	; 2
    10f2:	99 f4       	brne	.+38     	;  0x111a
    10f4:	e8 01       	movw	r28, r16
    10f6:	22 96       	adiw	r28, 0x02	; 2
    10f8:	fe 01       	movw	r30, r28
    10fa:	84 91       	lpm	r24, Z
    10fc:	0e 94 52 10 	call	0x20a4	;  0x20a4
    1100:	8e 01       	movw	r16, r28
    1102:	0f 5f       	subi	r16, 0xFF	; 255
    1104:	1f 4f       	sbci	r17, 0xFF	; 255
    1106:	8f 2d       	mov	r24, r15
    1108:	81 50       	subi	r24, 0x01	; 1
    110a:	d0 f2       	brcs	.-76     	;  0x10c0
    110c:	ef e9       	ldi	r30, 0x9F	; 159
    110e:	ff e0       	ldi	r31, 0x0F	; 15
    1110:	31 97       	sbiw	r30, 0x01	; 1
    1112:	f1 f7       	brne	.-4      	;  0x1110
    1114:	00 c0       	rjmp	.+0      	;  0x1116
    1116:	00 00       	nop
    1118:	f7 cf       	rjmp	.-18     	;  0x1108
    111a:	83 30       	cpi	r24, 0x03	; 3
    111c:	29 f4       	brne	.+10     	;  0x1128
    111e:	e8 01       	movw	r28, r16
    1120:	22 96       	adiw	r28, 0x02	; 2
    1122:	fe 01       	movw	r30, r28
    1124:	84 91       	lpm	r24, Z
    1126:	e1 cf       	rjmp	.-62     	;  0x10ea
    1128:	84 30       	cpi	r24, 0x04	; 4
    112a:	51 f7       	brne	.-44     	;  0x1100
    112c:	e8 01       	movw	r28, r16
    112e:	22 96       	adiw	r28, 0x02	; 2
    1130:	fe 01       	movw	r30, r28
    1132:	24 91       	lpm	r18, Z
    1134:	90 e0       	ldi	r25, 0x00	; 0
    1136:	80 e0       	ldi	r24, 0x00	; 0
    1138:	fe 01       	movw	r30, r28
    113a:	31 96       	adiw	r30, 0x01	; 1
    113c:	20 53       	subi	r18, 0x30	; 48
    113e:	33 0b       	sbc	r19, r19
    1140:	2a 30       	cpi	r18, 0x0A	; 10
    1142:	31 05       	cpc	r19, r1
    1144:	48 f0       	brcs	.+18     	;  0x1158
    1146:	01 97       	sbiw	r24, 0x01	; 1
    1148:	d8 f2       	brcs	.-74     	;  0x1100
    114a:	ef e9       	ldi	r30, 0x9F	; 159
    114c:	ff e0       	ldi	r31, 0x0F	; 15
    114e:	31 97       	sbiw	r30, 0x01	; 1
    1150:	f1 f7       	brne	.-4      	;  0x114e
    1152:	00 c0       	rjmp	.+0      	;  0x1154
    1154:	00 00       	nop
    1156:	f7 cf       	rjmp	.-18     	;  0x1146
    1158:	e8 9e       	mul	r14, r24
    115a:	a0 01       	movw	r20, r0
    115c:	e9 9e       	mul	r14, r25
    115e:	50 0d       	add	r21, r0
    1160:	11 24       	eor	r1, r1
    1162:	c9 01       	movw	r24, r18
    1164:	84 0f       	add	r24, r20
    1166:	95 1f       	adc	r25, r21
    1168:	24 91       	lpm	r18, Z
    116a:	ef 01       	movw	r28, r30
    116c:	e5 cf       	rjmp	.-54     	;  0x1138
    116e:	0e 94 0a 08 	call	0x1014	;  0x1014
    1172:	e8 01       	movw	r28, r16
    1174:	c5 cf       	rjmp	.-118    	;  0x1100
    1176:	df 91       	pop	r29
    1178:	cf 91       	pop	r28
    117a:	1f 91       	pop	r17
    117c:	0f 91       	pop	r16
    117e:	ff 90       	pop	r15
    1180:	ef 90       	pop	r14
    1182:	08 95       	ret
    1184:	60 e0       	ldi	r22, 0x00	; 0
    1186:	0c 94 56 08 	jmp	0x10ac	;  0x10ac
    118a:	0e 94 1e 1c 	call	0x383c	;  0x383c
    118e:	0e 94 45 1a 	call	0x348a	;  0x348a
    1192:	81 11       	cpse	r24, r1
    1194:	02 c0       	rjmp	.+4      	;  0x119a
    1196:	0e 94 e2 1a 	call	0x35c4	;  0x35c4
    119a:	0c 94 52 0b 	jmp	0x16a4	;  0x16a4
    119e:	0c 94 55 0b 	jmp	0x16aa	;  0x16aa
    11a2:	08 95       	ret
    11a4:	0c 94 d1 08 	jmp	0x11a2	;  0x11a2
    11a8:	81 e0       	ldi	r24, 0x01	; 1
    11aa:	08 95       	ret
    11ac:	0c 94 d4 08 	jmp	0x11a8	;  0x11a8
    11b0:	cf 93       	push	r28
    11b2:	c8 2f       	mov	r28, r24
    11b4:	0e 94 d2 08 	call	0x11a4	;  0x11a4
    11b8:	8c 2f       	mov	r24, r28
    11ba:	cf 91       	pop	r28
    11bc:	0c 94 d6 08 	jmp	0x11ac	;  0x11ac
    11c0:	08 95       	ret
    11c2:	0e 94 f5 13 	call	0x27ea	;  0x27ea
    11c6:	0e 94 e0 08 	call	0x11c0	;  0x11c0
    11ca:	2f ef       	ldi	r18, 0xFF	; 255
    11cc:	84 e3       	ldi	r24, 0x34	; 52
    11ce:	9c e0       	ldi	r25, 0x0C	; 12
    11d0:	21 50       	subi	r18, 0x01	; 1
    11d2:	80 40       	sbci	r24, 0x00	; 0
    11d4:	90 40       	sbci	r25, 0x00	; 0
    11d6:	e1 f7       	brne	.-8      	;  0x11d0
    11d8:	00 c0       	rjmp	.+0      	;  0x11da
    11da:	00 00       	nop
    11dc:	0c 94 0b 1c 	jmp	0x3816	;  0x3816
    11e0:	0f 93       	push	r16
    11e2:	1f 93       	push	r17
    11e4:	cf 93       	push	r28
    11e6:	df 93       	push	r29
    11e8:	ec 01       	movw	r28, r24
    11ea:	61 e0       	ldi	r22, 0x01	; 1
    11ec:	0e 94 f6 07 	call	0xfec	;  0xfec
    11f0:	8c 01       	movw	r16, r24
    11f2:	be 01       	movw	r22, r28
    11f4:	0e 94 be 07 	call	0xf7c	;  0xf7c
    11f8:	88 23       	and	r24, r24
    11fa:	11 f1       	breq	.+68     	;  0x1240
    11fc:	be 01       	movw	r22, r28
    11fe:	c8 01       	movw	r24, r16
    1200:	0e 94 1f 0d 	call	0x1a3e	;  0x1a3e
    1204:	88 23       	and	r24, r24
    1206:	e1 f0       	breq	.+56     	;  0x1240
    1208:	be 01       	movw	r22, r28
    120a:	c8 01       	movw	r24, r16
    120c:	0e 94 60 0d 	call	0x1ac0	;  0x1ac0
    1210:	88 23       	and	r24, r24
    1212:	b1 f0       	breq	.+44     	;  0x1240
    1214:	be 01       	movw	r22, r28
    1216:	c8 01       	movw	r24, r16
    1218:	0e 94 83 0e 	call	0x1d06	;  0x1d06
    121c:	88 23       	and	r24, r24
    121e:	81 f0       	breq	.+32     	;  0x1240
    1220:	8a 81       	ldd	r24, Y+2	; 0x02
    1222:	88 23       	and	r24, r24
    1224:	41 f1       	breq	.+80     	;  0x1276
    1226:	01 30       	cpi	r16, 0x01	; 1
    1228:	8c e5       	ldi	r24, 0x5C	; 92
    122a:	18 07       	cpc	r17, r24
    122c:	79 f0       	breq	.+30     	;  0x124c
    122e:	0e 3d       	cpi	r16, 0xDE	; 222
    1230:	8c e5       	ldi	r24, 0x5C	; 92
    1232:	18 07       	cpc	r17, r24
    1234:	e9 f0       	breq	.+58     	;  0x1270
    1236:	01 15       	cp	r16, r1
    1238:	1c 45       	sbci	r17, 0x5C	; 92
    123a:	e9 f4       	brne	.+58     	;  0x1276
    123c:	0e 94 e1 08 	call	0x11c2	;  0x11c2
    1240:	80 e0       	ldi	r24, 0x00	; 0
    1242:	df 91       	pop	r29
    1244:	cf 91       	pop	r28
    1246:	1f 91       	pop	r17
    1248:	0f 91       	pop	r16
    124a:	08 95       	ret
    124c:	90 91 34 02 	lds	r25, 0x0234	;  0x800234
    1250:	89 2f       	mov	r24, r25
    1252:	8e 7f       	andi	r24, 0xFE	; 254
    1254:	90 ff       	sbrs	r25, 0
    1256:	81 60       	ori	r24, 0x01	; 1
    1258:	80 93 34 02 	sts	0x0234, r24	;  0x800234
    125c:	80 ff       	sbrs	r24, 0
    125e:	05 c0       	rjmp	.+10     	;  0x126a
    1260:	88 e4       	ldi	r24, 0x48	; 72
    1262:	91 e0       	ldi	r25, 0x01	; 1
    1264:	0e 94 9a 06 	call	0xd34	;  0xd34
    1268:	eb cf       	rjmp	.-42     	;  0x1240
    126a:	86 e3       	ldi	r24, 0x36	; 54
    126c:	91 e0       	ldi	r25, 0x01	; 1
    126e:	fa cf       	rjmp	.-12     	;  0x1264
    1270:	0e 94 e2 1a 	call	0x35c4	;  0x35c4
    1274:	e5 cf       	rjmp	.-54     	;  0x1240
    1276:	ce 01       	movw	r24, r28
    1278:	df 91       	pop	r29
    127a:	cf 91       	pop	r28
    127c:	1f 91       	pop	r17
    127e:	0f 91       	pop	r16
    1280:	0c 94 bc 07 	jmp	0xf78	;  0xf78
    1284:	90 e0       	ldi	r25, 0x00	; 0
    1286:	80 e0       	ldi	r24, 0x00	; 0
    1288:	08 95       	ret
    128a:	08 95       	ret
    128c:	e7 2f       	mov	r30, r23
    128e:	f0 e0       	ldi	r31, 0x00	; 0
    1290:	95 e0       	ldi	r25, 0x05	; 5
    1292:	89 9f       	mul	r24, r25
    1294:	e0 0d       	add	r30, r0
    1296:	f1 1d       	adc	r31, r1
    1298:	11 24       	eor	r1, r1
    129a:	ee 0f       	add	r30, r30
    129c:	ff 1f       	adc	r31, r31
    129e:	ee 0f       	add	r30, r30
    12a0:	ff 1f       	adc	r31, r31
    12a2:	e6 0f       	add	r30, r22
    12a4:	f1 1d       	adc	r31, r1
    12a6:	ee 0f       	add	r30, r30
    12a8:	ff 1f       	adc	r31, r31
    12aa:	ea 51       	subi	r30, 0x1A	; 26
    12ac:	ff 4f       	sbci	r31, 0xFF	; 255
    12ae:	85 91       	lpm	r24, Z+
    12b0:	94 91       	lpm	r25, Z
    12b2:	08 95       	ret
    12b4:	fc 01       	movw	r30, r24
    12b6:	ee 0f       	add	r30, r30
    12b8:	ff 1f       	adc	r31, r31
    12ba:	e7 50       	subi	r30, 0x07	; 7
    12bc:	fe 4f       	sbci	r31, 0xFE	; 254
    12be:	85 91       	lpm	r24, Z+
    12c0:	94 91       	lpm	r25, Z
    12c2:	08 95       	ret
    12c4:	cf 93       	push	r28
    12c6:	df 93       	push	r29
    12c8:	0e 94 46 09 	call	0x128c	;  0x128c
    12cc:	0e 94 77 0a 	call	0x14ee	;  0x14ee
    12d0:	ec 01       	movw	r28, r24
    12d2:	81 15       	cp	r24, r1
    12d4:	20 e5       	ldi	r18, 0x50	; 80
    12d6:	92 07       	cpc	r25, r18
    12d8:	08 f0       	brcs	.+2      	;  0x12dc
    12da:	42 c0       	rjmp	.+132    	;  0x1360
    12dc:	81 15       	cp	r24, r1
    12de:	30 e4       	ldi	r19, 0x40	; 64
    12e0:	93 07       	cpc	r25, r19
    12e2:	08 f0       	brcs	.+2      	;  0x12e6
    12e4:	bd c0       	rjmp	.+378    	;  0x1460
    12e6:	88 3e       	cpi	r24, 0xE8	; 232
    12e8:	91 05       	cpc	r25, r1
    12ea:	28 f5       	brcc	.+74     	;  0x1336
    12ec:	80 3e       	cpi	r24, 0xE0	; 224
    12ee:	91 05       	cpc	r25, r1
    12f0:	08 f0       	brcs	.+2      	;  0x12f4
    12f2:	9d c0       	rjmp	.+314    	;  0x142e
    12f4:	88 3a       	cpi	r24, 0xA8	; 168
    12f6:	91 05       	cpc	r25, r1
    12f8:	88 f4       	brcc	.+34     	;  0x131c
    12fa:	85 3a       	cpi	r24, 0xA5	; 165
    12fc:	91 05       	cpc	r25, r1
    12fe:	08 f0       	brcs	.+2      	;  0x1302
    1300:	8f c0       	rjmp	.+286    	;  0x1420
    1302:	81 30       	cpi	r24, 0x01	; 1
    1304:	91 05       	cpc	r25, r1
    1306:	09 f4       	brne	.+2      	;  0x130a
    1308:	92 c0       	rjmp	.+292    	;  0x142e
    130a:	00 97       	sbiw	r24, 0x00	; 0
    130c:	09 f4       	brne	.+2      	;  0x1310
    130e:	8f c0       	rjmp	.+286    	;  0x142e
    1310:	04 97       	sbiw	r24, 0x04	; 4
    1312:	08 f0       	brcs	.+2      	;  0x1316
    1314:	8c c0       	rjmp	.+280    	;  0x142e
    1316:	d0 e0       	ldi	r29, 0x00	; 0
    1318:	c0 e0       	ldi	r28, 0x00	; 0
    131a:	89 c0       	rjmp	.+274    	;  0x142e
    131c:	8f 3b       	cpi	r24, 0xBF	; 191
    131e:	91 05       	cpc	r25, r1
    1320:	08 f4       	brcc	.+2      	;  0x1324
    1322:	89 c0       	rjmp	.+274    	;  0x1436
    1324:	80 5c       	subi	r24, 0xC0	; 192
    1326:	91 09       	sbc	r25, r1
    1328:	c0 3c       	cpi	r28, 0xC0	; 192
    132a:	d1 05       	cpc	r29, r1
    132c:	a0 f3       	brcs	.-24     	;  0x1316
    132e:	0e 94 5a 09 	call	0x12b4	;  0x12b4
    1332:	ec 01       	movw	r28, r24
    1334:	7c c0       	rjmp	.+248    	;  0x142e
    1336:	81 15       	cp	r24, r1
    1338:	90 42       	sbci	r25, 0x20	; 32
    133a:	50 f4       	brcc	.+20     	;  0x1350
    133c:	c1 15       	cp	r28, r1
    133e:	81 e0       	ldi	r24, 0x01	; 1
    1340:	d8 07       	cpc	r29, r24
    1342:	08 f0       	brcs	.+2      	;  0x1346
    1344:	74 c0       	rjmp	.+232    	;  0x142e
    1346:	c0 3f       	cpi	r28, 0xF0	; 240
    1348:	d1 05       	cpc	r29, r1
    134a:	28 f3       	brcs	.-54     	;  0x1316
    134c:	d0 65       	ori	r29, 0x50	; 80
    134e:	6f c0       	rjmp	.+222    	;  0x142e
    1350:	c1 15       	cp	r28, r1
    1352:	90 e3       	ldi	r25, 0x30	; 48
    1354:	d9 07       	cpc	r29, r25
    1356:	08 f0       	brcs	.+2      	;  0x135a
    1358:	79 c0       	rjmp	.+242    	;  0x144c
    135a:	ce 01       	movw	r24, r28
    135c:	9f 70       	andi	r25, 0x0F	; 15
    135e:	e7 cf       	rjmp	.-50     	;  0x132e
    1360:	81 15       	cp	r24, r1
    1362:	25 e5       	ldi	r18, 0x55	; 85
    1364:	92 07       	cpc	r25, r18
    1366:	58 f5       	brcc	.+86     	;  0x13be
    1368:	81 15       	cp	r24, r1
    136a:	34 e5       	ldi	r19, 0x54	; 84
    136c:	93 07       	cpc	r25, r19
    136e:	08 f0       	brcs	.+2      	;  0x1372
    1370:	a6 c0       	rjmp	.+332    	;  0x14be
    1372:	81 15       	cp	r24, r1
    1374:	42 e5       	ldi	r20, 0x52	; 82
    1376:	94 07       	cpc	r25, r20
    1378:	50 f4       	brcc	.+20     	;  0x138e
    137a:	c1 15       	cp	r28, r1
    137c:	81 e5       	ldi	r24, 0x51	; 81
    137e:	d8 07       	cpc	r29, r24
    1380:	08 f4       	brcc	.+2      	;  0x1384
    1382:	71 c0       	rjmp	.+226    	;  0x1466
    1384:	dc 2f       	mov	r29, r28
    1386:	cc 27       	eor	r28, r28
    1388:	c1 6f       	ori	r28, 0xF1	; 241
    138a:	d0 6a       	ori	r29, 0xA0	; 160
    138c:	50 c0       	rjmp	.+160    	;  0x142e
    138e:	98 2f       	mov	r25, r24
    1390:	96 95       	lsr	r25
    1392:	96 95       	lsr	r25
    1394:	9e 01       	movw	r18, r28
    1396:	23 70       	andi	r18, 0x03	; 3
    1398:	33 27       	eor	r19, r19
    139a:	c1 15       	cp	r28, r1
    139c:	d3 45       	sbci	r29, 0x53	; 83
    139e:	08 f0       	brcs	.+2      	;  0x13a2
    13a0:	7f c0       	rjmp	.+254    	;  0x14a0
    13a2:	c1 e0       	ldi	r28, 0x01	; 1
    13a4:	d0 e0       	ldi	r29, 0x00	; 0
    13a6:	02 c0       	rjmp	.+4      	;  0x13ac
    13a8:	cc 0f       	add	r28, r28
    13aa:	dd 1f       	adc	r29, r29
    13ac:	2a 95       	dec	r18
    13ae:	e2 f7       	brpl	.-8      	;  0x13a8
    13b0:	20 e2       	ldi	r18, 0x20	; 32
    13b2:	92 9f       	mul	r25, r18
    13b4:	c0 01       	movw	r24, r0
    13b6:	11 24       	eor	r1, r1
    13b8:	c8 2b       	or	r28, r24
    13ba:	d9 2b       	or	r29, r25
    13bc:	6f c0       	rjmp	.+222    	;  0x149c
    13be:	c1 15       	cp	r28, r1
    13c0:	89 e5       	ldi	r24, 0x59	; 89
    13c2:	d8 07       	cpc	r29, r24
    13c4:	a8 f4       	brcc	.+42     	;  0x13f0
    13c6:	c1 15       	cp	r28, r1
    13c8:	98 e5       	ldi	r25, 0x58	; 88
    13ca:	d9 07       	cpc	r29, r25
    13cc:	08 f0       	brcs	.+2      	;  0x13d0
    13ce:	7c c0       	rjmp	.+248    	;  0x14c8
    13d0:	c1 15       	cp	r28, r1
    13d2:	26 e5       	ldi	r18, 0x56	; 86
    13d4:	d2 07       	cpc	r29, r18
    13d6:	08 f0       	brcs	.+2      	;  0x13da
    13d8:	9e cf       	rjmp	.-196    	;  0x1316
    13da:	8c 2f       	mov	r24, r28
    13dc:	0e 94 0e 0b 	call	0x161c	;  0x161c
    13e0:	c8 2f       	mov	r28, r24
    13e2:	d0 e0       	ldi	r29, 0x00	; 0
    13e4:	dc 2f       	mov	r29, r28
    13e6:	cc 27       	eor	r28, r28
    13e8:	cc 27       	eor	r28, r28
    13ea:	df 71       	andi	r29, 0x1F	; 31
    13ec:	d0 62       	ori	r29, 0x20	; 32
    13ee:	1f c0       	rjmp	.+62     	;  0x142e
    13f0:	c1 15       	cp	r28, r1
    13f2:	3a e5       	ldi	r19, 0x5A	; 90
    13f4:	d3 07       	cpc	r29, r19
    13f6:	08 f4       	brcc	.+2      	;  0x13fa
    13f8:	6c c0       	rjmp	.+216    	;  0x14d2
    13fa:	ce 01       	movw	r24, r28
    13fc:	90 56       	subi	r25, 0x60	; 96
    13fe:	81 15       	cp	r24, r1
    1400:	90 42       	sbci	r25, 0x20	; 32
    1402:	08 f0       	brcs	.+2      	;  0x1406
    1404:	88 cf       	rjmp	.-240    	;  0x1316
    1406:	8d 2f       	mov	r24, r29
    1408:	8f 71       	andi	r24, 0x1F	; 31
    140a:	0e 94 0e 0b 	call	0x161c	;  0x161c
    140e:	90 e0       	ldi	r25, 0x00	; 0
    1410:	98 2f       	mov	r25, r24
    1412:	88 27       	eor	r24, r24
    1414:	88 27       	eor	r24, r24
    1416:	9f 71       	andi	r25, 0x1F	; 31
    1418:	9c 01       	movw	r18, r24
    141a:	2c 2b       	or	r18, r28
    141c:	e9 01       	movw	r28, r18
    141e:	e6 cf       	rjmp	.-52     	;  0x13ec
    1420:	c5 5a       	subi	r28, 0xA5	; 165
    1422:	d0 e0       	ldi	r29, 0x00	; 0
    1424:	c4 59       	subi	r28, 0x94	; 148
    1426:	de 4f       	sbci	r29, 0xFE	; 254
    1428:	c8 81       	ld	r28, Y
    142a:	d0 e0       	ldi	r29, 0x00	; 0
    142c:	d0 64       	ori	r29, 0x40	; 64
    142e:	ce 01       	movw	r24, r28
    1430:	df 91       	pop	r29
    1432:	cf 91       	pop	r28
    1434:	08 95       	ret
    1436:	c8 5a       	subi	r28, 0xA8	; 168
    1438:	d0 e0       	ldi	r29, 0x00	; 0
    143a:	cc 0f       	add	r28, r28
    143c:	dd 1f       	adc	r29, r29
    143e:	c2 5c       	subi	r28, 0xC2	; 194
    1440:	de 4f       	sbci	r29, 0xFE	; 254
    1442:	09 90       	ld	r0, Y+
    1444:	d8 81       	ld	r29, Y
    1446:	c0 2d       	mov	r28, r0
    1448:	d4 64       	ori	r29, 0x44	; 68
    144a:	f1 cf       	rjmp	.-30     	;  0x142e
    144c:	ce 01       	movw	r24, r28
    144e:	99 27       	eor	r25, r25
    1450:	d3 ff       	sbrs	r29, 3
    1452:	03 c0       	rjmp	.+6      	;  0x145a
    1454:	ec 01       	movw	r28, r24
    1456:	d8 6c       	ori	r29, 0xC8	; 200
    1458:	ea cf       	rjmp	.-44     	;  0x142e
    145a:	ec 01       	movw	r28, r24
    145c:	d0 6c       	ori	r29, 0xC0	; 192
    145e:	e7 cf       	rjmp	.-50     	;  0x142e
    1460:	df 70       	andi	r29, 0x0F	; 15
    1462:	d0 6a       	ori	r29, 0xA0	; 160
    1464:	e4 cf       	rjmp	.-56     	;  0x142e
    1466:	ce 01       	movw	r24, r28
    1468:	e4 e0       	ldi	r30, 0x04	; 4
    146a:	96 95       	lsr	r25
    146c:	87 95       	ror	r24
    146e:	ea 95       	dec	r30
    1470:	e1 f7       	brne	.-8      	;  0x146a
    1472:	83 70       	andi	r24, 0x03	; 3
    1474:	2c 2f       	mov	r18, r28
    1476:	26 95       	lsr	r18
    1478:	26 95       	lsr	r18
    147a:	23 70       	andi	r18, 0x03	; 3
    147c:	90 e2       	ldi	r25, 0x20	; 32
    147e:	29 9f       	mul	r18, r25
    1480:	90 01       	movw	r18, r0
    1482:	11 24       	eor	r1, r1
    1484:	38 2b       	or	r19, r24
    1486:	8c 2f       	mov	r24, r28
    1488:	83 70       	andi	r24, 0x03	; 3
    148a:	c1 e0       	ldi	r28, 0x01	; 1
    148c:	d0 e0       	ldi	r29, 0x00	; 0
    148e:	02 c0       	rjmp	.+4      	;  0x1494
    1490:	cc 0f       	add	r28, r28
    1492:	dd 1f       	adc	r29, r29
    1494:	8a 95       	dec	r24
    1496:	e2 f7       	brpl	.-8      	;  0x1490
    1498:	c2 2b       	or	r28, r18
    149a:	d3 2b       	or	r29, r19
    149c:	dc 68       	ori	r29, 0x8C	; 140
    149e:	c7 cf       	rjmp	.-114    	;  0x142e
    14a0:	c1 e0       	ldi	r28, 0x01	; 1
    14a2:	d0 e0       	ldi	r29, 0x00	; 0
    14a4:	02 c0       	rjmp	.+4      	;  0x14aa
    14a6:	cc 0f       	add	r28, r28
    14a8:	dd 1f       	adc	r29, r29
    14aa:	2a 95       	dec	r18
    14ac:	e2 f7       	brpl	.-8      	;  0x14a6
    14ae:	30 e2       	ldi	r19, 0x20	; 32
    14b0:	93 9f       	mul	r25, r19
    14b2:	c0 01       	movw	r24, r0
    14b4:	11 24       	eor	r1, r1
    14b6:	c8 2b       	or	r28, r24
    14b8:	d9 2b       	or	r29, r25
    14ba:	da 68       	ori	r29, 0x8A	; 138
    14bc:	b8 cf       	rjmp	.-144    	;  0x142e
    14be:	d8 2f       	mov	r29, r24
    14c0:	cc 27       	eor	r28, r28
    14c2:	c4 6f       	ori	r28, 0xF4	; 244
    14c4:	d0 6a       	ori	r29, 0xA0	; 160
    14c6:	b3 cf       	rjmp	.-154    	;  0x142e
    14c8:	dc 2f       	mov	r29, r28
    14ca:	cc 27       	eor	r28, r28
    14cc:	c0 6f       	ori	r28, 0xF0	; 240
    14ce:	d0 6a       	ori	r29, 0xA0	; 160
    14d0:	ae cf       	rjmp	.-164    	;  0x142e
    14d2:	8c 2f       	mov	r24, r28
    14d4:	8f 70       	andi	r24, 0x0F	; 15
    14d6:	0e 94 0e 0b 	call	0x161c	;  0x161c
    14da:	34 e0       	ldi	r19, 0x04	; 4
    14dc:	d6 95       	lsr	r29
    14de:	c7 95       	ror	r28
    14e0:	3a 95       	dec	r19
    14e2:	e1 f7       	brne	.-8      	;  0x14dc
    14e4:	cf 70       	andi	r28, 0x0F	; 15
    14e6:	9c 2f       	mov	r25, r28
    14e8:	ec 01       	movw	r28, r24
    14ea:	d0 69       	ori	r29, 0x90	; 144
    14ec:	a0 cf       	rjmp	.-192    	;  0x142e
    14ee:	82 38       	cpi	r24, 0x82	; 130
    14f0:	91 05       	cpc	r25, r1
    14f2:	b1 f1       	breq	.+108    	;  0x1560
    14f4:	b0 f4       	brcc	.+44     	;  0x1522
    14f6:	81 33       	cpi	r24, 0x31	; 49
    14f8:	91 05       	cpc	r25, r1
    14fa:	09 f4       	brne	.+2      	;  0x14fe
    14fc:	75 c0       	rjmp	.+234    	;  0x15e8
    14fe:	48 f4       	brcc	.+18     	;  0x1512
    1500:	89 32       	cpi	r24, 0x29	; 41
    1502:	91 05       	cpc	r25, r1
    1504:	09 f4       	brne	.+2      	;  0x1508
    1506:	69 c0       	rjmp	.+210    	;  0x15da
    1508:	8a 32       	cpi	r24, 0x2A	; 42
    150a:	91 05       	cpc	r25, r1
    150c:	09 f4       	brne	.+2      	;  0x1510
    150e:	73 c0       	rjmp	.+230    	;  0x15f6
    1510:	08 95       	ret
    1512:	85 33       	cpi	r24, 0x35	; 53
    1514:	91 05       	cpc	r25, r1
    1516:	09 f4       	brne	.+2      	;  0x151a
    1518:	59 c0       	rjmp	.+178    	;  0x15cc
    151a:	89 33       	cpi	r24, 0x39	; 57
    151c:	91 05       	cpc	r25, r1
    151e:	01 f1       	breq	.+64     	;  0x1560
    1520:	08 95       	ret
    1522:	83 3e       	cpi	r24, 0xE3	; 227
    1524:	91 05       	cpc	r25, r1
    1526:	a9 f1       	breq	.+106    	;  0x1592
    1528:	38 f4       	brcc	.+14     	;  0x1538
    152a:	80 3e       	cpi	r24, 0xE0	; 224
    152c:	91 05       	cpc	r25, r1
    152e:	f9 f0       	breq	.+62     	;  0x156e
    1530:	82 3e       	cpi	r24, 0xE2	; 226
    1532:	91 05       	cpc	r25, r1
    1534:	49 f1       	breq	.+82     	;  0x1588
    1536:	08 95       	ret
    1538:	86 3e       	cpi	r24, 0xE6	; 230
    153a:	91 05       	cpc	r25, r1
    153c:	a9 f1       	breq	.+106    	;  0x15a8
    153e:	87 3e       	cpi	r24, 0xE7	; 231
    1540:	91 05       	cpc	r25, r1
    1542:	c9 f1       	breq	.+114    	;  0x15b6
    1544:	84 3e       	cpi	r24, 0xE4	; 228
    1546:	91 05       	cpc	r25, r1
    1548:	19 f5       	brne	.+70     	;  0x1590
    154a:	20 91 65 02 	lds	r18, 0x0265	;  0x800265
    154e:	21 ff       	sbrs	r18, 1
    1550:	1f c0       	rjmp	.+62     	;  0x1590
    1552:	80 91 64 02 	lds	r24, 0x0264	;  0x800264
    1556:	84 fd       	sbrc	r24, 4
    1558:	14 c0       	rjmp	.+40     	;  0x1582
    155a:	87 ee       	ldi	r24, 0xE7	; 231
    155c:	90 e0       	ldi	r25, 0x00	; 0
    155e:	08 95       	ret
    1560:	20 91 64 02 	lds	r18, 0x0264	;  0x800264
    1564:	23 70       	andi	r18, 0x03	; 3
    1566:	a1 f0       	breq	.+40     	;  0x1590
    1568:	80 ee       	ldi	r24, 0xE0	; 224
    156a:	90 e0       	ldi	r25, 0x00	; 0
    156c:	08 95       	ret
    156e:	20 91 64 02 	lds	r18, 0x0264	;  0x800264
    1572:	20 fd       	sbrc	r18, 0
    1574:	47 c0       	rjmp	.+142    	;  0x1604
    1576:	30 91 65 02 	lds	r19, 0x0265	;  0x800265
    157a:	30 ff       	sbrs	r19, 0
    157c:	09 c0       	rjmp	.+18     	;  0x1590
    157e:	24 ff       	sbrs	r18, 4
    1580:	44 c0       	rjmp	.+136    	;  0x160a
    1582:	90 e0       	ldi	r25, 0x00	; 0
    1584:	80 e0       	ldi	r24, 0x00	; 0
    1586:	04 c0       	rjmp	.+8      	;  0x1590
    1588:	20 91 64 02 	lds	r18, 0x0264	;  0x800264
    158c:	22 fd       	sbrc	r18, 2
    158e:	f7 cf       	rjmp	.-18     	;  0x157e
    1590:	08 95       	ret
    1592:	20 91 64 02 	lds	r18, 0x0264	;  0x800264
    1596:	22 fd       	sbrc	r18, 2
    1598:	3b c0       	rjmp	.+118    	;  0x1610
    159a:	30 91 65 02 	lds	r19, 0x0265	;  0x800265
    159e:	30 fd       	sbrc	r19, 0
    15a0:	e3 cf       	rjmp	.-58     	;  0x1568
    15a2:	24 ff       	sbrs	r18, 4
    15a4:	f5 cf       	rjmp	.-22     	;  0x1590
    15a6:	ed cf       	rjmp	.-38     	;  0x1582
    15a8:	20 91 64 02 	lds	r18, 0x0264	;  0x800264
    15ac:	23 ff       	sbrs	r18, 3
    15ae:	f0 cf       	rjmp	.-32     	;  0x1590
    15b0:	24 fd       	sbrc	r18, 4
    15b2:	e7 cf       	rjmp	.-50     	;  0x1582
    15b4:	d2 cf       	rjmp	.-92     	;  0x155a
    15b6:	20 91 64 02 	lds	r18, 0x0264	;  0x800264
    15ba:	23 fd       	sbrc	r18, 3
    15bc:	2c c0       	rjmp	.+88     	;  0x1616
    15be:	30 91 65 02 	lds	r19, 0x0265	;  0x800265
    15c2:	31 ff       	sbrs	r19, 1
    15c4:	ee cf       	rjmp	.-36     	;  0x15a2
    15c6:	84 ee       	ldi	r24, 0xE4	; 228
    15c8:	90 e0       	ldi	r25, 0x00	; 0
    15ca:	08 95       	ret
    15cc:	20 91 64 02 	lds	r18, 0x0264	;  0x800264
    15d0:	25 ff       	sbrs	r18, 5
    15d2:	de cf       	rjmp	.-68     	;  0x1590
    15d4:	89 e2       	ldi	r24, 0x29	; 41
    15d6:	90 e0       	ldi	r25, 0x00	; 0
    15d8:	08 95       	ret
    15da:	20 91 64 02 	lds	r18, 0x0264	;  0x800264
    15de:	25 ff       	sbrs	r18, 5
    15e0:	d7 cf       	rjmp	.-82     	;  0x1590
    15e2:	85 e3       	ldi	r24, 0x35	; 53
    15e4:	90 e0       	ldi	r25, 0x00	; 0
    15e6:	08 95       	ret
    15e8:	20 91 64 02 	lds	r18, 0x0264	;  0x800264
    15ec:	26 ff       	sbrs	r18, 6
    15ee:	d0 cf       	rjmp	.-96     	;  0x1590
    15f0:	8a e2       	ldi	r24, 0x2A	; 42
    15f2:	90 e0       	ldi	r25, 0x00	; 0
    15f4:	08 95       	ret
    15f6:	20 91 64 02 	lds	r18, 0x0264	;  0x800264
    15fa:	26 ff       	sbrs	r18, 6
    15fc:	c9 cf       	rjmp	.-110    	;  0x1590
    15fe:	81 e3       	ldi	r24, 0x31	; 49
    1600:	90 e0       	ldi	r25, 0x00	; 0
    1602:	08 95       	ret
    1604:	89 e3       	ldi	r24, 0x39	; 57
    1606:	90 e0       	ldi	r25, 0x00	; 0
    1608:	08 95       	ret
    160a:	83 ee       	ldi	r24, 0xE3	; 227
    160c:	90 e0       	ldi	r25, 0x00	; 0
    160e:	08 95       	ret
    1610:	82 ee       	ldi	r24, 0xE2	; 226
    1612:	90 e0       	ldi	r25, 0x00	; 0
    1614:	08 95       	ret
    1616:	86 ee       	ldi	r24, 0xE6	; 230
    1618:	90 e0       	ldi	r25, 0x00	; 0
    161a:	08 95       	ret
    161c:	90 91 64 02 	lds	r25, 0x0264	;  0x800264
    1620:	92 ff       	sbrs	r25, 2
    1622:	06 c0       	rjmp	.+12     	;  0x1630
    1624:	28 2f       	mov	r18, r24
    1626:	28 71       	andi	r18, 0x18	; 24
    1628:	28 30       	cpi	r18, 0x08	; 8
    162a:	f9 f4       	brne	.+62     	;  0x166a
    162c:	87 7f       	andi	r24, 0xF7	; 247
    162e:	84 60       	ori	r24, 0x04	; 4
    1630:	93 ff       	sbrs	r25, 3
    1632:	06 c0       	rjmp	.+12     	;  0x1640
    1634:	28 2f       	mov	r18, r24
    1636:	28 71       	andi	r18, 0x18	; 24
    1638:	28 31       	cpi	r18, 0x18	; 24
    163a:	f1 f4       	brne	.+60     	;  0x1678
    163c:	87 7e       	andi	r24, 0xE7	; 231
    163e:	84 61       	ori	r24, 0x14	; 20
    1640:	20 91 65 02 	lds	r18, 0x0265	;  0x800265
    1644:	20 ff       	sbrs	r18, 0
    1646:	06 c0       	rjmp	.+12     	;  0x1654
    1648:	38 2f       	mov	r19, r24
    164a:	38 71       	andi	r19, 0x18	; 24
    164c:	38 30       	cpi	r19, 0x08	; 8
    164e:	d9 f4       	brne	.+54     	;  0x1686
    1650:	87 7f       	andi	r24, 0xF7	; 247
    1652:	81 60       	ori	r24, 0x01	; 1
    1654:	21 ff       	sbrs	r18, 1
    1656:	06 c0       	rjmp	.+12     	;  0x1664
    1658:	28 2f       	mov	r18, r24
    165a:	28 71       	andi	r18, 0x18	; 24
    165c:	28 31       	cpi	r18, 0x18	; 24
    165e:	d1 f4       	brne	.+52     	;  0x1694
    1660:	87 7e       	andi	r24, 0xE7	; 231
    1662:	81 61       	ori	r24, 0x11	; 17
    1664:	94 fd       	sbrc	r25, 4
    1666:	87 7e       	andi	r24, 0xE7	; 231
    1668:	08 95       	ret
    166a:	28 2f       	mov	r18, r24
    166c:	24 71       	andi	r18, 0x14	; 20
    166e:	24 30       	cpi	r18, 0x04	; 4
    1670:	f9 f6       	brne	.-66     	;  0x1630
    1672:	8b 7f       	andi	r24, 0xFB	; 251
    1674:	88 60       	ori	r24, 0x08	; 8
    1676:	dc cf       	rjmp	.-72     	;  0x1630
    1678:	28 2f       	mov	r18, r24
    167a:	24 71       	andi	r18, 0x14	; 20
    167c:	24 31       	cpi	r18, 0x14	; 20
    167e:	01 f7       	brne	.-64     	;  0x1640
    1680:	8b 7e       	andi	r24, 0xEB	; 235
    1682:	88 61       	ori	r24, 0x18	; 24
    1684:	dd cf       	rjmp	.-70     	;  0x1640
    1686:	38 2f       	mov	r19, r24
    1688:	31 71       	andi	r19, 0x11	; 17
    168a:	31 30       	cpi	r19, 0x01	; 1
    168c:	19 f7       	brne	.-58     	;  0x1654
    168e:	8e 7f       	andi	r24, 0xFE	; 254
    1690:	88 60       	ori	r24, 0x08	; 8
    1692:	e0 cf       	rjmp	.-64     	;  0x1654
    1694:	28 2f       	mov	r18, r24
    1696:	21 71       	andi	r18, 0x11	; 17
    1698:	21 31       	cpi	r18, 0x11	; 17
    169a:	21 f7       	brne	.-56     	;  0x1664
    169c:	8e 7e       	andi	r24, 0xEE	; 238
    169e:	88 61       	ori	r24, 0x18	; 24
    16a0:	e1 cf       	rjmp	.-62     	;  0x1664
    16a2:	08 95       	ret
    16a4:	0c 94 51 0b 	jmp	0x16a2	;  0x16a2
    16a8:	08 95       	ret
    16aa:	0c 94 54 0b 	jmp	0x16a8	;  0x16a8
    16ae:	e8 2f       	mov	r30, r24
    16b0:	f0 e0       	ldi	r31, 0x00	; 0
    16b2:	e7 5a       	subi	r30, 0xA7	; 167
    16b4:	fd 4f       	sbci	r31, 0xFD	; 253
    16b6:	80 81       	ld	r24, Z
    16b8:	08 95       	ret
    16ba:	cf 92       	push	r12
    16bc:	df 92       	push	r13
    16be:	ef 92       	push	r14
    16c0:	ff 92       	push	r15
    16c2:	0f 93       	push	r16
    16c4:	1f 93       	push	r17
    16c6:	cf 93       	push	r28
    16c8:	df 93       	push	r29
    16ca:	88 e0       	ldi	r24, 0x08	; 8
    16cc:	92 e0       	ldi	r25, 0x02	; 2
    16ce:	0e 94 9a 06 	call	0xd34	;  0xd34
    16d2:	89 e5       	ldi	r24, 0x59	; 89
    16d4:	e8 2e       	mov	r14, r24
    16d6:	82 e0       	ldi	r24, 0x02	; 2
    16d8:	f8 2e       	mov	r15, r24
    16da:	d0 e0       	ldi	r29, 0x00	; 0
    16dc:	c0 e0       	ldi	r28, 0x00	; 0
    16de:	93 e0       	ldi	r25, 0x03	; 3
    16e0:	c9 2e       	mov	r12, r25
    16e2:	92 e0       	ldi	r25, 0x02	; 2
    16e4:	d9 2e       	mov	r13, r25
    16e6:	0b ef       	ldi	r16, 0xFB	; 251
    16e8:	11 e0       	ldi	r17, 0x01	; 1
    16ea:	df 93       	push	r29
    16ec:	cf 93       	push	r28
    16ee:	df 92       	push	r13
    16f0:	cf 92       	push	r12
    16f2:	0e 94 33 07 	call	0xe66	;  0xe66
    16f6:	80 e0       	ldi	r24, 0x00	; 0
    16f8:	92 e0       	ldi	r25, 0x02	; 2
    16fa:	0e 94 9a 06 	call	0xd34	;  0xd34
    16fe:	f7 01       	movw	r30, r14
    1700:	81 91       	ld	r24, Z+
    1702:	7f 01       	movw	r14, r30
    1704:	0e 94 27 1a 	call	0x344e	;  0x344e
    1708:	1f 92       	push	r1
    170a:	8f 93       	push	r24
    170c:	1f 93       	push	r17
    170e:	0f 93       	push	r16
    1710:	0e 94 33 07 	call	0xe66	;  0xe66
    1714:	89 ef       	ldi	r24, 0xF9	; 249
    1716:	91 e0       	ldi	r25, 0x01	; 1
    1718:	0e 94 9a 06 	call	0xd34	;  0xd34
    171c:	21 96       	adiw	r28, 0x01	; 1
    171e:	8d b7       	in	r24, 0x3d	; 61
    1720:	9e b7       	in	r25, 0x3e	; 62
    1722:	08 96       	adiw	r24, 0x08	; 8
    1724:	0f b6       	in	r0, 0x3f	; 63
    1726:	f8 94       	cli
    1728:	9e bf       	out	0x3e, r25	; 62
    172a:	0f be       	out	0x3f, r0	; 63
    172c:	8d bf       	out	0x3d, r24	; 61
    172e:	c5 30       	cpi	r28, 0x05	; 5
    1730:	d1 05       	cpc	r29, r1
    1732:	d9 f6       	brne	.-74     	;  0x16ea
    1734:	df 91       	pop	r29
    1736:	cf 91       	pop	r28
    1738:	1f 91       	pop	r17
    173a:	0f 91       	pop	r16
    173c:	ff 90       	pop	r15
    173e:	ef 90       	pop	r14
    1740:	df 90       	pop	r13
    1742:	cf 90       	pop	r12
    1744:	08 95       	ret
    1746:	80 ea       	ldi	r24, 0xA0	; 160
    1748:	8a 95       	dec	r24
    174a:	f1 f7       	brne	.-4      	;  0x1748
    174c:	08 95       	ret
    174e:	cf 93       	push	r28
    1750:	df 93       	push	r29
    1752:	a3 e7       	ldi	r26, 0x73	; 115
    1754:	b1 e0       	ldi	r27, 0x01	; 1
    1756:	48 e7       	ldi	r20, 0x78	; 120
    1758:	51 e0       	ldi	r21, 0x01	; 1
    175a:	c1 e0       	ldi	r28, 0x01	; 1
    175c:	d0 e0       	ldi	r29, 0x00	; 0
    175e:	8d 91       	ld	r24, X+
    1760:	e8 2f       	mov	r30, r24
    1762:	e2 95       	swap	r30
    1764:	ef 70       	andi	r30, 0x0F	; 15
    1766:	f0 e0       	ldi	r31, 0x00	; 0
    1768:	61 a1       	ldd	r22, Z+33	; 0x21
    176a:	8f 70       	andi	r24, 0x0F	; 15
    176c:	9e 01       	movw	r18, r28
    176e:	01 c0       	rjmp	.+2      	;  0x1772
    1770:	22 0f       	add	r18, r18
    1772:	8a 95       	dec	r24
    1774:	ea f7       	brpl	.-6      	;  0x1770
    1776:	92 2f       	mov	r25, r18
    1778:	90 95       	com	r25
    177a:	96 23       	and	r25, r22
    177c:	91 a3       	std	Z+33, r25	; 0x21
    177e:	82 a1       	ldd	r24, Z+34	; 0x22
    1780:	82 2b       	or	r24, r18
    1782:	82 a3       	std	Z+34, r24	; 0x22
    1784:	4a 17       	cp	r20, r26
    1786:	5b 07       	cpc	r21, r27
    1788:	51 f7       	brne	.-44     	;  0x175e
    178a:	af e6       	ldi	r26, 0x6F	; 111
    178c:	b1 e0       	ldi	r27, 0x01	; 1
    178e:	61 e0       	ldi	r22, 0x01	; 1
    1790:	70 e0       	ldi	r23, 0x00	; 0
    1792:	8d 91       	ld	r24, X+
    1794:	e8 2f       	mov	r30, r24
    1796:	e2 95       	swap	r30
    1798:	ef 70       	andi	r30, 0x0F	; 15
    179a:	f0 e0       	ldi	r31, 0x00	; 0
    179c:	41 a1       	ldd	r20, Z+33	; 0x21
    179e:	8f 70       	andi	r24, 0x0F	; 15
    17a0:	9b 01       	movw	r18, r22
    17a2:	01 c0       	rjmp	.+2      	;  0x17a6
    17a4:	22 0f       	add	r18, r18
    17a6:	8a 95       	dec	r24
    17a8:	ea f7       	brpl	.-6      	;  0x17a4
    17aa:	92 2f       	mov	r25, r18
    17ac:	90 95       	com	r25
    17ae:	94 23       	and	r25, r20
    17b0:	91 a3       	std	Z+33, r25	; 0x21
    17b2:	82 a1       	ldd	r24, Z+34	; 0x22
    17b4:	82 2b       	or	r24, r18
    17b6:	82 a3       	std	Z+34, r24	; 0x22
    17b8:	81 e0       	ldi	r24, 0x01	; 1
    17ba:	a3 37       	cpi	r26, 0x73	; 115
    17bc:	b8 07       	cpc	r27, r24
    17be:	49 f7       	brne	.-46     	;  0x1792
    17c0:	10 92 54 02 	sts	0x0254, r1	;  0x800254
    17c4:	10 92 59 02 	sts	0x0259, r1	;  0x800259
    17c8:	10 92 55 02 	sts	0x0255, r1	;  0x800255
    17cc:	10 92 5a 02 	sts	0x025A, r1	;  0x80025a
    17d0:	10 92 56 02 	sts	0x0256, r1	;  0x800256
    17d4:	10 92 5b 02 	sts	0x025B, r1	;  0x80025b
    17d8:	10 92 57 02 	sts	0x0257, r1	;  0x800257
    17dc:	10 92 5c 02 	sts	0x025C, r1	;  0x80025c
    17e0:	10 92 58 02 	sts	0x0258, r1	;  0x800258
    17e4:	10 92 5d 02 	sts	0x025D, r1	;  0x80025d
    17e8:	85 e0       	ldi	r24, 0x05	; 5
    17ea:	0e 94 7b 0c 	call	0x18f6	;  0x18f6
    17ee:	df 91       	pop	r29
    17f0:	cf 91       	pop	r28
    17f2:	0c 94 c5 08 	jmp	0x118a	;  0x118a
    17f6:	8f 92       	push	r8
    17f8:	9f 92       	push	r9
    17fa:	af 92       	push	r10
    17fc:	bf 92       	push	r11
    17fe:	cf 92       	push	r12
    1800:	df 92       	push	r13
    1802:	ef 92       	push	r14
    1804:	ff 92       	push	r15
    1806:	0f 93       	push	r16
    1808:	1f 93       	push	r17
    180a:	cf 93       	push	r28
    180c:	df 93       	push	r29
    180e:	83 e7       	ldi	r24, 0x73	; 115
    1810:	a8 2e       	mov	r10, r24
    1812:	81 e0       	ldi	r24, 0x01	; 1
    1814:	b8 2e       	mov	r11, r24
    1816:	04 e5       	ldi	r16, 0x54	; 84
    1818:	12 e0       	ldi	r17, 0x02	; 2
    181a:	91 2c       	mov	r9, r1
    181c:	cc 24       	eor	r12, r12
    181e:	c3 94       	inc	r12
    1820:	d1 2c       	mov	r13, r1
    1822:	f5 01       	movw	r30, r10
    1824:	81 91       	ld	r24, Z+
    1826:	5f 01       	movw	r10, r30
    1828:	c8 2f       	mov	r28, r24
    182a:	c2 95       	swap	r28
    182c:	cf 70       	andi	r28, 0x0F	; 15
    182e:	d0 e0       	ldi	r29, 0x00	; 0
    1830:	99 a1       	ldd	r25, Y+33	; 0x21
    1832:	8f 70       	andi	r24, 0x0F	; 15
    1834:	76 01       	movw	r14, r12
    1836:	01 c0       	rjmp	.+2      	;  0x183a
    1838:	ee 0c       	add	r14, r14
    183a:	8a 95       	dec	r24
    183c:	ea f7       	brpl	.-6      	;  0x1838
    183e:	89 2f       	mov	r24, r25
    1840:	8e 29       	or	r24, r14
    1842:	89 a3       	std	Y+33, r24	; 0x21
    1844:	8a a1       	ldd	r24, Y+34	; 0x22
    1846:	8e 2c       	mov	r8, r14
    1848:	80 94       	com	r8
    184a:	88 21       	and	r24, r8
    184c:	8a a3       	std	Y+34, r24	; 0x22
    184e:	0e 94 a3 0b 	call	0x1746	;  0x1746
    1852:	ef e6       	ldi	r30, 0x6F	; 111
    1854:	f1 e0       	ldi	r31, 0x01	; 1
    1856:	50 e0       	ldi	r21, 0x00	; 0
    1858:	40 e0       	ldi	r20, 0x00	; 0
    185a:	20 e0       	ldi	r18, 0x00	; 0
    185c:	31 91       	ld	r19, Z+
    185e:	a3 2f       	mov	r26, r19
    1860:	a2 95       	swap	r26
    1862:	af 70       	andi	r26, 0x0F	; 15
    1864:	b0 e0       	ldi	r27, 0x00	; 0
    1866:	90 96       	adiw	r26, 0x20	; 32
    1868:	8c 91       	ld	r24, X
    186a:	90 e0       	ldi	r25, 0x00	; 0
    186c:	3f 70       	andi	r19, 0x0F	; 15
    186e:	02 c0       	rjmp	.+4      	;  0x1874
    1870:	95 95       	asr	r25
    1872:	87 95       	ror	r24
    1874:	3a 95       	dec	r19
    1876:	e2 f7       	brpl	.-8      	;  0x1870
    1878:	80 fd       	sbrc	r24, 0
    187a:	39 c0       	rjmp	.+114    	;  0x18ee
    187c:	8c 2d       	mov	r24, r12
    187e:	04 2e       	mov	r0, r20
    1880:	01 c0       	rjmp	.+2      	;  0x1884
    1882:	88 0f       	add	r24, r24
    1884:	0a 94       	dec	r0
    1886:	ea f7       	brpl	.-6      	;  0x1882
    1888:	28 2b       	or	r18, r24
    188a:	4f 5f       	subi	r20, 0xFF	; 255
    188c:	5f 4f       	sbci	r21, 0xFF	; 255
    188e:	44 30       	cpi	r20, 0x04	; 4
    1890:	51 05       	cpc	r21, r1
    1892:	21 f7       	brne	.-56     	;  0x185c
    1894:	89 a1       	ldd	r24, Y+33	; 0x21
    1896:	88 22       	and	r8, r24
    1898:	89 a2       	std	Y+33, r8	; 0x21
    189a:	8a a1       	ldd	r24, Y+34	; 0x22
    189c:	e8 2a       	or	r14, r24
    189e:	ea a2       	std	Y+34, r14	; 0x22
    18a0:	f8 01       	movw	r30, r16
    18a2:	80 81       	ld	r24, Z
    18a4:	28 17       	cp	r18, r24
    18a6:	29 f1       	breq	.+74     	;  0x18f2
    18a8:	20 83       	st	Z, r18
    18aa:	81 e0       	ldi	r24, 0x01	; 1
    18ac:	98 2a       	or	r9, r24
    18ae:	0f 5f       	subi	r16, 0xFF	; 255
    18b0:	1f 4f       	sbci	r17, 0xFF	; 255
    18b2:	f8 e7       	ldi	r31, 0x78	; 120
    18b4:	af 16       	cp	r10, r31
    18b6:	f1 e0       	ldi	r31, 0x01	; 1
    18b8:	bf 06       	cpc	r11, r31
    18ba:	09 f0       	breq	.+2      	;  0x18be
    18bc:	b2 cf       	rjmp	.-156    	;  0x1822
    18be:	29 2d       	mov	r18, r9
    18c0:	45 e0       	ldi	r20, 0x05	; 5
    18c2:	69 e5       	ldi	r22, 0x59	; 89
    18c4:	72 e0       	ldi	r23, 0x02	; 2
    18c6:	84 e5       	ldi	r24, 0x54	; 84
    18c8:	92 e0       	ldi	r25, 0x02	; 2
    18ca:	0e 94 7c 0c 	call	0x18f8	;  0x18f8
    18ce:	0e 94 cf 08 	call	0x119e	;  0x119e
    18d2:	89 2d       	mov	r24, r9
    18d4:	df 91       	pop	r29
    18d6:	cf 91       	pop	r28
    18d8:	1f 91       	pop	r17
    18da:	0f 91       	pop	r16
    18dc:	ff 90       	pop	r15
    18de:	ef 90       	pop	r14
    18e0:	df 90       	pop	r13
    18e2:	cf 90       	pop	r12
    18e4:	bf 90       	pop	r11
    18e6:	af 90       	pop	r10
    18e8:	9f 90       	pop	r9
    18ea:	8f 90       	pop	r8
    18ec:	08 95       	ret
    18ee:	80 e0       	ldi	r24, 0x00	; 0
    18f0:	cb cf       	rjmp	.-106    	;  0x1888
    18f2:	80 e0       	ldi	r24, 0x00	; 0
    18f4:	db cf       	rjmp	.-74     	;  0x18ac
    18f6:	08 95       	ret
    18f8:	ff 92       	push	r15
    18fa:	0f 93       	push	r16
    18fc:	1f 93       	push	r17
    18fe:	cf 93       	push	r28
    1900:	df 93       	push	r29
    1902:	f8 2e       	mov	r15, r24
    1904:	09 2f       	mov	r16, r25
    1906:	16 2f       	mov	r17, r22
    1908:	d7 2f       	mov	r29, r23
    190a:	c4 2f       	mov	r28, r20
    190c:	22 23       	and	r18, r18
    190e:	49 f0       	breq	.+18     	;  0x1922
    1910:	81 e0       	ldi	r24, 0x01	; 1
    1912:	80 93 c6 01 	sts	0x01C6, r24	;  0x8001c6
    1916:	0e 94 c0 1b 	call	0x3780	;  0x3780
    191a:	90 93 c5 01 	sts	0x01C5, r25	;  0x8001c5
    191e:	80 93 c4 01 	sts	0x01C4, r24	;  0x8001c4
    1922:	80 91 c6 01 	lds	r24, 0x01C6	;  0x8001c6
    1926:	88 23       	and	r24, r24
    1928:	a1 f0       	breq	.+40     	;  0x1952
    192a:	80 91 c4 01 	lds	r24, 0x01C4	;  0x8001c4
    192e:	90 91 c5 01 	lds	r25, 0x01C5	;  0x8001c5
    1932:	0e 94 d8 1b 	call	0x37b0	;  0x37b0
    1936:	06 97       	sbiw	r24, 0x06	; 6
    1938:	60 f0       	brcs	.+24     	;  0x1952
    193a:	ef 2d       	mov	r30, r15
    193c:	f0 2f       	mov	r31, r16
    193e:	a1 2f       	mov	r26, r17
    1940:	bd 2f       	mov	r27, r29
    1942:	ce 0f       	add	r28, r30
    1944:	df 2f       	mov	r29, r31
    1946:	d1 1d       	adc	r29, r1
    1948:	ec 17       	cp	r30, r28
    194a:	fd 07       	cpc	r31, r29
    194c:	41 f4       	brne	.+16     	;  0x195e
    194e:	10 92 c6 01 	sts	0x01C6, r1	;  0x8001c6
    1952:	df 91       	pop	r29
    1954:	cf 91       	pop	r28
    1956:	1f 91       	pop	r17
    1958:	0f 91       	pop	r16
    195a:	ff 90       	pop	r15
    195c:	08 95       	ret
    195e:	81 91       	ld	r24, Z+
    1960:	8d 93       	st	X+, r24
    1962:	f2 cf       	rjmp	.-28     	;  0x1948
    1964:	0f 93       	push	r16
    1966:	1f 93       	push	r17
    1968:	cf 93       	push	r28
    196a:	df 93       	push	r29
    196c:	c6 2f       	mov	r28, r22
    196e:	d4 2f       	mov	r29, r20
    1970:	02 2f       	mov	r16, r18
    1972:	fc 01       	movw	r30, r24
    1974:	82 81       	ldd	r24, Z+2	; 0x02
    1976:	88 23       	and	r24, r24
    1978:	c9 f0       	breq	.+50     	;  0x19ac
    197a:	60 93 c9 01 	sts	0x01C9, r22	;  0x8001c9
    197e:	0e 94 c0 1b 	call	0x3780	;  0x3780
    1982:	90 93 c8 01 	sts	0x01C8, r25	;  0x8001c8
    1986:	80 93 c7 01 	sts	0x01C7, r24	;  0x8001c7
    198a:	80 e2       	ldi	r24, 0x20	; 32
    198c:	8c 0f       	add	r24, r28
    198e:	88 30       	cpi	r24, 0x08	; 8
    1990:	08 f0       	brcs	.+2      	;  0x1994
    1992:	50 c0       	rjmp	.+160    	;  0x1a34
    1994:	c7 70       	andi	r28, 0x07	; 7
    1996:	81 e0       	ldi	r24, 0x01	; 1
    1998:	01 c0       	rjmp	.+2      	;  0x199c
    199a:	88 0f       	add	r24, r24
    199c:	ca 95       	dec	r28
    199e:	ea f7       	brpl	.-6      	;  0x199a
    19a0:	df 91       	pop	r29
    19a2:	cf 91       	pop	r28
    19a4:	1f 91       	pop	r17
    19a6:	0f 91       	pop	r16
    19a8:	0c 94 52 11 	jmp	0x22a4	;  0x22a4
    19ac:	10 91 c9 01 	lds	r17, 0x01C9	;  0x8001c9
    19b0:	16 13       	cpse	r17, r22
    19b2:	35 c0       	rjmp	.+106    	;  0x1a1e
    19b4:	80 91 c7 01 	lds	r24, 0x01C7	;  0x8001c7
    19b8:	90 91 c8 01 	lds	r25, 0x01C8	;  0x8001c8
    19bc:	0e 94 d8 1b 	call	0x37b0	;  0x37b0
    19c0:	88 3c       	cpi	r24, 0xC8	; 200
    19c2:	91 05       	cpc	r25, r1
    19c4:	60 f5       	brcc	.+88     	;  0x1a1e
    19c6:	c0 e2       	ldi	r28, 0x20	; 32
    19c8:	cd 0f       	add	r28, r29
    19ca:	1d 17       	cp	r17, r29
    19cc:	b9 f0       	breq	.+46     	;  0x19fc
    19ce:	80 e2       	ldi	r24, 0x20	; 32
    19d0:	81 0f       	add	r24, r17
    19d2:	88 30       	cpi	r24, 0x08	; 8
    19d4:	40 f4       	brcc	.+16     	;  0x19e6
    19d6:	17 70       	andi	r17, 0x07	; 7
    19d8:	81 e0       	ldi	r24, 0x01	; 1
    19da:	01 c0       	rjmp	.+2      	;  0x19de
    19dc:	88 0f       	add	r24, r24
    19de:	1a 95       	dec	r17
    19e0:	ea f7       	brpl	.-6      	;  0x19dc
    19e2:	0e 94 59 11 	call	0x22b2	;  0x22b2
    19e6:	c8 30       	cpi	r28, 0x08	; 8
    19e8:	48 f4       	brcc	.+18     	;  0x19fc
    19ea:	81 e0       	ldi	r24, 0x01	; 1
    19ec:	9d 2f       	mov	r25, r29
    19ee:	97 70       	andi	r25, 0x07	; 7
    19f0:	01 c0       	rjmp	.+2      	;  0x19f4
    19f2:	88 0f       	add	r24, r24
    19f4:	9a 95       	dec	r25
    19f6:	ea f7       	brpl	.-6      	;  0x19f2
    19f8:	0e 94 52 11 	call	0x22a4	;  0x22a4
    19fc:	80 2f       	mov	r24, r16
    19fe:	0e 94 3f 11 	call	0x227e	;  0x227e
    1a02:	c8 30       	cpi	r28, 0x08	; 8
    1a04:	b8 f4       	brcc	.+46     	;  0x1a34
    1a06:	d7 70       	andi	r29, 0x07	; 7
    1a08:	81 e0       	ldi	r24, 0x01	; 1
    1a0a:	01 c0       	rjmp	.+2      	;  0x1a0e
    1a0c:	88 0f       	add	r24, r24
    1a0e:	da 95       	dec	r29
    1a10:	ea f7       	brpl	.-6      	;  0x1a0c
    1a12:	df 91       	pop	r29
    1a14:	cf 91       	pop	r28
    1a16:	1f 91       	pop	r17
    1a18:	0f 91       	pop	r16
    1a1a:	0c 94 59 11 	jmp	0x22b2	;  0x22b2
    1a1e:	80 e2       	ldi	r24, 0x20	; 32
    1a20:	8c 0f       	add	r24, r28
    1a22:	88 30       	cpi	r24, 0x08	; 8
    1a24:	38 f4       	brcc	.+14     	;  0x1a34
    1a26:	c7 70       	andi	r28, 0x07	; 7
    1a28:	81 e0       	ldi	r24, 0x01	; 1
    1a2a:	01 c0       	rjmp	.+2      	;  0x1a2e
    1a2c:	88 0f       	add	r24, r24
    1a2e:	ca 95       	dec	r28
    1a30:	ea f7       	brpl	.-6      	;  0x1a2c
    1a32:	ef cf       	rjmp	.-34     	;  0x1a12
    1a34:	df 91       	pop	r29
    1a36:	cf 91       	pop	r28
    1a38:	1f 91       	pop	r17
    1a3a:	0f 91       	pop	r16
    1a3c:	08 95       	ret
    1a3e:	9c 01       	movw	r18, r24
    1a40:	cb 01       	movw	r24, r22
    1a42:	23 3f       	cpi	r18, 0xF3	; 243
    1a44:	4c e5       	ldi	r20, 0x5C	; 92
    1a46:	34 07       	cpc	r19, r20
    1a48:	31 f1       	breq	.+76     	;  0x1a96
    1a4a:	90 f4       	brcc	.+36     	;  0x1a70
    1a4c:	28 3d       	cpi	r18, 0xD8	; 216
    1a4e:	fc e5       	ldi	r31, 0x5C	; 92
    1a50:	3f 07       	cpc	r19, r31
    1a52:	e9 f0       	breq	.+58     	;  0x1a8e
    1a54:	29 3d       	cpi	r18, 0xD9	; 217
    1a56:	4c e5       	ldi	r20, 0x5C	; 92
    1a58:	34 07       	cpc	r19, r20
    1a5a:	69 f1       	breq	.+90     	;  0x1ab6
    1a5c:	27 3d       	cpi	r18, 0xD7	; 215
    1a5e:	3c 45       	sbci	r19, 0x5C	; 92
    1a60:	79 f4       	brne	.+30     	;  0x1a80
    1a62:	26 e2       	ldi	r18, 0x26	; 38
    1a64:	41 ee       	ldi	r20, 0xE1	; 225
    1a66:	61 ee       	ldi	r22, 0xE1	; 225
    1a68:	0e 94 b2 0c 	call	0x1964	;  0x1964
    1a6c:	80 e0       	ldi	r24, 0x00	; 0
    1a6e:	08 95       	ret
    1a70:	25 3f       	cpi	r18, 0xF5	; 245
    1a72:	fc e5       	ldi	r31, 0x5C	; 92
    1a74:	3f 07       	cpc	r19, r31
    1a76:	b9 f0       	breq	.+46     	;  0x1aa6
    1a78:	90 f0       	brcs	.+36     	;  0x1a9e
    1a7a:	26 3f       	cpi	r18, 0xF6	; 246
    1a7c:	3c 45       	sbci	r19, 0x5C	; 92
    1a7e:	b9 f0       	breq	.+46     	;  0x1aae
    1a80:	fc 01       	movw	r30, r24
    1a82:	82 81       	ldd	r24, Z+2	; 0x02
    1a84:	88 23       	and	r24, r24
    1a86:	d1 f0       	breq	.+52     	;  0x1abc
    1a88:	10 92 c9 01 	sts	0x01C9, r1	;  0x8001c9
    1a8c:	08 95       	ret
    1a8e:	27 e2       	ldi	r18, 0x27	; 39
    1a90:	45 ee       	ldi	r20, 0xE5	; 229
    1a92:	65 ee       	ldi	r22, 0xE5	; 229
    1a94:	e9 cf       	rjmp	.-46     	;  0x1a68
    1a96:	26 e2       	ldi	r18, 0x26	; 38
    1a98:	41 ee       	ldi	r20, 0xE1	; 225
    1a9a:	60 ee       	ldi	r22, 0xE0	; 224
    1a9c:	e5 cf       	rjmp	.-54     	;  0x1a68
    1a9e:	27 e2       	ldi	r18, 0x27	; 39
    1aa0:	45 ee       	ldi	r20, 0xE5	; 229
    1aa2:	64 ee       	ldi	r22, 0xE4	; 228
    1aa4:	e1 cf       	rjmp	.-62     	;  0x1a68
    1aa6:	26 e2       	ldi	r18, 0x26	; 38
    1aa8:	41 ee       	ldi	r20, 0xE1	; 225
    1aaa:	62 ee       	ldi	r22, 0xE2	; 226
    1aac:	dd cf       	rjmp	.-70     	;  0x1a68
    1aae:	27 e2       	ldi	r18, 0x27	; 39
    1ab0:	45 ee       	ldi	r20, 0xE5	; 229
    1ab2:	66 ee       	ldi	r22, 0xE6	; 230
    1ab4:	d9 cf       	rjmp	.-78     	;  0x1a68
    1ab6:	28 e2       	ldi	r18, 0x28	; 40
    1ab8:	41 e0       	ldi	r20, 0x01	; 1
    1aba:	eb cf       	rjmp	.-42     	;  0x1a92
    1abc:	81 e0       	ldi	r24, 0x01	; 1
    1abe:	08 95       	ret
    1ac0:	cf 93       	push	r28
    1ac2:	df 93       	push	r29
    1ac4:	ec 01       	movw	r28, r24
    1ac6:	fb 01       	movw	r30, r22
    1ac8:	82 81       	ldd	r24, Z+2	; 0x02
    1aca:	88 23       	and	r24, r24
    1acc:	09 f4       	brne	.+2      	;  0x1ad0
    1ace:	19 c1       	rjmp	.+562    	;  0x1d02
    1ad0:	c2 30       	cpi	r28, 0x02	; 2
    1ad2:	fc e5       	ldi	r31, 0x5C	; 92
    1ad4:	df 07       	cpc	r29, r31
    1ad6:	c0 f1       	brcs	.+112    	;  0x1b48
    1ad8:	c6 31       	cpi	r28, 0x16	; 22
    1ada:	9c e5       	ldi	r25, 0x5C	; 92
    1adc:	d9 07       	cpc	r29, r25
    1ade:	30 f0       	brcs	.+12     	;  0x1aec
    1ae0:	9e 01       	movw	r18, r28
    1ae2:	2a 5f       	subi	r18, 0xFA	; 250
    1ae4:	3c 45       	sbci	r19, 0x5C	; 92
    1ae6:	29 30       	cpi	r18, 0x09	; 9
    1ae8:	31 05       	cpc	r19, r1
    1aea:	70 f5       	brcc	.+92     	;  0x1b48
    1aec:	0e 94 58 1a 	call	0x34b0	;  0x34b0
    1af0:	90 93 65 02 	sts	0x0265, r25	;  0x800265
    1af4:	80 93 64 02 	sts	0x0264, r24	;  0x800264
    1af8:	c0 31       	cpi	r28, 0x10	; 16
    1afa:	ec e5       	ldi	r30, 0x5C	; 92
    1afc:	de 07       	cpc	r29, r30
    1afe:	09 f4       	brne	.+2      	;  0x1b02
    1b00:	cf c0       	rjmp	.+414    	;  0x1ca0
    1b02:	08 f0       	brcs	.+2      	;  0x1b06
    1b04:	5b c0       	rjmp	.+182    	;  0x1bbc
    1b06:	c8 30       	cpi	r28, 0x08	; 8
    1b08:	8c e5       	ldi	r24, 0x5C	; 92
    1b0a:	d8 07       	cpc	r29, r24
    1b0c:	09 f4       	brne	.+2      	;  0x1b10
    1b0e:	b6 c0       	rjmp	.+364    	;  0x1c7c
    1b10:	88 f5       	brcc	.+98     	;  0x1b74
    1b12:	c4 30       	cpi	r28, 0x04	; 4
    1b14:	ec e5       	ldi	r30, 0x5C	; 92
    1b16:	de 07       	cpc	r29, r30
    1b18:	09 f4       	brne	.+2      	;  0x1b1c
    1b1a:	a8 c0       	rjmp	.+336    	;  0x1c6c
    1b1c:	c0 f4       	brcc	.+48     	;  0x1b4e
    1b1e:	c2 30       	cpi	r28, 0x02	; 2
    1b20:	8c e5       	ldi	r24, 0x5C	; 92
    1b22:	d8 07       	cpc	r29, r24
    1b24:	09 f4       	brne	.+2      	;  0x1b28
    1b26:	9c c0       	rjmp	.+312    	;  0x1c60
    1b28:	80 91 64 02 	lds	r24, 0x0264	;  0x800264
    1b2c:	82 60       	ori	r24, 0x02	; 2
    1b2e:	c3 30       	cpi	r28, 0x03	; 3
    1b30:	dc 45       	sbci	r29, 0x5C	; 92
    1b32:	09 f4       	brne	.+2      	;  0x1b36
    1b34:	98 c0       	rjmp	.+304    	;  0x1c66
    1b36:	80 91 64 02 	lds	r24, 0x0264	;  0x800264
    1b3a:	90 91 65 02 	lds	r25, 0x0265	;  0x800265
    1b3e:	0e 94 66 1a 	call	0x34cc	;  0x34cc
    1b42:	0e 94 f5 13 	call	0x27ea	;  0x27ea
    1b46:	80 e0       	ldi	r24, 0x00	; 0
    1b48:	df 91       	pop	r29
    1b4a:	cf 91       	pop	r28
    1b4c:	08 95       	ret
    1b4e:	80 91 64 02 	lds	r24, 0x0264	;  0x800264
    1b52:	80 61       	ori	r24, 0x10	; 16
    1b54:	c6 30       	cpi	r28, 0x06	; 6
    1b56:	ec e5       	ldi	r30, 0x5C	; 92
    1b58:	de 07       	cpc	r29, r30
    1b5a:	09 f4       	brne	.+2      	;  0x1b5e
    1b5c:	84 c0       	rjmp	.+264    	;  0x1c66
    1b5e:	80 91 64 02 	lds	r24, 0x0264	;  0x800264
    1b62:	88 60       	ori	r24, 0x08	; 8
    1b64:	c7 30       	cpi	r28, 0x07	; 7
    1b66:	dc 45       	sbci	r29, 0x5C	; 92
    1b68:	08 f4       	brcc	.+2      	;  0x1b6c
    1b6a:	7d c0       	rjmp	.+250    	;  0x1c66
    1b6c:	80 91 64 02 	lds	r24, 0x0264	;  0x800264
    1b70:	80 62       	ori	r24, 0x20	; 32
    1b72:	79 c0       	rjmp	.+242    	;  0x1c66
    1b74:	cc 30       	cpi	r28, 0x0C	; 12
    1b76:	8c e5       	ldi	r24, 0x5C	; 92
    1b78:	d8 07       	cpc	r29, r24
    1b7a:	09 f4       	brne	.+2      	;  0x1b7e
    1b7c:	89 c0       	rjmp	.+274    	;  0x1c90
    1b7e:	70 f4       	brcc	.+28     	;  0x1b9c
    1b80:	80 91 64 02 	lds	r24, 0x0264	;  0x800264
    1b84:	8c 60       	ori	r24, 0x0C	; 12
    1b86:	ca 30       	cpi	r28, 0x0A	; 10
    1b88:	ec e5       	ldi	r30, 0x5C	; 92
    1b8a:	de 07       	cpc	r29, r30
    1b8c:	09 f4       	brne	.+2      	;  0x1b90
    1b8e:	6b c0       	rjmp	.+214    	;  0x1c66
    1b90:	08 f4       	brcc	.+2      	;  0x1b94
    1b92:	78 c0       	rjmp	.+240    	;  0x1c84
    1b94:	80 91 64 02 	lds	r24, 0x0264	;  0x800264
    1b98:	8e 7f       	andi	r24, 0xFE	; 254
    1b9a:	65 c0       	rjmp	.+202    	;  0x1c66
    1b9c:	ce 30       	cpi	r28, 0x0E	; 14
    1b9e:	8c e5       	ldi	r24, 0x5C	; 92
    1ba0:	d8 07       	cpc	r29, r24
    1ba2:	09 f4       	brne	.+2      	;  0x1ba6
    1ba4:	79 c0       	rjmp	.+242    	;  0x1c98
    1ba6:	80 91 64 02 	lds	r24, 0x0264	;  0x800264
    1baa:	8b 7f       	andi	r24, 0xFB	; 251
    1bac:	cf 30       	cpi	r28, 0x0F	; 15
    1bae:	dc 45       	sbci	r29, 0x5C	; 92
    1bb0:	08 f4       	brcc	.+2      	;  0x1bb4
    1bb2:	59 c0       	rjmp	.+178    	;  0x1c66
    1bb4:	80 91 64 02 	lds	r24, 0x0264	;  0x800264
    1bb8:	8f 7e       	andi	r24, 0xEF	; 239
    1bba:	55 c0       	rjmp	.+170    	;  0x1c66
    1bbc:	cb 3f       	cpi	r28, 0xFB	; 251
    1bbe:	ec e5       	ldi	r30, 0x5C	; 92
    1bc0:	de 07       	cpc	r29, r30
    1bc2:	09 f4       	brne	.+2      	;  0x1bc6
    1bc4:	57 c0       	rjmp	.+174    	;  0x1c74
    1bc6:	30 f5       	brcc	.+76     	;  0x1c14
    1bc8:	c3 31       	cpi	r28, 0x13	; 19
    1bca:	8c e5       	ldi	r24, 0x5C	; 92
    1bcc:	d8 07       	cpc	r29, r24
    1bce:	09 f4       	brne	.+2      	;  0x1bd2
    1bd0:	6f c0       	rjmp	.+222    	;  0x1cb0
    1bd2:	78 f4       	brcc	.+30     	;  0x1bf2
    1bd4:	c1 31       	cpi	r28, 0x11	; 17
    1bd6:	ec e5       	ldi	r30, 0x5C	; 92
    1bd8:	de 07       	cpc	r29, r30
    1bda:	09 f4       	brne	.+2      	;  0x1bde
    1bdc:	65 c0       	rjmp	.+202    	;  0x1ca8
    1bde:	c2 31       	cpi	r28, 0x12	; 18
    1be0:	dc 45       	sbci	r29, 0x5C	; 92
    1be2:	09 f0       	breq	.+2      	;  0x1be6
    1be4:	a8 cf       	rjmp	.-176    	;  0x1b36
    1be6:	0e 94 f5 13 	call	0x27ea	;  0x27ea
    1bea:	80 91 64 02 	lds	r24, 0x0264	;  0x800264
    1bee:	8f 77       	andi	r24, 0x7F	; 127
    1bf0:	3a c0       	rjmp	.+116    	;  0x1c66
    1bf2:	c5 31       	cpi	r28, 0x15	; 21
    1bf4:	8c e5       	ldi	r24, 0x5C	; 92
    1bf6:	d8 07       	cpc	r29, r24
    1bf8:	09 f4       	brne	.+2      	;  0x1bfc
    1bfa:	62 c0       	rjmp	.+196    	;  0x1cc0
    1bfc:	08 f4       	brcc	.+2      	;  0x1c00
    1bfe:	76 c0       	rjmp	.+236    	;  0x1cec
    1c00:	80 91 65 02 	lds	r24, 0x0265	;  0x800265
    1c04:	81 60       	ori	r24, 0x01	; 1
    1c06:	ca 3f       	cpi	r28, 0xFA	; 250
    1c08:	dc 45       	sbci	r29, 0x5C	; 92
    1c0a:	09 f0       	breq	.+2      	;  0x1c0e
    1c0c:	94 cf       	rjmp	.-216    	;  0x1b36
    1c0e:	80 93 65 02 	sts	0x0265, r24	;  0x800265
    1c12:	91 cf       	rjmp	.-222    	;  0x1b36
    1c14:	cf 3f       	cpi	r28, 0xFF	; 255
    1c16:	fc e5       	ldi	r31, 0x5C	; 92
    1c18:	df 07       	cpc	r29, r31
    1c1a:	09 f4       	brne	.+2      	;  0x1c1e
    1c1c:	4d c0       	rjmp	.+154    	;  0x1cb8
    1c1e:	88 f4       	brcc	.+34     	;  0x1c42
    1c20:	80 91 65 02 	lds	r24, 0x0265	;  0x800265
    1c24:	8d 7f       	andi	r24, 0xFD	; 253
    1c26:	cd 3f       	cpi	r28, 0xFD	; 253
    1c28:	9c e5       	ldi	r25, 0x5C	; 92
    1c2a:	d9 07       	cpc	r29, r25
    1c2c:	81 f3       	breq	.-32     	;  0x1c0e
    1c2e:	80 91 65 02 	lds	r24, 0x0265	;  0x800265
    1c32:	8e 7f       	andi	r24, 0xFE	; 254
    1c34:	ce 3f       	cpi	r28, 0xFE	; 254
    1c36:	dc 45       	sbci	r29, 0x5C	; 92
    1c38:	50 f3       	brcs	.-44     	;  0x1c0e
    1c3a:	80 91 65 02 	lds	r24, 0x0265	;  0x800265
    1c3e:	83 60       	ori	r24, 0x03	; 3
    1c40:	e6 cf       	rjmp	.-52     	;  0x1c0e
    1c42:	c1 30       	cpi	r28, 0x01	; 1
    1c44:	fd e5       	ldi	r31, 0x5D	; 93
    1c46:	df 07       	cpc	r29, r31
    1c48:	09 f4       	brne	.+2      	;  0x1c4c
    1c4a:	59 c0       	rjmp	.+178    	;  0x1cfe
    1c4c:	08 f4       	brcc	.+2      	;  0x1c50
    1c4e:	44 c0       	rjmp	.+136    	;  0x1cd8
    1c50:	80 e0       	ldi	r24, 0x00	; 0
    1c52:	c2 30       	cpi	r28, 0x02	; 2
    1c54:	dd 45       	sbci	r29, 0x5D	; 93
    1c56:	09 f0       	breq	.+2      	;  0x1c5a
    1c58:	6e cf       	rjmp	.-292    	;  0x1b36
    1c5a:	0e 94 e4 1a 	call	0x35c8	;  0x35c8
    1c5e:	6b cf       	rjmp	.-298    	;  0x1b36
    1c60:	80 91 64 02 	lds	r24, 0x0264	;  0x800264
    1c64:	81 60       	ori	r24, 0x01	; 1
    1c66:	80 93 64 02 	sts	0x0264, r24	;  0x800264
    1c6a:	65 cf       	rjmp	.-310    	;  0x1b36
    1c6c:	80 91 64 02 	lds	r24, 0x0264	;  0x800264
    1c70:	84 60       	ori	r24, 0x04	; 4
    1c72:	f9 cf       	rjmp	.-14     	;  0x1c66
    1c74:	80 91 65 02 	lds	r24, 0x0265	;  0x800265
    1c78:	82 60       	ori	r24, 0x02	; 2
    1c7a:	c9 cf       	rjmp	.-110    	;  0x1c0e
    1c7c:	80 91 64 02 	lds	r24, 0x0264	;  0x800264
    1c80:	80 64       	ori	r24, 0x40	; 64
    1c82:	f1 cf       	rjmp	.-30     	;  0x1c66
    1c84:	0e 94 f5 13 	call	0x27ea	;  0x27ea
    1c88:	80 91 64 02 	lds	r24, 0x0264	;  0x800264
    1c8c:	80 68       	ori	r24, 0x80	; 128
    1c8e:	eb cf       	rjmp	.-42     	;  0x1c66
    1c90:	80 91 64 02 	lds	r24, 0x0264	;  0x800264
    1c94:	8d 7f       	andi	r24, 0xFD	; 253
    1c96:	e7 cf       	rjmp	.-50     	;  0x1c66
    1c98:	80 91 64 02 	lds	r24, 0x0264	;  0x800264
    1c9c:	87 7f       	andi	r24, 0xF7	; 247
    1c9e:	e3 cf       	rjmp	.-58     	;  0x1c66
    1ca0:	80 91 64 02 	lds	r24, 0x0264	;  0x800264
    1ca4:	8f 7d       	andi	r24, 0xDF	; 223
    1ca6:	df cf       	rjmp	.-66     	;  0x1c66
    1ca8:	80 91 64 02 	lds	r24, 0x0264	;  0x800264
    1cac:	8f 7b       	andi	r24, 0xBF	; 191
    1cae:	db cf       	rjmp	.-74     	;  0x1c66
    1cb0:	80 91 64 02 	lds	r24, 0x0264	;  0x800264
    1cb4:	83 7f       	andi	r24, 0xF3	; 243
    1cb6:	d7 cf       	rjmp	.-82     	;  0x1c66
    1cb8:	80 91 65 02 	lds	r24, 0x0265	;  0x800265
    1cbc:	8c 7f       	andi	r24, 0xFC	; 252
    1cbe:	a7 cf       	rjmp	.-178    	;  0x1c0e
    1cc0:	80 91 64 02 	lds	r24, 0x0264	;  0x800264
    1cc4:	82 fb       	bst	r24, 2
    1cc6:	99 27       	eor	r25, r25
    1cc8:	90 f9       	bld	r25, 0
    1cca:	21 e0       	ldi	r18, 0x01	; 1
    1ccc:	92 27       	eor	r25, r18
    1cce:	90 fb       	bst	r25, 0
    1cd0:	82 f9       	bld	r24, 2
    1cd2:	90 fb       	bst	r25, 0
    1cd4:	83 f9       	bld	r24, 3
    1cd6:	c7 cf       	rjmp	.-114    	;  0x1c66
    1cd8:	80 91 65 02 	lds	r24, 0x0265	;  0x800265
    1cdc:	98 2f       	mov	r25, r24
    1cde:	90 95       	com	r25
    1ce0:	91 70       	andi	r25, 0x01	; 1
    1ce2:	8e 7f       	andi	r24, 0xFE	; 254
    1ce4:	89 2b       	or	r24, r25
    1ce6:	90 fb       	bst	r25, 0
    1ce8:	81 f9       	bld	r24, 1
    1cea:	91 cf       	rjmp	.-222    	;  0x1c0e
    1cec:	0e 94 f5 13 	call	0x27ea	;  0x27ea
    1cf0:	90 91 64 02 	lds	r25, 0x0264	;  0x800264
    1cf4:	89 2f       	mov	r24, r25
    1cf6:	97 fb       	bst	r25, 7
    1cf8:	87 f9       	bld	r24, 7
    1cfa:	80 58       	subi	r24, 0x80	; 128
    1cfc:	b4 cf       	rjmp	.-152    	;  0x1c66
    1cfe:	81 e0       	ldi	r24, 0x01	; 1
    1d00:	ac cf       	rjmp	.-168    	;  0x1c5a
    1d02:	81 e0       	ldi	r24, 0x01	; 1
    1d04:	21 cf       	rjmp	.-446    	;  0x1b48
    1d06:	cf 93       	push	r28
    1d08:	df 93       	push	r29
    1d0a:	eb 01       	movw	r28, r22
    1d0c:	86 31       	cpi	r24, 0x16	; 22
    1d0e:	9c 45       	sbci	r25, 0x5C	; 92
    1d10:	11 f5       	brne	.+68     	;  0x1d56
    1d12:	0e 94 73 19 	call	0x32e6	;  0x32e6
    1d16:	9a 81       	ldd	r25, Y+2	; 0x02
    1d18:	99 23       	and	r25, r25
    1d1a:	99 f0       	breq	.+38     	;  0x1d42
    1d1c:	8a 7a       	andi	r24, 0xAA	; 170
    1d1e:	91 e0       	ldi	r25, 0x01	; 1
    1d20:	09 f4       	brne	.+2      	;  0x1d24
    1d22:	90 e0       	ldi	r25, 0x00	; 0
    1d24:	90 93 ca 01 	sts	0x01CA, r25	;  0x8001ca
    1d28:	81 11       	cpse	r24, r1
    1d2a:	09 c0       	rjmp	.+18     	;  0x1d3e
    1d2c:	89 e2       	ldi	r24, 0x29	; 41
    1d2e:	0e 94 4e 19 	call	0x329c	;  0x329c
    1d32:	0e 94 bf 19 	call	0x337e	;  0x337e
    1d36:	80 e0       	ldi	r24, 0x00	; 0
    1d38:	df 91       	pop	r29
    1d3a:	cf 91       	pop	r28
    1d3c:	08 95       	ret
    1d3e:	85 e3       	ldi	r24, 0x35	; 53
    1d40:	f6 cf       	rjmp	.-20     	;  0x1d2e
    1d42:	80 91 ca 01 	lds	r24, 0x01CA	;  0x8001ca
    1d46:	81 11       	cpse	r24, r1
    1d48:	04 c0       	rjmp	.+8      	;  0x1d52
    1d4a:	89 e2       	ldi	r24, 0x29	; 41
    1d4c:	0e 94 55 19 	call	0x32aa	;  0x32aa
    1d50:	f0 cf       	rjmp	.-32     	;  0x1d32
    1d52:	85 e3       	ldi	r24, 0x35	; 53
    1d54:	fb cf       	rjmp	.-10     	;  0x1d4c
    1d56:	81 e0       	ldi	r24, 0x01	; 1
    1d58:	ef cf       	rjmp	.-34     	;  0x1d38
    1d5a:	90 93 d0 01 	sts	0x01D0, r25	;  0x8001d0
    1d5e:	80 93 cf 01 	sts	0x01CF, r24	;  0x8001cf
    1d62:	08 95       	ret
    1d64:	e0 91 cf 01 	lds	r30, 0x01CF	;  0x8001cf
    1d68:	f0 91 d0 01 	lds	r31, 0x01D0	;  0x8001d0
    1d6c:	30 97       	sbiw	r30, 0x00	; 0
    1d6e:	21 f0       	breq	.+8      	;  0x1d78
    1d70:	01 90       	ld	r0, Z+
    1d72:	f0 81       	ld	r31, Z
    1d74:	e0 2d       	mov	r30, r0
    1d76:	09 94       	ijmp
    1d78:	80 e0       	ldi	r24, 0x00	; 0
    1d7a:	08 95       	ret
    1d7c:	ef 92       	push	r14
    1d7e:	ff 92       	push	r15
    1d80:	0f 93       	push	r16
    1d82:	1f 93       	push	r17
    1d84:	cf 93       	push	r28
    1d86:	df 93       	push	r29
    1d88:	8c 01       	movw	r16, r24
    1d8a:	e0 91 cf 01 	lds	r30, 0x01CF	;  0x8001cf
    1d8e:	f0 91 d0 01 	lds	r31, 0x01D0	;  0x8001d0
    1d92:	30 97       	sbiw	r30, 0x00	; 0
    1d94:	c1 f1       	breq	.+112    	;  0x1e06
    1d96:	02 80       	ldd	r0, Z+2	; 0x02
    1d98:	f3 81       	ldd	r31, Z+3	; 0x03
    1d9a:	e0 2d       	mov	r30, r0
    1d9c:	09 95       	icall
    1d9e:	80 91 34 02 	lds	r24, 0x0234	;  0x800234
    1da2:	82 ff       	sbrs	r24, 2
    1da4:	30 c0       	rjmp	.+96     	;  0x1e06
    1da6:	80 ff       	sbrs	r24, 0
    1da8:	04 c0       	rjmp	.+8      	;  0x1db2
    1daa:	8f e1       	ldi	r24, 0x1F	; 31
    1dac:	92 e0       	ldi	r25, 0x02	; 2
    1dae:	0e 94 9a 06 	call	0xd34	;  0xd34
    1db2:	d0 e0       	ldi	r29, 0x00	; 0
    1db4:	c0 e0       	ldi	r28, 0x00	; 0
    1db6:	89 e1       	ldi	r24, 0x19	; 25
    1db8:	e8 2e       	mov	r14, r24
    1dba:	82 e0       	ldi	r24, 0x02	; 2
    1dbc:	f8 2e       	mov	r15, r24
    1dbe:	80 91 34 02 	lds	r24, 0x0234	;  0x800234
    1dc2:	80 ff       	sbrs	r24, 0
    1dc4:	0e c0       	rjmp	.+28     	;  0x1de2
    1dc6:	f8 01       	movw	r30, r16
    1dc8:	ec 0f       	add	r30, r28
    1dca:	fd 1f       	adc	r31, r29
    1dcc:	80 81       	ld	r24, Z
    1dce:	1f 92       	push	r1
    1dd0:	8f 93       	push	r24
    1dd2:	ff 92       	push	r15
    1dd4:	ef 92       	push	r14
    1dd6:	0e 94 33 07 	call	0xe66	;  0xe66
    1dda:	0f 90       	pop	r0
    1ddc:	0f 90       	pop	r0
    1dde:	0f 90       	pop	r0
    1de0:	0f 90       	pop	r0
    1de2:	21 96       	adiw	r28, 0x01	; 1
    1de4:	c8 30       	cpi	r28, 0x08	; 8
    1de6:	d1 05       	cpc	r29, r1
    1de8:	51 f7       	brne	.-44     	;  0x1dbe
    1dea:	80 91 34 02 	lds	r24, 0x0234	;  0x800234
    1dee:	80 ff       	sbrs	r24, 0
    1df0:	0a c0       	rjmp	.+20     	;  0x1e06
    1df2:	87 e1       	ldi	r24, 0x17	; 23
    1df4:	92 e0       	ldi	r25, 0x02	; 2
    1df6:	df 91       	pop	r29
    1df8:	cf 91       	pop	r28
    1dfa:	1f 91       	pop	r17
    1dfc:	0f 91       	pop	r16
    1dfe:	ff 90       	pop	r15
    1e00:	ef 90       	pop	r14
    1e02:	0c 94 9a 06 	jmp	0xd34	;  0xd34
    1e06:	df 91       	pop	r29
    1e08:	cf 91       	pop	r28
    1e0a:	1f 91       	pop	r17
    1e0c:	0f 91       	pop	r16
    1e0e:	ff 90       	pop	r15
    1e10:	ef 90       	pop	r14
    1e12:	08 95       	ret
    1e14:	e0 91 cf 01 	lds	r30, 0x01CF	;  0x8001cf
    1e18:	f0 91 d0 01 	lds	r31, 0x01D0	;  0x8001d0
    1e1c:	30 97       	sbiw	r30, 0x00	; 0
    1e1e:	39 f0       	breq	.+14     	;  0x1e2e
    1e20:	22 e0       	ldi	r18, 0x02	; 2
    1e22:	dc 01       	movw	r26, r24
    1e24:	2c 93       	st	X, r18
    1e26:	04 80       	ldd	r0, Z+4	; 0x04
    1e28:	f5 81       	ldd	r31, Z+5	; 0x05
    1e2a:	e0 2d       	mov	r30, r0
    1e2c:	09 94       	ijmp
    1e2e:	08 95       	ret
    1e30:	20 91 cd 01 	lds	r18, 0x01CD	;  0x8001cd
    1e34:	30 91 ce 01 	lds	r19, 0x01CE	;  0x8001ce
    1e38:	28 17       	cp	r18, r24
    1e3a:	39 07       	cpc	r19, r25
    1e3c:	71 f0       	breq	.+28     	;  0x1e5a
    1e3e:	90 93 ce 01 	sts	0x01CE, r25	;  0x8001ce
    1e42:	80 93 cd 01 	sts	0x01CD, r24	;  0x8001cd
    1e46:	e0 91 cf 01 	lds	r30, 0x01CF	;  0x8001cf
    1e4a:	f0 91 d0 01 	lds	r31, 0x01D0	;  0x8001d0
    1e4e:	30 97       	sbiw	r30, 0x00	; 0
    1e50:	21 f0       	breq	.+8      	;  0x1e5a
    1e52:	06 80       	ldd	r0, Z+6	; 0x06
    1e54:	f7 81       	ldd	r31, Z+7	; 0x07
    1e56:	e0 2d       	mov	r30, r0
    1e58:	09 94       	ijmp
    1e5a:	08 95       	ret
    1e5c:	20 91 cb 01 	lds	r18, 0x01CB	;  0x8001cb
    1e60:	30 91 cc 01 	lds	r19, 0x01CC	;  0x8001cc
    1e64:	28 17       	cp	r18, r24
    1e66:	39 07       	cpc	r19, r25
    1e68:	71 f0       	breq	.+28     	;  0x1e86
    1e6a:	90 93 cc 01 	sts	0x01CC, r25	;  0x8001cc
    1e6e:	80 93 cb 01 	sts	0x01CB, r24	;  0x8001cb
    1e72:	e0 91 cf 01 	lds	r30, 0x01CF	;  0x8001cf
    1e76:	f0 91 d0 01 	lds	r31, 0x01D0	;  0x8001d0
    1e7a:	30 97       	sbiw	r30, 0x00	; 0
    1e7c:	21 f0       	breq	.+8      	;  0x1e86
    1e7e:	00 84       	ldd	r0, Z+8	; 0x08
    1e80:	f1 85       	ldd	r31, Z+9	; 0x09
    1e82:	e0 2d       	mov	r30, r0
    1e84:	09 94       	ijmp
    1e86:	08 95       	ret
    1e88:	85 b7       	in	r24, 0x35	; 53
    1e8a:	80 68       	ori	r24, 0x80	; 128
    1e8c:	85 bf       	out	0x35, r24	; 53
    1e8e:	85 b7       	in	r24, 0x35	; 53
    1e90:	80 68       	ori	r24, 0x80	; 128
    1e92:	85 bf       	out	0x35, r24	; 53
    1e94:	08 95       	ret
    1e96:	08 95       	ret
    1e98:	08 95       	ret
    1e9a:	0c 94 4b 0f 	jmp	0x1e96	;  0x1e96
    1e9e:	08 95       	ret
    1ea0:	0c 94 4f 0f 	jmp	0x1e9e	;  0x1e9e
    1ea4:	0e 94 44 0f 	call	0x1e88	;  0x1e88
    1ea8:	0e 94 4c 0f 	call	0x1e98	;  0x1e98
    1eac:	0c 94 4d 0f 	jmp	0x1e9a	;  0x1e9a
    1eb0:	81 e0       	ldi	r24, 0x01	; 1
    1eb2:	08 95       	ret
    1eb4:	0c 94 58 0f 	jmp	0x1eb0	;  0x1eb0
    1eb8:	0e 94 b7 1b 	call	0x376e	;  0x376e
    1ebc:	0e 94 a7 0b 	call	0x174e	;  0x174e
    1ec0:	0e 94 32 1c 	call	0x3864	;  0x3864
    1ec4:	0c 94 50 0f 	jmp	0x1ea0	;  0x1ea0
    1ec8:	cf 93       	push	r28
    1eca:	c8 2f       	mov	r28, r24
    1ecc:	80 91 34 02 	lds	r24, 0x0234	;  0x800234
    1ed0:	82 ff       	sbrs	r24, 2
    1ed2:	1e c0       	rjmp	.+60     	;  0x1f10
    1ed4:	80 ff       	sbrs	r24, 0
    1ed6:	1c c0       	rjmp	.+56     	;  0x1f10
    1ed8:	88 e3       	ldi	r24, 0x38	; 56
    1eda:	92 e0       	ldi	r25, 0x02	; 2
    1edc:	0e 94 9a 06 	call	0xd34	;  0xd34
    1ee0:	80 91 34 02 	lds	r24, 0x0234	;  0x800234
    1ee4:	80 ff       	sbrs	r24, 0
    1ee6:	14 c0       	rjmp	.+40     	;  0x1f10
    1ee8:	1f 92       	push	r1
    1eea:	cf 93       	push	r28
    1eec:	83 e3       	ldi	r24, 0x33	; 51
    1eee:	92 e0       	ldi	r25, 0x02	; 2
    1ef0:	9f 93       	push	r25
    1ef2:	8f 93       	push	r24
    1ef4:	0e 94 33 07 	call	0xe66	;  0xe66
    1ef8:	80 91 34 02 	lds	r24, 0x0234	;  0x800234
    1efc:	0f 90       	pop	r0
    1efe:	0f 90       	pop	r0
    1f00:	0f 90       	pop	r0
    1f02:	0f 90       	pop	r0
    1f04:	80 ff       	sbrs	r24, 0
    1f06:	04 c0       	rjmp	.+8      	;  0x1f10
    1f08:	81 e3       	ldi	r24, 0x31	; 49
    1f0a:	92 e0       	ldi	r25, 0x02	; 2
    1f0c:	0e 94 9a 06 	call	0xd34	;  0xd34
    1f10:	8c 2f       	mov	r24, r28
    1f12:	cf 91       	pop	r28
    1f14:	0c 94 d8 08 	jmp	0x11b0	;  0x11b0
    1f18:	bf 92       	push	r11
    1f1a:	cf 92       	push	r12
    1f1c:	df 92       	push	r13
    1f1e:	ef 92       	push	r14
    1f20:	ff 92       	push	r15
    1f22:	0f 93       	push	r16
    1f24:	1f 93       	push	r17
    1f26:	cf 93       	push	r28
    1f28:	df 93       	push	r29
    1f2a:	cd b7       	in	r28, 0x3d	; 61
    1f2c:	de b7       	in	r29, 0x3e	; 62
    1f2e:	2a 97       	sbiw	r28, 0x0a	; 10
    1f30:	0f b6       	in	r0, 0x3f	; 63
    1f32:	f8 94       	cli
    1f34:	de bf       	out	0x3e, r29	; 62
    1f36:	0f be       	out	0x3f, r0	; 63
    1f38:	cd bf       	out	0x3d, r28	; 61
    1f3a:	0e 94 fb 0b 	call	0x17f6	;  0x17f6
    1f3e:	0e 94 5a 0f 	call	0x1eb4	;  0x1eb4
    1f42:	88 23       	and	r24, r24
    1f44:	09 f4       	brne	.+2      	;  0x1f48
    1f46:	5e c0       	rjmp	.+188    	;  0x2004
    1f48:	82 ed       	ldi	r24, 0xD2	; 210
    1f4a:	c8 2e       	mov	r12, r24
    1f4c:	81 e0       	ldi	r24, 0x01	; 1
    1f4e:	d8 2e       	mov	r13, r24
    1f50:	10 e0       	ldi	r17, 0x00	; 0
    1f52:	00 e0       	ldi	r16, 0x00	; 0
    1f54:	b0 2e       	mov	r11, r16
    1f56:	80 2f       	mov	r24, r16
    1f58:	0e 94 57 0b 	call	0x16ae	;  0x16ae
    1f5c:	e8 2e       	mov	r14, r24
    1f5e:	f6 01       	movw	r30, r12
    1f60:	f1 90       	ld	r15, Z+
    1f62:	6f 01       	movw	r12, r30
    1f64:	f8 16       	cp	r15, r24
    1f66:	09 f4       	brne	.+2      	;  0x1f6a
    1f68:	47 c0       	rjmp	.+142    	;  0x1ff8
    1f6a:	80 91 34 02 	lds	r24, 0x0234	;  0x800234
    1f6e:	81 fd       	sbrc	r24, 1
    1f70:	0e 94 5d 0b 	call	0x16ba	;  0x16ba
    1f74:	9f 2d       	mov	r25, r15
    1f76:	9e 25       	eor	r25, r14
    1f78:	80 e0       	ldi	r24, 0x00	; 0
    1f7a:	ff 24       	eor	r15, r15
    1f7c:	f3 94       	inc	r15
    1f7e:	29 2f       	mov	r18, r25
    1f80:	2f 21       	and	r18, r15
    1f82:	b1 f1       	breq	.+108    	;  0x1ff0
    1f84:	8e 83       	std	Y+6, r24	; 0x06
    1f86:	bf 82       	std	Y+7, r11	; 0x07
    1f88:	ef 20       	and	r14, r15
    1f8a:	81 e0       	ldi	r24, 0x01	; 1
    1f8c:	09 f4       	brne	.+2      	;  0x1f90
    1f8e:	80 e0       	ldi	r24, 0x00	; 0
    1f90:	88 87       	std	Y+8, r24	; 0x08
    1f92:	0e 94 c0 1b 	call	0x3780	;  0x3780
    1f96:	81 60       	ori	r24, 0x01	; 1
    1f98:	78 2f       	mov	r23, r24
    1f9a:	9a 87       	std	Y+10, r25	; 0x0a
    1f9c:	89 87       	std	Y+9, r24	; 0x09
    1f9e:	4e 81       	ldd	r20, Y+6	; 0x06
    1fa0:	5f 81       	ldd	r21, Y+7	; 0x07
    1fa2:	68 85       	ldd	r22, Y+8	; 0x08
    1fa4:	8a 85       	ldd	r24, Y+10	; 0x0a
    1fa6:	0e 94 23 10 	call	0x2046	;  0x2046
    1faa:	f8 01       	movw	r30, r16
    1fac:	ee 52       	subi	r30, 0x2E	; 46
    1fae:	fe 4f       	sbci	r31, 0xFE	; 254
    1fb0:	80 81       	ld	r24, Z
    1fb2:	f8 26       	eor	r15, r24
    1fb4:	f0 82       	st	Z, r15
    1fb6:	0e 94 41 1e 	call	0x3c82	;  0x3c82
    1fba:	0e 94 b2 0e 	call	0x1d64	;  0x1d64
    1fbe:	90 91 d1 01 	lds	r25, 0x01D1	;  0x8001d1
    1fc2:	89 17       	cp	r24, r25
    1fc4:	81 f1       	breq	.+96     	;  0x2026
    1fc6:	0e 94 b2 0e 	call	0x1d64	;  0x1d64
    1fca:	80 93 d1 01 	sts	0x01D1, r24	;  0x8001d1
    1fce:	2a 96       	adiw	r28, 0x0a	; 10
    1fd0:	0f b6       	in	r0, 0x3f	; 63
    1fd2:	f8 94       	cli
    1fd4:	de bf       	out	0x3e, r29	; 62
    1fd6:	0f be       	out	0x3f, r0	; 63
    1fd8:	cd bf       	out	0x3d, r28	; 61
    1fda:	df 91       	pop	r29
    1fdc:	cf 91       	pop	r28
    1fde:	1f 91       	pop	r17
    1fe0:	0f 91       	pop	r16
    1fe2:	ff 90       	pop	r15
    1fe4:	ef 90       	pop	r14
    1fe6:	df 90       	pop	r13
    1fe8:	cf 90       	pop	r12
    1fea:	bf 90       	pop	r11
    1fec:	0c 94 64 0f 	jmp	0x1ec8	;  0x1ec8
    1ff0:	8f 5f       	subi	r24, 0xFF	; 255
    1ff2:	ff 0c       	add	r15, r15
    1ff4:	84 30       	cpi	r24, 0x04	; 4
    1ff6:	19 f6       	brne	.-122    	;  0x1f7e
    1ff8:	0f 5f       	subi	r16, 0xFF	; 255
    1ffa:	1f 4f       	sbci	r17, 0xFF	; 255
    1ffc:	05 30       	cpi	r16, 0x05	; 5
    1ffe:	11 05       	cpc	r17, r1
    2000:	09 f0       	breq	.+2      	;  0x2004
    2002:	a8 cf       	rjmp	.-176    	;  0x1f54
    2004:	8f ef       	ldi	r24, 0xFF	; 255
    2006:	89 83       	std	Y+1, r24	; 0x01
    2008:	8a 83       	std	Y+2, r24	; 0x02
    200a:	1b 82       	std	Y+3, r1	; 0x03
    200c:	0e 94 c0 1b 	call	0x3780	;  0x3780
    2010:	81 60       	ori	r24, 0x01	; 1
    2012:	78 2f       	mov	r23, r24
    2014:	9d 83       	std	Y+5, r25	; 0x05
    2016:	8c 83       	std	Y+4, r24	; 0x04
    2018:	49 81       	ldd	r20, Y+1	; 0x01
    201a:	5a 81       	ldd	r21, Y+2	; 0x02
    201c:	6b 81       	ldd	r22, Y+3	; 0x03
    201e:	8d 81       	ldd	r24, Y+5	; 0x05
    2020:	0e 94 23 10 	call	0x2046	;  0x2046
    2024:	c8 cf       	rjmp	.-112    	;  0x1fb6
    2026:	2a 96       	adiw	r28, 0x0a	; 10
    2028:	0f b6       	in	r0, 0x3f	; 63
    202a:	f8 94       	cli
    202c:	de bf       	out	0x3e, r29	; 62
    202e:	0f be       	out	0x3f, r0	; 63
    2030:	cd bf       	out	0x3d, r28	; 61
    2032:	df 91       	pop	r29
    2034:	cf 91       	pop	r28
    2036:	1f 91       	pop	r17
    2038:	0f 91       	pop	r16
    203a:	ff 90       	pop	r15
    203c:	ef 90       	pop	r14
    203e:	df 90       	pop	r13
    2040:	cf 90       	pop	r12
    2042:	bf 90       	pop	r11
    2044:	08 95       	ret
    2046:	cf 93       	push	r28
    2048:	df 93       	push	r29
    204a:	cd b7       	in	r28, 0x3d	; 61
    204c:	de b7       	in	r29, 0x3e	; 62
    204e:	2b 97       	sbiw	r28, 0x0b	; 11
    2050:	0f b6       	in	r0, 0x3f	; 63
    2052:	f8 94       	cli
    2054:	de bf       	out	0x3e, r29	; 62
    2056:	0f be       	out	0x3f, r0	; 63
    2058:	cd bf       	out	0x3d, r28	; 61
    205a:	4f 83       	std	Y+7, r20	; 0x07
    205c:	58 87       	std	Y+8, r21	; 0x08
    205e:	69 87       	std	Y+9, r22	; 0x09
    2060:	7a 87       	std	Y+10, r23	; 0x0a
    2062:	8b 87       	std	Y+11, r24	; 0x0b
    2064:	1e 82       	std	Y+6, r1	; 0x06
    2066:	1d 82       	std	Y+5, r1	; 0x05
    2068:	85 e0       	ldi	r24, 0x05	; 5
    206a:	fe 01       	movw	r30, r28
    206c:	37 96       	adiw	r30, 0x07	; 7
    206e:	de 01       	movw	r26, r28
    2070:	11 96       	adiw	r26, 0x01	; 1
    2072:	01 90       	ld	r0, Z+
    2074:	0d 92       	st	X+, r0
    2076:	8a 95       	dec	r24
    2078:	e1 f7       	brne	.-8      	;  0x2072
    207a:	49 81       	ldd	r20, Y+1	; 0x01
    207c:	5a 81       	ldd	r21, Y+2	; 0x02
    207e:	6b 81       	ldd	r22, Y+3	; 0x03
    2080:	7c 81       	ldd	r23, Y+4	; 0x04
    2082:	8d 81       	ldd	r24, Y+5	; 0x05
    2084:	9e 81       	ldd	r25, Y+6	; 0x06
    2086:	2b 96       	adiw	r28, 0x0b	; 11
    2088:	0f b6       	in	r0, 0x3f	; 63
    208a:	f8 94       	cli
    208c:	de bf       	out	0x3e, r29	; 62
    208e:	0f be       	out	0x3f, r0	; 63
    2090:	cd bf       	out	0x3d, r28	; 61
    2092:	df 91       	pop	r29
    2094:	cf 91       	pop	r28
    2096:	0c 94 6b 16 	jmp	0x2cd6	;  0x2cd6
    209a:	fc 01       	movw	r30, r24
    209c:	80 81       	ld	r24, Z
    209e:	91 81       	ldd	r25, Z+1	; 0x01
    20a0:	0c 94 20 19 	jmp	0x3240	;  0x3240
    20a4:	cf 93       	push	r28
    20a6:	c8 2f       	mov	r28, r24
    20a8:	88 23       	and	r24, r24
    20aa:	09 f4       	brne	.+2      	;  0x20ae
    20ac:	90 c0       	rjmp	.+288    	;  0x21ce
    20ae:	82 38       	cpi	r24, 0x82	; 130
    20b0:	c1 f4       	brne	.+48     	;  0x20e2
    20b2:	0e 94 b2 0e 	call	0x1d64	;  0x1d64
    20b6:	81 fd       	sbrc	r24, 1
    20b8:	8a c0       	rjmp	.+276    	;  0x21ce
    20ba:	89 e3       	ldi	r24, 0x39	; 57
    20bc:	0e 94 4e 19 	call	0x329c	;  0x329c
    20c0:	0e 94 bf 19 	call	0x337e	;  0x337e
    20c4:	2f ef       	ldi	r18, 0xFF	; 255
    20c6:	81 ee       	ldi	r24, 0xE1	; 225
    20c8:	94 e0       	ldi	r25, 0x04	; 4
    20ca:	21 50       	subi	r18, 0x01	; 1
    20cc:	80 40       	sbci	r24, 0x00	; 0
    20ce:	90 40       	sbci	r25, 0x00	; 0
    20d0:	e1 f7       	brne	.-8      	;  0x20ca
    20d2:	00 c0       	rjmp	.+0      	;  0x20d4
    20d4:	00 00       	nop
    20d6:	89 e3       	ldi	r24, 0x39	; 57
    20d8:	0e 94 55 19 	call	0x32aa	;  0x32aa
    20dc:	cf 91       	pop	r28
    20de:	0c 94 bf 19 	jmp	0x337e	;  0x337e
    20e2:	83 38       	cpi	r24, 0x83	; 131
    20e4:	a1 f4       	brne	.+40     	;  0x210e
    20e6:	0e 94 b2 0e 	call	0x1d64	;  0x1d64
    20ea:	80 fd       	sbrc	r24, 0
    20ec:	70 c0       	rjmp	.+224    	;  0x21ce
    20ee:	83 e5       	ldi	r24, 0x53	; 83
    20f0:	0e 94 4e 19 	call	0x329c	;  0x329c
    20f4:	0e 94 bf 19 	call	0x337e	;  0x337e
    20f8:	2f ef       	ldi	r18, 0xFF	; 255
    20fa:	81 ee       	ldi	r24, 0xE1	; 225
    20fc:	94 e0       	ldi	r25, 0x04	; 4
    20fe:	21 50       	subi	r18, 0x01	; 1
    2100:	80 40       	sbci	r24, 0x00	; 0
    2102:	90 40       	sbci	r25, 0x00	; 0
    2104:	e1 f7       	brne	.-8      	;  0x20fe
    2106:	00 c0       	rjmp	.+0      	;  0x2108
    2108:	00 00       	nop
    210a:	83 e5       	ldi	r24, 0x53	; 83
    210c:	e5 cf       	rjmp	.-54     	;  0x20d8
    210e:	84 38       	cpi	r24, 0x84	; 132
    2110:	a1 f4       	brne	.+40     	;  0x213a
    2112:	0e 94 b2 0e 	call	0x1d64	;  0x1d64
    2116:	82 fd       	sbrc	r24, 2
    2118:	5a c0       	rjmp	.+180    	;  0x21ce
    211a:	87 e4       	ldi	r24, 0x47	; 71
    211c:	0e 94 4e 19 	call	0x329c	;  0x329c
    2120:	0e 94 bf 19 	call	0x337e	;  0x337e
    2124:	2f ef       	ldi	r18, 0xFF	; 255
    2126:	81 ee       	ldi	r24, 0xE1	; 225
    2128:	94 e0       	ldi	r25, 0x04	; 4
    212a:	21 50       	subi	r18, 0x01	; 1
    212c:	80 40       	sbci	r24, 0x00	; 0
    212e:	90 40       	sbci	r25, 0x00	; 0
    2130:	e1 f7       	brne	.-8      	;  0x212a
    2132:	00 c0       	rjmp	.+0      	;  0x2134
    2134:	00 00       	nop
    2136:	87 e4       	ldi	r24, 0x47	; 71
    2138:	cf cf       	rjmp	.-98     	;  0x20d8
    213a:	8c ef       	ldi	r24, 0xFC	; 252
    213c:	8c 0f       	add	r24, r28
    213e:	81 3a       	cpi	r24, 0xA1	; 161
    2140:	b8 f4       	brcc	.+46     	;  0x2170
    2142:	8c 2f       	mov	r24, r28
    2144:	0e 94 32 23 	call	0x4664	;  0x4664
    2148:	81 11       	cpse	r24, r1
    214a:	41 c0       	rjmp	.+130    	;  0x21ce
    214c:	6c 2f       	mov	r22, r28
    214e:	80 91 00 01 	lds	r24, 0x0100	;  0x800100
    2152:	90 91 01 01 	lds	r25, 0x0101	;  0x800101
    2156:	0e 94 fb 1a 	call	0x35f6	;  0x35f6
    215a:	88 23       	and	r24, r24
    215c:	29 f0       	breq	.+10     	;  0x2168
    215e:	8c 2f       	mov	r24, r28
    2160:	0e 94 55 19 	call	0x32aa	;  0x32aa
    2164:	0e 94 bf 19 	call	0x337e	;  0x337e
    2168:	8c 2f       	mov	r24, r28
    216a:	0e 94 4e 19 	call	0x329c	;  0x329c
    216e:	b6 cf       	rjmp	.-148    	;  0x20dc
    2170:	80 e2       	ldi	r24, 0x20	; 32
    2172:	8c 0f       	add	r24, r28
    2174:	88 30       	cpi	r24, 0x08	; 8
    2176:	48 f4       	brcc	.+18     	;  0x218a
    2178:	c7 70       	andi	r28, 0x07	; 7
    217a:	81 e0       	ldi	r24, 0x01	; 1
    217c:	01 c0       	rjmp	.+2      	;  0x2180
    217e:	88 0f       	add	r24, r24
    2180:	ca 95       	dec	r28
    2182:	ea f7       	brpl	.-6      	;  0x217e
    2184:	0e 94 76 19 	call	0x32ec	;  0x32ec
    2188:	a9 cf       	rjmp	.-174    	;  0x20dc
    218a:	eb e5       	ldi	r30, 0x5B	; 91
    218c:	ec 0f       	add	r30, r28
    218e:	e3 30       	cpi	r30, 0x03	; 3
    2190:	40 f4       	brcc	.+16     	;  0x21a2
    2192:	f0 e0       	ldi	r31, 0x00	; 0
    2194:	ea 55       	subi	r30, 0x5A	; 90
    2196:	fe 4f       	sbci	r31, 0xFE	; 254
    2198:	80 81       	ld	r24, Z
    219a:	90 e0       	ldi	r25, 0x00	; 0
    219c:	cf 91       	pop	r28
    219e:	0c 94 18 0f 	jmp	0x1e30	;  0x1e30
    21a2:	e8 e5       	ldi	r30, 0x58	; 88
    21a4:	ec 0f       	add	r30, r28
    21a6:	e7 31       	cpi	r30, 0x17	; 23
    21a8:	50 f4       	brcc	.+20     	;  0x21be
    21aa:	f0 e0       	ldi	r31, 0x00	; 0
    21ac:	ee 0f       	add	r30, r30
    21ae:	ff 1f       	adc	r31, r31
    21b0:	e8 58       	subi	r30, 0x88	; 136
    21b2:	fe 4f       	sbci	r31, 0xFE	; 254
    21b4:	80 81       	ld	r24, Z
    21b6:	91 81       	ldd	r25, Z+1	; 0x01
    21b8:	cf 91       	pop	r28
    21ba:	0c 94 2e 0f 	jmp	0x1e5c	;  0x1e5c
    21be:	c0 3f       	cpi	r28, 0xF0	; 240
    21c0:	30 f0       	brcs	.+12     	;  0x21ce
    21c2:	8c 2f       	mov	r24, r28
    21c4:	0e 94 cd 1c 	call	0x399a	;  0x399a
    21c8:	cf 91       	pop	r28
    21ca:	0c 94 b4 1d 	jmp	0x3b68	;  0x3b68
    21ce:	cf 91       	pop	r28
    21d0:	08 95       	ret
    21d2:	88 23       	and	r24, r24
    21d4:	09 f4       	brne	.+2      	;  0x21d8
    21d6:	52 c0       	rjmp	.+164    	;  0x227c
    21d8:	82 38       	cpi	r24, 0x82	; 130
    21da:	71 f4       	brne	.+28     	;  0x21f8
    21dc:	0e 94 b2 0e 	call	0x1d64	;  0x1d64
    21e0:	81 ff       	sbrs	r24, 1
    21e2:	4c c0       	rjmp	.+152    	;  0x227c
    21e4:	89 e3       	ldi	r24, 0x39	; 57
    21e6:	0e 94 4e 19 	call	0x329c	;  0x329c
    21ea:	0e 94 bf 19 	call	0x337e	;  0x337e
    21ee:	89 e3       	ldi	r24, 0x39	; 57
    21f0:	0e 94 55 19 	call	0x32aa	;  0x32aa
    21f4:	0c 94 bf 19 	jmp	0x337e	;  0x337e
    21f8:	83 38       	cpi	r24, 0x83	; 131
    21fa:	59 f4       	brne	.+22     	;  0x2212
    21fc:	0e 94 b2 0e 	call	0x1d64	;  0x1d64
    2200:	80 ff       	sbrs	r24, 0
    2202:	3c c0       	rjmp	.+120    	;  0x227c
    2204:	83 e5       	ldi	r24, 0x53	; 83
    2206:	0e 94 4e 19 	call	0x329c	;  0x329c
    220a:	0e 94 bf 19 	call	0x337e	;  0x337e
    220e:	83 e5       	ldi	r24, 0x53	; 83
    2210:	ef cf       	rjmp	.-34     	;  0x21f0
    2212:	84 38       	cpi	r24, 0x84	; 132
    2214:	59 f4       	brne	.+22     	;  0x222c
    2216:	0e 94 b2 0e 	call	0x1d64	;  0x1d64
    221a:	82 ff       	sbrs	r24, 2
    221c:	2f c0       	rjmp	.+94     	;  0x227c
    221e:	87 e4       	ldi	r24, 0x47	; 71
    2220:	0e 94 4e 19 	call	0x329c	;  0x329c
    2224:	0e 94 bf 19 	call	0x337e	;  0x337e
    2228:	87 e4       	ldi	r24, 0x47	; 71
    222a:	e2 cf       	rjmp	.-60     	;  0x21f0
    222c:	9c ef       	ldi	r25, 0xFC	; 252
    222e:	98 0f       	add	r25, r24
    2230:	91 3a       	cpi	r25, 0xA1	; 161
    2232:	f0 f2       	brcs	.-68     	;  0x21f0
    2234:	90 e2       	ldi	r25, 0x20	; 32
    2236:	98 0f       	add	r25, r24
    2238:	98 30       	cpi	r25, 0x08	; 8
    223a:	50 f4       	brcc	.+20     	;  0x2250
    223c:	87 70       	andi	r24, 0x07	; 7
    223e:	91 e0       	ldi	r25, 0x01	; 1
    2240:	01 c0       	rjmp	.+2      	;  0x2244
    2242:	99 0f       	add	r25, r25
    2244:	8a 95       	dec	r24
    2246:	ea f7       	brpl	.-6      	;  0x2242
    2248:	89 2f       	mov	r24, r25
    224a:	0e 94 7c 19 	call	0x32f8	;  0x32f8
    224e:	d2 cf       	rjmp	.-92     	;  0x21f4
    2250:	9b e5       	ldi	r25, 0x5B	; 91
    2252:	98 0f       	add	r25, r24
    2254:	93 30       	cpi	r25, 0x03	; 3
    2256:	20 f4       	brcc	.+8      	;  0x2260
    2258:	90 e0       	ldi	r25, 0x00	; 0
    225a:	80 e0       	ldi	r24, 0x00	; 0
    225c:	0c 94 18 0f 	jmp	0x1e30	;  0x1e30
    2260:	98 e5       	ldi	r25, 0x58	; 88
    2262:	98 0f       	add	r25, r24
    2264:	97 31       	cpi	r25, 0x17	; 23
    2266:	20 f4       	brcc	.+8      	;  0x2270
    2268:	90 e0       	ldi	r25, 0x00	; 0
    226a:	80 e0       	ldi	r24, 0x00	; 0
    226c:	0c 94 2e 0f 	jmp	0x1e5c	;  0x1e5c
    2270:	80 3f       	cpi	r24, 0xF0	; 240
    2272:	20 f0       	brcs	.+8      	;  0x227c
    2274:	0e 94 35 1d 	call	0x3a6a	;  0x3a6a
    2278:	0c 94 b4 1d 	jmp	0x3b68	;  0x3b68
    227c:	08 95       	ret
    227e:	cf 93       	push	r28
    2280:	c8 2f       	mov	r28, r24
    2282:	0e 94 52 10 	call	0x20a4	;  0x20a4
    2286:	c9 33       	cpi	r28, 0x39	; 57
    2288:	49 f4       	brne	.+18     	;  0x229c
    228a:	2f ef       	ldi	r18, 0xFF	; 255
    228c:	87 ee       	ldi	r24, 0xE7	; 231
    228e:	93 e0       	ldi	r25, 0x03	; 3
    2290:	21 50       	subi	r18, 0x01	; 1
    2292:	80 40       	sbci	r24, 0x00	; 0
    2294:	90 40       	sbci	r25, 0x00	; 0
    2296:	e1 f7       	brne	.-8      	;  0x2290
    2298:	00 c0       	rjmp	.+0      	;  0x229a
    229a:	00 00       	nop
    229c:	8c 2f       	mov	r24, r28
    229e:	cf 91       	pop	r28
    22a0:	0c 94 e9 10 	jmp	0x21d2	;  0x21d2
    22a4:	88 23       	and	r24, r24
    22a6:	21 f0       	breq	.+8      	;  0x22b0
    22a8:	0e 94 76 19 	call	0x32ec	;  0x32ec
    22ac:	0c 94 bf 19 	jmp	0x337e	;  0x337e
    22b0:	08 95       	ret
    22b2:	88 23       	and	r24, r24
    22b4:	21 f0       	breq	.+8      	;  0x22be
    22b6:	0e 94 7c 19 	call	0x32f8	;  0x32f8
    22ba:	0c 94 bf 19 	jmp	0x337e	;  0x337e
    22be:	08 95       	ret
    22c0:	bf 92       	push	r11
    22c2:	cf 92       	push	r12
    22c4:	df 92       	push	r13
    22c6:	ef 92       	push	r14
    22c8:	ff 92       	push	r15
    22ca:	0f 93       	push	r16
    22cc:	1f 93       	push	r17
    22ce:	cf 93       	push	r28
    22d0:	df 93       	push	r29
    22d2:	6c 01       	movw	r12, r24
    22d4:	d6 2f       	mov	r29, r22
    22d6:	c7 2f       	mov	r28, r23
    22d8:	fc 01       	movw	r30, r24
    22da:	05 81       	ldd	r16, Z+5	; 0x05
    22dc:	02 95       	swap	r16
    22de:	0f 70       	andi	r16, 0x0F	; 15
    22e0:	12 81       	ldd	r17, Z+2	; 0x02
    22e2:	11 11       	cpse	r17, r1
    22e4:	0e 94 93 19 	call	0x3326	;  0x3326
    22e8:	0e 94 6c 19 	call	0x32d8	;  0x32d8
    22ec:	e8 2e       	mov	r14, r24
    22ee:	88 23       	and	r24, r24
    22f0:	71 f0       	breq	.+28     	;  0x230e
    22f2:	11 23       	and	r17, r17
    22f4:	b1 f0       	breq	.+44     	;  0x2322
    22f6:	80 e2       	ldi	r24, 0x20	; 32
    22f8:	8d 0f       	add	r24, r29
    22fa:	88 30       	cpi	r24, 0x08	; 8
    22fc:	90 f0       	brcs	.+36     	;  0x2322
    22fe:	82 e0       	ldi	r24, 0x02	; 2
    2300:	0e 94 0a 1a 	call	0x3414	;  0x3414
    2304:	0e 94 6c 19 	call	0x32d8	;  0x32d8
    2308:	91 e0       	ldi	r25, 0x01	; 1
    230a:	e8 2e       	mov	r14, r24
    230c:	e9 26       	eor	r14, r25
    230e:	bc 2e       	mov	r11, r28
    2310:	b2 94       	swap	r11
    2312:	9f e0       	ldi	r25, 0x0F	; 15
    2314:	b9 22       	and	r11, r25
    2316:	eb 2d       	mov	r30, r11
    2318:	f0 e0       	ldi	r31, 0x00	; 0
    231a:	e2 56       	subi	r30, 0x62	; 98
    231c:	f3 4d       	sbci	r31, 0xD3	; 211
    231e:	0c 94 2e 2c 	jmp	0x585c	;  0x585c
    2322:	e1 2c       	mov	r14, r1
    2324:	f4 cf       	rjmp	.-24     	;  0x230e
    2326:	0c 2f       	mov	r16, r28
    2328:	0f 70       	andi	r16, 0x0F	; 15
    232a:	c0 7f       	andi	r28, 0xF0	; 240
    232c:	11 f0       	breq	.+4      	;  0x2332
    232e:	02 95       	swap	r16
    2330:	00 7f       	andi	r16, 0xF0	; 240
    2332:	11 23       	and	r17, r17
    2334:	a9 f0       	breq	.+42     	;  0x2360
    2336:	00 23       	and	r16, r16
    2338:	59 f0       	breq	.+22     	;  0x2350
    233a:	80 e2       	ldi	r24, 0x20	; 32
    233c:	8d 0f       	add	r24, r29
    233e:	88 30       	cpi	r24, 0x08	; 8
    2340:	10 f0       	brcs	.+4      	;  0x2346
    2342:	d1 11       	cpse	r29, r1
    2344:	09 c0       	rjmp	.+18     	;  0x2358
    2346:	80 2f       	mov	r24, r16
    2348:	0e 94 76 19 	call	0x32ec	;  0x32ec
    234c:	0e 94 bf 19 	call	0x337e	;  0x337e
    2350:	8d 2f       	mov	r24, r29
    2352:	0e 94 52 10 	call	0x20a4	;  0x20a4
    2356:	14 c0       	rjmp	.+40     	;  0x2380
    2358:	80 2f       	mov	r24, r16
    235a:	0e 94 86 19 	call	0x330c	;  0x330c
    235e:	f6 cf       	rjmp	.-20     	;  0x234c
    2360:	8d 2f       	mov	r24, r29
    2362:	0e 94 e9 10 	call	0x21d2	;  0x21d2
    2366:	00 23       	and	r16, r16
    2368:	59 f0       	breq	.+22     	;  0x2380
    236a:	80 e2       	ldi	r24, 0x20	; 32
    236c:	8d 0f       	add	r24, r29
    236e:	88 30       	cpi	r24, 0x08	; 8
    2370:	10 f0       	brcs	.+4      	;  0x2376
    2372:	d1 11       	cpse	r29, r1
    2374:	2c c0       	rjmp	.+88     	;  0x23ce
    2376:	80 2f       	mov	r24, r16
    2378:	0e 94 7c 19 	call	0x32f8	;  0x32f8
    237c:	0e 94 bf 19 	call	0x337e	;  0x337e
    2380:	2b 2d       	mov	r18, r11
    2382:	28 50       	subi	r18, 0x08	; 8
    2384:	33 0b       	sbc	r19, r19
    2386:	24 30       	cpi	r18, 0x04	; 4
    2388:	31 05       	cpc	r19, r1
    238a:	20 f4       	brcc	.+8      	;  0x2394
    238c:	0e 94 b2 0e 	call	0x1d64	;  0x1d64
    2390:	0e 94 d8 08 	call	0x11b0	;  0x11b0
    2394:	ee 20       	and	r14, r14
    2396:	09 f4       	brne	.+2      	;  0x239a
    2398:	d5 c1       	rjmp	.+938    	;  0x2744
    239a:	0e 94 68 19 	call	0x32d0	;  0x32d0
    239e:	80 fd       	sbrc	r24, 0
    23a0:	d1 c1       	rjmp	.+930    	;  0x2744
    23a2:	f6 01       	movw	r30, r12
    23a4:	12 82       	std	Z+2, r1	; 0x02
    23a6:	0e 94 62 19 	call	0x32c4	;  0x32c4
    23aa:	0e 94 ef 17 	call	0x2fde	;  0x2fde
    23ae:	c6 01       	movw	r24, r12
    23b0:	0e 94 c3 13 	call	0x2786	;  0x2786
    23b4:	0e 94 62 19 	call	0x32c4	;  0x32c4
    23b8:	df 91       	pop	r29
    23ba:	cf 91       	pop	r28
    23bc:	1f 91       	pop	r17
    23be:	0f 91       	pop	r16
    23c0:	ff 90       	pop	r15
    23c2:	ef 90       	pop	r14
    23c4:	df 90       	pop	r13
    23c6:	cf 90       	pop	r12
    23c8:	bf 90       	pop	r11
    23ca:	0c 94 10 18 	jmp	0x3020	;  0x3020
    23ce:	80 2f       	mov	r24, r16
    23d0:	0e 94 8c 19 	call	0x3318	;  0x3318
    23d4:	d3 cf       	rjmp	.-90     	;  0x237c
    23d6:	fc 2f       	mov	r31, r28
    23d8:	ff 70       	andi	r31, 0x0F	; 15
    23da:	ff 2e       	mov	r15, r31
    23dc:	c0 7f       	andi	r28, 0xF0	; 240
    23de:	c0 32       	cpi	r28, 0x20	; 32
    23e0:	19 f0       	breq	.+6      	;  0x23e8
    23e2:	f2 94       	swap	r15
    23e4:	80 ef       	ldi	r24, 0xF0	; 240
    23e6:	f8 22       	and	r15, r24
    23e8:	dd 23       	and	r29, r29
    23ea:	69 f0       	breq	.+26     	;  0x2406
    23ec:	d1 30       	cpi	r29, 0x01	; 1
    23ee:	49 f1       	breq	.+82     	;  0x2442
    23f0:	11 23       	and	r17, r17
    23f2:	91 f1       	breq	.+100    	;  0x2458
    23f4:	00 23       	and	r16, r16
    23f6:	51 f1       	breq	.+84     	;  0x244c
    23f8:	f6 01       	movw	r30, r12
    23fa:	85 81       	ldd	r24, Z+5	; 0x05
    23fc:	80 ff       	sbrs	r24, 0
    23fe:	a8 cf       	rjmp	.-176    	;  0x2350
    2400:	8f 70       	andi	r24, 0x0F	; 15
    2402:	85 83       	std	Z+5, r24	; 0x05
    2404:	23 c0       	rjmp	.+70     	;  0x244c
    2406:	11 23       	and	r17, r17
    2408:	81 f0       	breq	.+32     	;  0x242a
    240a:	01 11       	cpse	r16, r1
    240c:	06 c0       	rjmp	.+12     	;  0x241a
    240e:	0e 94 a6 19 	call	0x334c	;  0x334c
    2412:	8f 29       	or	r24, r15
    2414:	0e 94 52 11 	call	0x22a4	;  0x22a4
    2418:	b3 cf       	rjmp	.-154    	;  0x2380
    241a:	01 30       	cpi	r16, 0x01	; 1
    241c:	c1 f7       	brne	.-16     	;  0x240e
    241e:	0e 94 a6 19 	call	0x334c	;  0x334c
    2422:	8f 29       	or	r24, r15
    2424:	0e 94 ac 19 	call	0x3358	;  0x3358
    2428:	ab cf       	rjmp	.-170    	;  0x2380
    242a:	01 11       	cpse	r16, r1
    242c:	06 c0       	rjmp	.+12     	;  0x243a
    242e:	0e 94 b5 19 	call	0x336a	;  0x336a
    2432:	8f 2d       	mov	r24, r15
    2434:	0e 94 59 11 	call	0x22b2	;  0x22b2
    2438:	a3 cf       	rjmp	.-186    	;  0x2380
    243a:	01 30       	cpi	r16, 0x01	; 1
    243c:	09 f4       	brne	.+2      	;  0x2440
    243e:	a0 cf       	rjmp	.-192    	;  0x2380
    2440:	f6 cf       	rjmp	.-20     	;  0x242e
    2442:	11 23       	and	r17, r17
    2444:	29 f0       	breq	.+10     	;  0x2450
    2446:	06 30       	cpi	r16, 0x06	; 6
    2448:	08 f0       	brcs	.+2      	;  0x244c
    244a:	9a cf       	rjmp	.-204    	;  0x2380
    244c:	8f 2d       	mov	r24, r15
    244e:	e2 cf       	rjmp	.-60     	;  0x2414
    2450:	05 30       	cpi	r16, 0x05	; 5
    2452:	08 f0       	brcs	.+2      	;  0x2456
    2454:	95 cf       	rjmp	.-214    	;  0x2380
    2456:	ed cf       	rjmp	.-38     	;  0x2432
    2458:	00 23       	and	r16, r16
    245a:	59 f3       	breq	.-42     	;  0x2432
    245c:	d9 33       	cpi	r29, 0x39	; 57
    245e:	49 f4       	brne	.+18     	;  0x2472
    2460:	ff ef       	ldi	r31, 0xFF	; 255
    2462:	27 ee       	ldi	r18, 0xE7	; 231
    2464:	33 e0       	ldi	r19, 0x03	; 3
    2466:	f1 50       	subi	r31, 0x01	; 1
    2468:	20 40       	sbci	r18, 0x00	; 0
    246a:	30 40       	sbci	r19, 0x00	; 0
    246c:	e1 f7       	brne	.-8      	;  0x2466
    246e:	00 c0       	rjmp	.+0      	;  0x2470
    2470:	00 00       	nop
    2472:	8d 2f       	mov	r24, r29
    2474:	0e 94 e9 10 	call	0x21d2	;  0x21d2
    2478:	83 cf       	rjmp	.-250    	;  0x2380
    247a:	8c 2f       	mov	r24, r28
    247c:	86 95       	lsr	r24
    247e:	86 95       	lsr	r24
    2480:	83 70       	andi	r24, 0x03	; 3
    2482:	69 f0       	breq	.+26     	;  0x249e
    2484:	81 30       	cpi	r24, 0x01	; 1
    2486:	09 f0       	breq	.+2      	;  0x248a
    2488:	7b cf       	rjmp	.-266    	;  0x2380
    248a:	8d 2f       	mov	r24, r29
    248c:	9c 2f       	mov	r25, r28
    248e:	93 70       	andi	r25, 0x03	; 3
    2490:	11 11       	cpse	r17, r1
    2492:	02 c0       	rjmp	.+4      	;  0x2498
    2494:	90 e0       	ldi	r25, 0x00	; 0
    2496:	80 e0       	ldi	r24, 0x00	; 0
    2498:	0e 94 2e 0f 	call	0x1e5c	;  0x1e5c
    249c:	71 cf       	rjmp	.-286    	;  0x2380
    249e:	8d 2f       	mov	r24, r29
    24a0:	9c 2f       	mov	r25, r28
    24a2:	93 70       	andi	r25, 0x03	; 3
    24a4:	11 11       	cpse	r17, r1
    24a6:	02 c0       	rjmp	.+4      	;  0x24ac
    24a8:	90 e0       	ldi	r25, 0x00	; 0
    24aa:	80 e0       	ldi	r24, 0x00	; 0
    24ac:	0e 94 18 0f 	call	0x1e30	;  0x1e30
    24b0:	67 cf       	rjmp	.-306    	;  0x2380
    24b2:	11 23       	and	r17, r17
    24b4:	09 f1       	breq	.+66     	;  0x24f8
    24b6:	d5 3f       	cpi	r29, 0xF5	; 245
    24b8:	99 f0       	breq	.+38     	;  0x24e0
    24ba:	d6 3f       	cpi	r29, 0xF6	; 246
    24bc:	b9 f0       	breq	.+46     	;  0x24ec
    24be:	d4 3f       	cpi	r29, 0xF4	; 244
    24c0:	49 f4       	brne	.+18     	;  0x24d4
    24c2:	80 91 5e 02 	lds	r24, 0x025E	;  0x80025e
    24c6:	90 91 5f 02 	lds	r25, 0x025F	;  0x80025f
    24ca:	81 60       	ori	r24, 0x01	; 1
    24cc:	90 93 5f 02 	sts	0x025F, r25	;  0x80025f
    24d0:	80 93 5e 02 	sts	0x025E, r24	;  0x80025e
    24d4:	8d 2f       	mov	r24, r29
    24d6:	0e 94 cd 1c 	call	0x399a	;  0x399a
    24da:	0e 94 b4 1d 	call	0x3b68	;  0x3b68
    24de:	50 cf       	rjmp	.-352    	;  0x2380
    24e0:	80 91 5e 02 	lds	r24, 0x025E	;  0x80025e
    24e4:	90 91 5f 02 	lds	r25, 0x025F	;  0x80025f
    24e8:	82 60       	ori	r24, 0x02	; 2
    24ea:	f0 cf       	rjmp	.-32     	;  0x24cc
    24ec:	80 91 5e 02 	lds	r24, 0x025E	;  0x80025e
    24f0:	90 91 5f 02 	lds	r25, 0x025F	;  0x80025f
    24f4:	84 60       	ori	r24, 0x04	; 4
    24f6:	ea cf       	rjmp	.-44     	;  0x24cc
    24f8:	d5 3f       	cpi	r29, 0xF5	; 245
    24fa:	89 f0       	breq	.+34     	;  0x251e
    24fc:	d6 3f       	cpi	r29, 0xF6	; 246
    24fe:	a9 f0       	breq	.+42     	;  0x252a
    2500:	d4 3f       	cpi	r29, 0xF4	; 244
    2502:	49 f4       	brne	.+18     	;  0x2516
    2504:	80 91 5e 02 	lds	r24, 0x025E	;  0x80025e
    2508:	90 91 5f 02 	lds	r25, 0x025F	;  0x80025f
    250c:	8e 7f       	andi	r24, 0xFE	; 254
    250e:	90 93 5f 02 	sts	0x025F, r25	;  0x80025f
    2512:	80 93 5e 02 	sts	0x025E, r24	;  0x80025e
    2516:	8d 2f       	mov	r24, r29
    2518:	0e 94 35 1d 	call	0x3a6a	;  0x3a6a
    251c:	de cf       	rjmp	.-68     	;  0x24da
    251e:	80 91 5e 02 	lds	r24, 0x025E	;  0x80025e
    2522:	90 91 5f 02 	lds	r25, 0x025F	;  0x80025f
    2526:	8d 7f       	andi	r24, 0xFD	; 253
    2528:	f2 cf       	rjmp	.-28     	;  0x250e
    252a:	80 91 5e 02 	lds	r24, 0x025E	;  0x80025e
    252e:	90 91 5f 02 	lds	r25, 0x025F	;  0x80025f
    2532:	8b 7f       	andi	r24, 0xFB	; 251
    2534:	ec cf       	rjmp	.-40     	;  0x250e
    2536:	8c 2f       	mov	r24, r28
    2538:	83 70       	andi	r24, 0x03	; 3
    253a:	09 f0       	breq	.+2      	;  0x253e
    253c:	41 c0       	rjmp	.+130    	;  0x25c0
    253e:	11 11       	cpse	r17, r1
    2540:	1f cf       	rjmp	.-450    	;  0x2380
    2542:	4d 2f       	mov	r20, r29
    2544:	42 95       	swap	r20
    2546:	46 95       	lsr	r20
    2548:	47 70       	andi	r20, 0x07	; 7
    254a:	44 0f       	add	r20, r20
    254c:	44 0f       	add	r20, r20
    254e:	0d 2f       	mov	r16, r29
    2550:	0f 70       	andi	r16, 0x0F	; 15
    2552:	10 e0       	ldi	r17, 0x00	; 0
    2554:	30 e0       	ldi	r19, 0x00	; 0
    2556:	20 e0       	ldi	r18, 0x00	; 0
    2558:	04 2e       	mov	r0, r20
    255a:	04 c0       	rjmp	.+8      	;  0x2564
    255c:	00 0f       	add	r16, r16
    255e:	11 1f       	adc	r17, r17
    2560:	22 1f       	adc	r18, r18
    2562:	33 1f       	adc	r19, r19
    2564:	0a 94       	dec	r0
    2566:	d2 f7       	brpl	.-12     	;  0x255c
    2568:	60 e0       	ldi	r22, 0x00	; 0
    256a:	70 e0       	ldi	r23, 0x00	; 0
    256c:	cb 01       	movw	r24, r22
    256e:	d4 ff       	sbrs	r29, 4
    2570:	0f c0       	rjmp	.+30     	;  0x2590
    2572:	6f e0       	ldi	r22, 0x0F	; 15
    2574:	70 e0       	ldi	r23, 0x00	; 0
    2576:	80 e0       	ldi	r24, 0x00	; 0
    2578:	90 e0       	ldi	r25, 0x00	; 0
    257a:	04 c0       	rjmp	.+8      	;  0x2584
    257c:	66 0f       	add	r22, r22
    257e:	77 1f       	adc	r23, r23
    2580:	88 1f       	adc	r24, r24
    2582:	99 1f       	adc	r25, r25
    2584:	4a 95       	dec	r20
    2586:	d2 f7       	brpl	.-12     	;  0x257c
    2588:	60 95       	com	r22
    258a:	70 95       	com	r23
    258c:	80 95       	com	r24
    258e:	90 95       	com	r25
    2590:	c6 95       	lsr	r28
    2592:	c6 95       	lsr	r28
    2594:	c3 70       	andi	r28, 0x03	; 3
    2596:	60 2b       	or	r22, r16
    2598:	71 2b       	or	r23, r17
    259a:	82 2b       	or	r24, r18
    259c:	93 2b       	or	r25, r19
    259e:	c2 30       	cpi	r28, 0x02	; 2
    25a0:	49 f0       	breq	.+18     	;  0x25b4
    25a2:	58 f4       	brcc	.+22     	;  0x25ba
    25a4:	c1 30       	cpi	r28, 0x01	; 1
    25a6:	19 f0       	breq	.+6      	;  0x25ae
    25a8:	0e 94 a1 17 	call	0x2f42	;  0x2f42
    25ac:	e9 ce       	rjmp	.-558    	;  0x2380
    25ae:	0e 94 8f 17 	call	0x2f1e	;  0x2f1e
    25b2:	e6 ce       	rjmp	.-564    	;  0x2380
    25b4:	0e 94 b3 17 	call	0x2f66	;  0x2f66
    25b8:	e3 ce       	rjmp	.-570    	;  0x2380
    25ba:	0e 94 8d 17 	call	0x2f1a	;  0x2f1a
    25be:	e0 ce       	rjmp	.-576    	;  0x2380
    25c0:	86 95       	lsr	r24
    25c2:	11 23       	and	r17, r17
    25c4:	11 f0       	breq	.+4      	;  0x25ca
    25c6:	8c 2f       	mov	r24, r28
    25c8:	81 70       	andi	r24, 0x01	; 1
    25ca:	88 23       	and	r24, r24
    25cc:	09 f4       	brne	.+2      	;  0x25d0
    25ce:	d8 ce       	rjmp	.-592    	;  0x2380
    25d0:	4d 2f       	mov	r20, r29
    25d2:	42 95       	swap	r20
    25d4:	46 95       	lsr	r20
    25d6:	47 70       	andi	r20, 0x07	; 7
    25d8:	44 0f       	add	r20, r20
    25da:	44 0f       	add	r20, r20
    25dc:	0d 2f       	mov	r16, r29
    25de:	0f 70       	andi	r16, 0x0F	; 15
    25e0:	10 e0       	ldi	r17, 0x00	; 0
    25e2:	30 e0       	ldi	r19, 0x00	; 0
    25e4:	20 e0       	ldi	r18, 0x00	; 0
    25e6:	04 2e       	mov	r0, r20
    25e8:	04 c0       	rjmp	.+8      	;  0x25f2
    25ea:	00 0f       	add	r16, r16
    25ec:	11 1f       	adc	r17, r17
    25ee:	22 1f       	adc	r18, r18
    25f0:	33 1f       	adc	r19, r19
    25f2:	0a 94       	dec	r0
    25f4:	d2 f7       	brpl	.-12     	;  0x25ea
    25f6:	60 e0       	ldi	r22, 0x00	; 0
    25f8:	70 e0       	ldi	r23, 0x00	; 0
    25fa:	cb 01       	movw	r24, r22
    25fc:	d4 ff       	sbrs	r29, 4
    25fe:	0f c0       	rjmp	.+30     	;  0x261e
    2600:	6f e0       	ldi	r22, 0x0F	; 15
    2602:	70 e0       	ldi	r23, 0x00	; 0
    2604:	80 e0       	ldi	r24, 0x00	; 0
    2606:	90 e0       	ldi	r25, 0x00	; 0
    2608:	04 c0       	rjmp	.+8      	;  0x2612
    260a:	66 0f       	add	r22, r22
    260c:	77 1f       	adc	r23, r23
    260e:	88 1f       	adc	r24, r24
    2610:	99 1f       	adc	r25, r25
    2612:	4a 95       	dec	r20
    2614:	d2 f7       	brpl	.-12     	;  0x260a
    2616:	60 95       	com	r22
    2618:	70 95       	com	r23
    261a:	80 95       	com	r24
    261c:	90 95       	com	r25
    261e:	c6 95       	lsr	r28
    2620:	c6 95       	lsr	r28
    2622:	c3 70       	andi	r28, 0x03	; 3
    2624:	60 2b       	or	r22, r16
    2626:	71 2b       	or	r23, r17
    2628:	82 2b       	or	r24, r18
    262a:	93 2b       	or	r25, r19
    262c:	c2 30       	cpi	r28, 0x02	; 2
    262e:	49 f0       	breq	.+18     	;  0x2642
    2630:	58 f4       	brcc	.+22     	;  0x2648
    2632:	c1 30       	cpi	r28, 0x01	; 1
    2634:	19 f0       	breq	.+6      	;  0x263c
    2636:	0e 94 66 18 	call	0x30cc	;  0x30cc
    263a:	a2 ce       	rjmp	.-700    	;  0x2380
    263c:	0e 94 54 18 	call	0x30a8	;  0x30a8
    2640:	9f ce       	rjmp	.-706    	;  0x2380
    2642:	0e 94 78 18 	call	0x30f0	;  0x30f0
    2646:	9c ce       	rjmp	.-712    	;  0x2380
    2648:	0e 94 c9 17 	call	0x2f92	;  0x2f92
    264c:	99 ce       	rjmp	.-718    	;  0x2380
    264e:	cf 70       	andi	r28, 0x0F	; 15
    2650:	11 23       	and	r17, r17
    2652:	29 f0       	breq	.+10     	;  0x265e
    2654:	8c 2f       	mov	r24, r28
    2656:	0e 94 ef 17 	call	0x2fde	;  0x2fde
    265a:	8d 2f       	mov	r24, r29
    265c:	db ce       	rjmp	.-586    	;  0x2414
    265e:	8d 2f       	mov	r24, r29
    2660:	0e 94 59 11 	call	0x22b2	;  0x22b2
    2664:	8c 2f       	mov	r24, r28
    2666:	0e 94 10 18 	call	0x3020	;  0x3020
    266a:	8a ce       	rjmp	.-748    	;  0x2380
    266c:	d2 3f       	cpi	r29, 0xF2	; 242
    266e:	89 f1       	breq	.+98     	;  0x26d2
    2670:	60 f4       	brcc	.+24     	;  0x268a
    2672:	d0 3f       	cpi	r29, 0xF0	; 240
    2674:	c9 f0       	breq	.+50     	;  0x26a8
    2676:	d1 3f       	cpi	r29, 0xF1	; 241
    2678:	29 f1       	breq	.+74     	;  0x26c4
    267a:	11 23       	and	r17, r17
    267c:	09 f4       	brne	.+2      	;  0x2680
    267e:	42 c0       	rjmp	.+132    	;  0x2704
    2680:	01 11       	cpse	r16, r1
    2682:	66 ce       	rjmp	.-820    	;  0x2350
    2684:	8c 2f       	mov	r24, r28
    2686:	8f 71       	andi	r24, 0x1F	; 31
    2688:	21 c0       	rjmp	.+66     	;  0x26cc
    268a:	d3 3f       	cpi	r29, 0xF3	; 243
    268c:	39 f1       	breq	.+78     	;  0x26dc
    268e:	d4 3f       	cpi	r29, 0xF4	; 244
    2690:	a1 f7       	brne	.-24     	;  0x267a
    2692:	11 23       	and	r17, r17
    2694:	69 f1       	breq	.+90     	;  0x26f0
    2696:	cf 71       	andi	r28, 0x1F	; 31
    2698:	8c 2f       	mov	r24, r28
    269a:	0e 94 ef 17 	call	0x2fde	;  0x2fde
    269e:	63 e0       	ldi	r22, 0x03	; 3
    26a0:	8c 2f       	mov	r24, r28
    26a2:	0e 94 f5 19 	call	0x33ea	;  0x33ea
    26a6:	6c ce       	rjmp	.-808    	;  0x2380
    26a8:	11 23       	and	r17, r17
    26aa:	41 f0       	breq	.+16     	;  0x26bc
    26ac:	05 30       	cpi	r16, 0x05	; 5
    26ae:	08 f0       	brcs	.+2      	;  0x26b2
    26b0:	67 ce       	rjmp	.-818    	;  0x2380
    26b2:	8c 2f       	mov	r24, r28
    26b4:	8f 71       	andi	r24, 0x1F	; 31
    26b6:	0e 94 33 18 	call	0x3066	;  0x3066
    26ba:	62 ce       	rjmp	.-828    	;  0x2380
    26bc:	06 30       	cpi	r16, 0x06	; 6
    26be:	08 f0       	brcs	.+2      	;  0x26c2
    26c0:	5f ce       	rjmp	.-834    	;  0x2380
    26c2:	f7 cf       	rjmp	.-18     	;  0x26b2
    26c4:	8c 2f       	mov	r24, r28
    26c6:	8f 71       	andi	r24, 0x1F	; 31
    26c8:	11 23       	and	r17, r17
    26ca:	69 f2       	breq	.-102    	;  0x2666
    26cc:	0e 94 ef 17 	call	0x2fde	;  0x2fde
    26d0:	57 ce       	rjmp	.-850    	;  0x2380
    26d2:	8c 2f       	mov	r24, r28
    26d4:	8f 71       	andi	r24, 0x1F	; 31
    26d6:	11 23       	and	r17, r17
    26d8:	c9 f3       	breq	.-14     	;  0x26cc
    26da:	c5 cf       	rjmp	.-118    	;  0x2666
    26dc:	11 23       	and	r17, r17
    26de:	29 f0       	breq	.+10     	;  0x26ea
    26e0:	8c 2f       	mov	r24, r28
    26e2:	8f 71       	andi	r24, 0x1F	; 31
    26e4:	0e 94 da 17 	call	0x2fb4	;  0x2fb4
    26e8:	4b ce       	rjmp	.-874    	;  0x2380
    26ea:	0e 94 d5 17 	call	0x2faa	;  0x2faa
    26ee:	48 ce       	rjmp	.-880    	;  0x2380
    26f0:	81 e0       	ldi	r24, 0x01	; 1
    26f2:	0e 94 0a 1a 	call	0x3414	;  0x3414
    26f6:	02 30       	cpi	r16, 0x02	; 2
    26f8:	08 f4       	brcc	.+2      	;  0x26fc
    26fa:	42 ce       	rjmp	.-892    	;  0x2380
    26fc:	82 e0       	ldi	r24, 0x02	; 2
    26fe:	0e 94 0a 1a 	call	0x3414	;  0x3414
    2702:	3e ce       	rjmp	.-900    	;  0x2380
    2704:	00 23       	and	r16, r16
    2706:	59 f0       	breq	.+22     	;  0x271e
    2708:	d9 33       	cpi	r29, 0x39	; 57
    270a:	09 f0       	breq	.+2      	;  0x270e
    270c:	b2 ce       	rjmp	.-668    	;  0x2472
    270e:	8f ef       	ldi	r24, 0xFF	; 255
    2710:	97 ee       	ldi	r25, 0xE7	; 231
    2712:	e3 e0       	ldi	r30, 0x03	; 3
    2714:	81 50       	subi	r24, 0x01	; 1
    2716:	90 40       	sbci	r25, 0x00	; 0
    2718:	e0 40       	sbci	r30, 0x00	; 0
    271a:	e1 f7       	brne	.-8      	;  0x2714
    271c:	a8 ce       	rjmp	.-688    	;  0x246e
    271e:	8c 2f       	mov	r24, r28
    2720:	8f 71       	andi	r24, 0x1F	; 31
    2722:	a1 cf       	rjmp	.-190    	;  0x2666
    2724:	4c 2f       	mov	r20, r28
    2726:	4f 70       	andi	r20, 0x0F	; 15
    2728:	6d 2f       	mov	r22, r29
    272a:	c6 01       	movw	r24, r12
    272c:	0e 94 42 09 	call	0x1284	;  0x1284
    2730:	0e 94 05 17 	call	0x2e0a	;  0x2e0a
    2734:	25 ce       	rjmp	.-950    	;  0x2380
    2736:	4c 2f       	mov	r20, r28
    2738:	4f 70       	andi	r20, 0x0F	; 15
    273a:	6d 2f       	mov	r22, r29
    273c:	c6 01       	movw	r24, r12
    273e:	0e 94 45 09 	call	0x128a	;  0x128a
    2742:	1e ce       	rjmp	.-964    	;  0x2380
    2744:	df 91       	pop	r29
    2746:	cf 91       	pop	r28
    2748:	1f 91       	pop	r17
    274a:	0f 91       	pop	r16
    274c:	ff 90       	pop	r15
    274e:	ef 90       	pop	r14
    2750:	df 90       	pop	r13
    2752:	cf 90       	pop	r12
    2754:	bf 90       	pop	r11
    2756:	08 95       	ret
    2758:	0f 93       	push	r16
    275a:	1f 93       	push	r17
    275c:	cf 93       	push	r28
    275e:	df 93       	push	r29
    2760:	ec 01       	movw	r28, r24
    2762:	68 81       	ld	r22, Y
    2764:	79 81       	ldd	r23, Y+1	; 0x01
    2766:	8a 81       	ldd	r24, Y+2	; 0x02
    2768:	0e 94 2a 19 	call	0x3254	;  0x3254
    276c:	8c 01       	movw	r16, r24
    276e:	0e 94 8a 18 	call	0x3114	;  0x3114
    2772:	0e 94 8c 17 	call	0x2f18	;  0x2f18
    2776:	b8 01       	movw	r22, r16
    2778:	ce 01       	movw	r24, r28
    277a:	df 91       	pop	r29
    277c:	cf 91       	pop	r28
    277e:	1f 91       	pop	r17
    2780:	0f 91       	pop	r16
    2782:	0c 94 60 11 	jmp	0x22c0	;  0x22c0
    2786:	cf 93       	push	r28
    2788:	df 93       	push	r29
    278a:	ec 01       	movw	r28, r24
    278c:	8b 81       	ldd	r24, Y+3	; 0x03
    278e:	9c 81       	ldd	r25, Y+4	; 0x04
    2790:	89 2b       	or	r24, r25
    2792:	29 f0       	breq	.+10     	;  0x279e
    2794:	88 81       	ld	r24, Y
    2796:	99 81       	ldd	r25, Y+1	; 0x01
    2798:	89 23       	and	r24, r25
    279a:	8f 3f       	cpi	r24, 0xFF	; 255
    279c:	19 f4       	brne	.+6      	;  0x27a4
    279e:	df 91       	pop	r29
    27a0:	cf 91       	pop	r28
    27a2:	08 95       	ret
    27a4:	ce 01       	movw	r24, r28
    27a6:	0e 94 f0 08 	call	0x11e0	;  0x11e0
    27aa:	88 23       	and	r24, r24
    27ac:	c1 f3       	breq	.-16     	;  0x279e
    27ae:	ce 01       	movw	r24, r28
    27b0:	0e 94 ac 13 	call	0x2758	;  0x2758
    27b4:	ce 01       	movw	r24, r28
    27b6:	df 91       	pop	r29
    27b8:	cf 91       	pop	r28
    27ba:	0c 94 ff 07 	jmp	0xffe	;  0xffe
    27be:	0e 94 93 19 	call	0x3326	;  0x3326
    27c2:	0e 94 a3 19 	call	0x3346	;  0x3346
    27c6:	0e 94 bf 19 	call	0x337e	;  0x337e
    27ca:	0e 94 5b 1f 	call	0x3eb6	;  0x3eb6
    27ce:	0e 94 b4 1d 	call	0x3b68	;  0x3b68
    27d2:	90 e0       	ldi	r25, 0x00	; 0
    27d4:	80 e0       	ldi	r24, 0x00	; 0
    27d6:	0e 94 18 0f 	call	0x1e30	;  0x1e30
    27da:	90 e0       	ldi	r25, 0x00	; 0
    27dc:	80 e0       	ldi	r24, 0x00	; 0
    27de:	0c 94 2e 0f 	jmp	0x1e5c	;  0x1e5c
    27e2:	0e 94 5c 19 	call	0x32b8	;  0x32b8
    27e6:	0c 94 df 13 	jmp	0x27be	;  0x27be
    27ea:	0e 94 83 19 	call	0x3306	;  0x3306
    27ee:	0c 94 f1 13 	jmp	0x27e2	;  0x27e2
    27f2:	e9 2f       	mov	r30, r25
    27f4:	e2 95       	swap	r30
    27f6:	ef 70       	andi	r30, 0x0F	; 15
    27f8:	e2 50       	subi	r30, 0x02	; 2
    27fa:	ee 30       	cpi	r30, 0x0E	; 14
    27fc:	70 f4       	brcc	.+28     	;  0x281a
    27fe:	f0 e0       	ldi	r31, 0x00	; 0
    2800:	e2 55       	subi	r30, 0x52	; 82
    2802:	f3 4d       	sbci	r31, 0xD3	; 211
    2804:	0c 94 2e 2c 	jmp	0x585c	;  0x585c
    2808:	80 3f       	cpi	r24, 0xF0	; 240
    280a:	19 f0       	breq	.+6      	;  0x2812
    280c:	20 f4       	brcc	.+8      	;  0x2816
    280e:	88 3e       	cpi	r24, 0xE8	; 232
    2810:	20 f4       	brcc	.+8      	;  0x281a
    2812:	81 e0       	ldi	r24, 0x01	; 1
    2814:	08 95       	ret
    2816:	84 3f       	cpi	r24, 0xF4	; 244
    2818:	e1 f3       	breq	.-8      	;  0x2812
    281a:	80 e0       	ldi	r24, 0x00	; 0
    281c:	08 95       	ret
    281e:	88 3e       	cpi	r24, 0xE8	; 232
    2820:	c0 f3       	brcs	.-16     	;  0x2812
    2822:	81 3f       	cpi	r24, 0xF1	; 241
    2824:	d1 f7       	brne	.-12     	;  0x281a
    2826:	f5 cf       	rjmp	.-22     	;  0x2812
    2828:	93 fb       	bst	r25, 3
    282a:	88 27       	eor	r24, r24
    282c:	80 f9       	bld	r24, 0
    282e:	08 95       	ret
    2830:	0e 94 20 19 	call	0x3240	;  0x3240
    2834:	0c 94 f9 13 	jmp	0x27f2	;  0x27f2
    2838:	cf 93       	push	r28
    283a:	df 93       	push	r29
    283c:	00 d0       	rcall	.+0      	;  0x283e
    283e:	00 d0       	rcall	.+0      	;  0x2840
    2840:	0f 92       	push	r0
    2842:	cd b7       	in	r28, 0x3d	; 61
    2844:	de b7       	in	r29, 0x3e	; 62
    2846:	0f 90       	pop	r0
    2848:	0f 90       	pop	r0
    284a:	0f 90       	pop	r0
    284c:	0f 90       	pop	r0
    284e:	0f 90       	pop	r0
    2850:	df 91       	pop	r29
    2852:	cf 91       	pop	r28
    2854:	08 95       	ret
    2856:	cf 93       	push	r28
    2858:	df 93       	push	r29
    285a:	00 d0       	rcall	.+0      	;  0x285c
    285c:	00 d0       	rcall	.+0      	;  0x285e
    285e:	00 d0       	rcall	.+0      	;  0x2860
    2860:	cd b7       	in	r28, 0x3d	; 61
    2862:	de b7       	in	r29, 0x3e	; 62
    2864:	26 96       	adiw	r28, 0x06	; 6
    2866:	0f b6       	in	r0, 0x3f	; 63
    2868:	f8 94       	cli
    286a:	de bf       	out	0x3e, r29	; 62
    286c:	0f be       	out	0x3f, r0	; 63
    286e:	cd bf       	out	0x3d, r28	; 61
    2870:	df 91       	pop	r29
    2872:	cf 91       	pop	r28
    2874:	08 95       	ret
    2876:	1f 93       	push	r17
    2878:	cf 93       	push	r28
    287a:	df 93       	push	r29
    287c:	c0 91 d8 01 	lds	r28, 0x01D8	;  0x8001d8
    2880:	16 e0       	ldi	r17, 0x06	; 6
    2882:	80 91 d9 01 	lds	r24, 0x01D9	;  0x8001d9
    2886:	8c 13       	cpse	r24, r28
    2888:	04 c0       	rjmp	.+8      	;  0x2892
    288a:	df 91       	pop	r29
    288c:	cf 91       	pop	r28
    288e:	1f 91       	pop	r17
    2890:	08 95       	ret
    2892:	d0 e0       	ldi	r29, 0x00	; 0
    2894:	1c 9f       	mul	r17, r28
    2896:	f0 01       	movw	r30, r0
    2898:	1d 9f       	mul	r17, r29
    289a:	f0 0d       	add	r31, r0
    289c:	11 24       	eor	r1, r1
    289e:	e6 52       	subi	r30, 0x26	; 38
    28a0:	fe 4f       	sbci	r31, 0xFE	; 254
    28a2:	40 81       	ld	r20, Z
    28a4:	51 81       	ldd	r21, Z+1	; 0x01
    28a6:	62 81       	ldd	r22, Z+2	; 0x02
    28a8:	73 81       	ldd	r23, Z+3	; 0x03
    28aa:	84 81       	ldd	r24, Z+4	; 0x04
    28ac:	95 81       	ldd	r25, Z+5	; 0x05
    28ae:	0e 94 2b 14 	call	0x2856	;  0x2856
    28b2:	21 96       	adiw	r28, 0x01	; 1
    28b4:	c7 70       	andi	r28, 0x07	; 7
    28b6:	e5 cf       	rjmp	.-54     	;  0x2882
    28b8:	40 91 0a 02 	lds	r20, 0x020A	;  0x80020a
    28bc:	50 91 0b 02 	lds	r21, 0x020B	;  0x80020b
    28c0:	60 91 0c 02 	lds	r22, 0x020C	;  0x80020c
    28c4:	70 91 0d 02 	lds	r23, 0x020D	;  0x80020d
    28c8:	80 91 0e 02 	lds	r24, 0x020E	;  0x80020e
    28cc:	90 91 0f 02 	lds	r25, 0x020F	;  0x80020f
    28d0:	0c 94 2b 14 	jmp	0x2856	;  0x2856
    28d4:	1f 93       	push	r17
    28d6:	cf 93       	push	r28
    28d8:	df 93       	push	r29
    28da:	80 91 0f 02 	lds	r24, 0x020F	;  0x80020f
    28de:	80 7f       	andi	r24, 0xF0	; 240
    28e0:	a9 f4       	brne	.+42     	;  0x290c
    28e2:	80 91 0c 02 	lds	r24, 0x020C	;  0x80020c
    28e6:	88 23       	and	r24, r24
    28e8:	89 f0       	breq	.+34     	;  0x290c
    28ea:	80 91 d8 01 	lds	r24, 0x01D8	;  0x8001d8
    28ee:	c0 91 d9 01 	lds	r28, 0x01D9	;  0x8001d9
    28f2:	60 91 0a 02 	lds	r22, 0x020A	;  0x80020a
    28f6:	70 91 0b 02 	lds	r23, 0x020B	;  0x80020b
    28fa:	a0 91 0d 02 	lds	r26, 0x020D	;  0x80020d
    28fe:	b0 91 0e 02 	lds	r27, 0x020E	;  0x80020e
    2902:	d6 2f       	mov	r29, r22
    2904:	d7 23       	and	r29, r23
    2906:	16 e0       	ldi	r17, 0x06	; 6
    2908:	c8 13       	cpse	r28, r24
    290a:	04 c0       	rjmp	.+8      	;  0x2914
    290c:	df 91       	pop	r29
    290e:	cf 91       	pop	r28
    2910:	1f 91       	pop	r17
    2912:	08 95       	ret
    2914:	90 e0       	ldi	r25, 0x00	; 0
    2916:	10 97       	sbiw	r26, 0x00	; 0
    2918:	11 f0       	breq	.+4      	;  0x291e
    291a:	df 3f       	cpi	r29, 0xFF	; 255
    291c:	19 f4       	brne	.+6      	;  0x2924
    291e:	01 96       	adiw	r24, 0x01	; 1
    2920:	87 70       	andi	r24, 0x07	; 7
    2922:	f2 cf       	rjmp	.-28     	;  0x2908
    2924:	18 9f       	mul	r17, r24
    2926:	90 01       	movw	r18, r0
    2928:	19 9f       	mul	r17, r25
    292a:	30 0d       	add	r19, r0
    292c:	11 24       	eor	r1, r1
    292e:	f9 01       	movw	r30, r18
    2930:	e6 52       	subi	r30, 0x26	; 38
    2932:	fe 4f       	sbci	r31, 0xFE	; 254
    2934:	41 81       	ldd	r20, Z+1	; 0x01
    2936:	47 13       	cpse	r20, r23
    2938:	f2 cf       	rjmp	.-28     	;  0x291e
    293a:	40 81       	ld	r20, Z
    293c:	46 13       	cpse	r20, r22
    293e:	ef cf       	rjmp	.-34     	;  0x291e
    2940:	42 81       	ldd	r20, Z+2	; 0x02
    2942:	41 11       	cpse	r20, r1
    2944:	ec cf       	rjmp	.-40     	;  0x291e
    2946:	43 81       	ldd	r20, Z+3	; 0x03
    2948:	54 81       	ldd	r21, Z+4	; 0x04
    294a:	4a 1b       	sub	r20, r26
    294c:	5b 0b       	sbc	r21, r27
    294e:	48 3c       	cpi	r20, 0xC8	; 200
    2950:	51 05       	cpc	r21, r1
    2952:	28 f7       	brcc	.-54     	;  0x291e
    2954:	80 91 0f 02 	lds	r24, 0x020F	;  0x80020f
    2958:	8f 70       	andi	r24, 0x0F	; 15
    295a:	80 61       	ori	r24, 0x10	; 16
    295c:	80 93 0f 02 	sts	0x020F, r24	;  0x80020f
    2960:	f9 01       	movw	r30, r18
    2962:	e1 52       	subi	r30, 0x21	; 33
    2964:	fe 4f       	sbci	r31, 0xFE	; 254
    2966:	80 81       	ld	r24, Z
    2968:	8f 70       	andi	r24, 0x0F	; 15
    296a:	80 61       	ori	r24, 0x10	; 16
    296c:	80 83       	st	Z, r24
    296e:	8a e0       	ldi	r24, 0x0A	; 10
    2970:	92 e0       	ldi	r25, 0x02	; 2
    2972:	0e 94 c3 13 	call	0x2786	;  0x2786
    2976:	df 91       	pop	r29
    2978:	cf 91       	pop	r28
    297a:	1f 91       	pop	r17
    297c:	0c 94 3b 14 	jmp	0x2876	;  0x2876
    2980:	af 92       	push	r10
    2982:	bf 92       	push	r11
    2984:	cf 92       	push	r12
    2986:	df 92       	push	r13
    2988:	ef 92       	push	r14
    298a:	ff 92       	push	r15
    298c:	0f 93       	push	r16
    298e:	1f 93       	push	r17
    2990:	cf 93       	push	r28
    2992:	df 93       	push	r29
    2994:	cd b7       	in	r28, 0x3d	; 61
    2996:	de b7       	in	r29, 0x3e	; 62
    2998:	61 97       	sbiw	r28, 0x11	; 17
    299a:	0f b6       	in	r0, 0x3f	; 63
    299c:	f8 94       	cli
    299e:	de bf       	out	0x3e, r29	; 62
    29a0:	0f be       	out	0x3f, r0	; 63
    29a2:	cd bf       	out	0x3d, r28	; 61
    29a4:	8c 01       	movw	r16, r24
    29a6:	85 e0       	ldi	r24, 0x05	; 5
    29a8:	f8 01       	movw	r30, r16
    29aa:	de 01       	movw	r26, r28
    29ac:	1d 96       	adiw	r26, 0x0d	; 13
    29ae:	01 90       	ld	r0, Z+
    29b0:	0d 92       	st	X+, r0
    29b2:	8a 95       	dec	r24
    29b4:	e1 f7       	brne	.-8      	;  0x29ae
    29b6:	f8 01       	movw	r30, r16
    29b8:	40 81       	ld	r20, Z
    29ba:	51 81       	ldd	r21, Z+1	; 0x01
    29bc:	e2 80       	ldd	r14, Z+2	; 0x02
    29be:	8a e0       	ldi	r24, 0x0A	; 10
    29c0:	c8 2e       	mov	r12, r24
    29c2:	82 e0       	ldi	r24, 0x02	; 2
    29c4:	d8 2e       	mov	r13, r24
    29c6:	60 91 0d 02 	lds	r22, 0x020D	;  0x80020d
    29ca:	70 91 0e 02 	lds	r23, 0x020E	;  0x80020e
    29ce:	61 15       	cp	r22, r1
    29d0:	71 05       	cpc	r23, r1
    29d2:	09 f4       	brne	.+2      	;  0x29d6
    29d4:	61 c1       	rjmp	.+706    	;  0x2c98
    29d6:	90 91 0a 02 	lds	r25, 0x020A	;  0x80020a
    29da:	20 91 0b 02 	lds	r18, 0x020B	;  0x80020b
    29de:	89 2f       	mov	r24, r25
    29e0:	82 23       	and	r24, r18
    29e2:	8f 3f       	cpi	r24, 0xFF	; 255
    29e4:	09 f4       	brne	.+2      	;  0x29e8
    29e6:	58 c1       	rjmp	.+688    	;  0x2c98
    29e8:	a3 80       	ldd	r10, Z+3	; 0x03
    29ea:	b4 80       	ldd	r11, Z+4	; 0x04
    29ec:	f0 90 0c 02 	lds	r15, 0x020C	;  0x80020c
    29f0:	f5 01       	movw	r30, r10
    29f2:	e6 1b       	sub	r30, r22
    29f4:	f7 0b       	sbc	r31, r23
    29f6:	ff 20       	and	r15, r15
    29f8:	09 f4       	brne	.+2      	;  0x29fc
    29fa:	fc c0       	rjmp	.+504    	;  0x2bf4
    29fc:	80 91 0f 02 	lds	r24, 0x020F	;  0x80020f
    2a00:	38 2f       	mov	r19, r24
    2a02:	30 7f       	andi	r19, 0xF0	; 240
    2a04:	e8 3c       	cpi	r30, 0xC8	; 200
    2a06:	f1 05       	cpc	r31, r1
    2a08:	08 f0       	brcs	.+2      	;  0x2a0c
    2a0a:	b2 c0       	rjmp	.+356    	;  0x2b70
    2a0c:	31 11       	cpse	r19, r1
    2a0e:	79 c0       	rjmp	.+242    	;  0x2b02
    2a10:	fe 2c       	mov	r15, r14
    2a12:	25 13       	cpse	r18, r21
    2a14:	23 c0       	rjmp	.+70     	;  0x2a5c
    2a16:	94 13       	cpse	r25, r20
    2a18:	21 c0       	rjmp	.+66     	;  0x2a5c
    2a1a:	e1 10       	cpse	r14, r1
    2a1c:	1f c0       	rjmp	.+62     	;  0x2a5c
    2a1e:	8f 70       	andi	r24, 0x0F	; 15
    2a20:	80 61       	ori	r24, 0x10	; 16
    2a22:	80 93 0f 02 	sts	0x020F, r24	;  0x80020f
    2a26:	0e 94 5c 14 	call	0x28b8	;  0x28b8
    2a2a:	c6 01       	movw	r24, r12
    2a2c:	0e 94 c3 13 	call	0x2786	;  0x2786
    2a30:	80 91 0f 02 	lds	r24, 0x020F	;  0x80020f
    2a34:	f8 01       	movw	r30, r16
    2a36:	85 83       	std	Z+5, r24	; 0x05
    2a38:	8f 2d       	mov	r24, r15
    2a3a:	61 96       	adiw	r28, 0x11	; 17
    2a3c:	0f b6       	in	r0, 0x3f	; 63
    2a3e:	f8 94       	cli
    2a40:	de bf       	out	0x3e, r29	; 62
    2a42:	0f be       	out	0x3f, r0	; 63
    2a44:	cd bf       	out	0x3d, r28	; 61
    2a46:	df 91       	pop	r29
    2a48:	cf 91       	pop	r28
    2a4a:	1f 91       	pop	r17
    2a4c:	0f 91       	pop	r16
    2a4e:	ff 90       	pop	r15
    2a50:	ef 90       	pop	r14
    2a52:	df 90       	pop	r13
    2a54:	cf 90       	pop	r12
    2a56:	bf 90       	pop	r11
    2a58:	af 90       	pop	r10
    2a5a:	08 95       	ret
    2a5c:	ab 28       	or	r10, r11
    2a5e:	29 f0       	breq	.+10     	;  0x2a6a
    2a60:	84 2f       	mov	r24, r20
    2a62:	85 23       	and	r24, r21
    2a64:	8f 3f       	cpi	r24, 0xFF	; 255
    2a66:	09 f0       	breq	.+2      	;  0x2a6a
    2a68:	33 c1       	rjmp	.+614    	;  0x2cd0
    2a6a:	80 e0       	ldi	r24, 0x00	; 0
    2a6c:	f8 2f       	mov	r31, r24
    2a6e:	f1 70       	andi	r31, 0x01	; 1
    2a70:	df 2e       	mov	r13, r31
    2a72:	80 ff       	sbrs	r24, 0
    2a74:	3c c0       	rjmp	.+120    	;  0x2aee
    2a76:	80 91 d8 01 	lds	r24, 0x01D8	;  0x8001d8
    2a7a:	20 91 d9 01 	lds	r18, 0x01D9	;  0x8001d9
    2a7e:	36 e0       	ldi	r19, 0x06	; 6
    2a80:	82 13       	cpse	r24, r18
    2a82:	15 c0       	rjmp	.+42     	;  0x2aae
    2a84:	4d 87       	std	Y+13, r20	; 0x0d
    2a86:	5e 87       	std	Y+14, r21	; 0x0e
    2a88:	8d 85       	ldd	r24, Y+13	; 0x0d
    2a8a:	9e 85       	ldd	r25, Y+14	; 0x0e
    2a8c:	0e 94 20 19 	call	0x3240	;  0x3240
    2a90:	29 2f       	mov	r18, r25
    2a92:	22 95       	swap	r18
    2a94:	2f 70       	andi	r18, 0x0F	; 15
    2a96:	22 30       	cpi	r18, 0x02	; 2
    2a98:	f0 f0       	brcs	.+60     	;  0x2ad6
    2a9a:	24 30       	cpi	r18, 0x04	; 4
    2a9c:	18 f5       	brcc	.+70     	;  0x2ae4
    2a9e:	9f 70       	andi	r25, 0x0F	; 15
    2aa0:	f1 f0       	breq	.+60     	;  0x2ade
    2aa2:	f8 01       	movw	r30, r16
    2aa4:	95 81       	ldd	r25, Z+5	; 0x05
    2aa6:	90 7f       	andi	r25, 0xF0	; 240
    2aa8:	d1 f4       	brne	.+52     	;  0x2ade
    2aaa:	d1 2c       	mov	r13, r1
    2aac:	1e c0       	rjmp	.+60     	;  0x2aea
    2aae:	90 e0       	ldi	r25, 0x00	; 0
    2ab0:	38 9f       	mul	r19, r24
    2ab2:	f0 01       	movw	r30, r0
    2ab4:	39 9f       	mul	r19, r25
    2ab6:	f0 0d       	add	r31, r0
    2ab8:	11 24       	eor	r1, r1
    2aba:	e6 52       	subi	r30, 0x26	; 38
    2abc:	fe 4f       	sbci	r31, 0xFE	; 254
    2abe:	61 81       	ldd	r22, Z+1	; 0x01
    2ac0:	65 13       	cpse	r22, r21
    2ac2:	06 c0       	rjmp	.+12     	;  0x2ad0
    2ac4:	60 81       	ld	r22, Z
    2ac6:	64 13       	cpse	r22, r20
    2ac8:	03 c0       	rjmp	.+6      	;  0x2ad0
    2aca:	62 81       	ldd	r22, Z+2	; 0x02
    2acc:	6e 11       	cpse	r22, r14
    2ace:	0f c0       	rjmp	.+30     	;  0x2aee
    2ad0:	01 96       	adiw	r24, 0x01	; 1
    2ad2:	87 70       	andi	r24, 0x07	; 7
    2ad4:	d5 cf       	rjmp	.-86     	;  0x2a80
    2ad6:	9f 70       	andi	r25, 0x0F	; 15
    2ad8:	11 f0       	breq	.+4      	;  0x2ade
    2ada:	88 23       	and	r24, r24
    2adc:	31 f3       	breq	.-52     	;  0x2aaa
    2ade:	80 5e       	subi	r24, 0xE0	; 224
    2ae0:	88 30       	cpi	r24, 0x08	; 8
    2ae2:	18 f3       	brcs	.-58     	;  0x2aaa
    2ae4:	c8 01       	movw	r24, r16
    2ae6:	0e 94 c3 13 	call	0x2786	;  0x2786
    2aea:	fd 2c       	mov	r15, r13
    2aec:	a5 cf       	rjmp	.-182    	;  0x2a38
    2aee:	ee 20       	and	r14, r14
    2af0:	09 f4       	brne	.+2      	;  0x2af4
    2af2:	a2 cf       	rjmp	.-188    	;  0x2a38
    2af4:	80 91 0f 02 	lds	r24, 0x020F	;  0x80020f
    2af8:	81 60       	ori	r24, 0x01	; 1
    2afa:	80 93 0f 02 	sts	0x020F, r24	;  0x80020f
    2afe:	f1 2c       	mov	r15, r1
    2b00:	9b cf       	rjmp	.-202    	;  0x2a38
    2b02:	25 13       	cpse	r18, r21
    2b04:	06 c0       	rjmp	.+12     	;  0x2b12
    2b06:	94 13       	cpse	r25, r20
    2b08:	04 c0       	rjmp	.+8      	;  0x2b12
    2b0a:	f8 01       	movw	r30, r16
    2b0c:	ee 20       	and	r14, r14
    2b0e:	09 f4       	brne	.+2      	;  0x2b12
    2b10:	8d c0       	rjmp	.+282    	;  0x2c2c
    2b12:	4d 87       	std	Y+13, r20	; 0x0d
    2b14:	5e 87       	std	Y+14, r21	; 0x0e
    2b16:	8d 85       	ldd	r24, Y+13	; 0x0d
    2b18:	9e 85       	ldd	r25, Y+14	; 0x0e
    2b1a:	0e 94 18 14 	call	0x2830	;  0x2830
    2b1e:	88 23       	and	r24, r24
    2b20:	19 f1       	breq	.+70     	;  0x2b68
    2b22:	ee 20       	and	r14, r14
    2b24:	09 f1       	breq	.+66     	;  0x2b68
    2b26:	80 91 0f 02 	lds	r24, 0x020F	;  0x80020f
    2b2a:	80 32       	cpi	r24, 0x20	; 32
    2b2c:	70 f0       	brcs	.+28     	;  0x2b4a
    2b2e:	20 91 0a 02 	lds	r18, 0x020A	;  0x80020a
    2b32:	30 91 0b 02 	lds	r19, 0x020B	;  0x80020b
    2b36:	38 87       	std	Y+8, r19	; 0x08
    2b38:	2f 83       	std	Y+7, r18	; 0x07
    2b3a:	19 86       	std	Y+9, r1	; 0x09
    2b3c:	bb 86       	std	Y+11, r11	; 0x0b
    2b3e:	aa 86       	std	Y+10, r10	; 0x0a
    2b40:	8c 87       	std	Y+12, r24	; 0x0c
    2b42:	ce 01       	movw	r24, r28
    2b44:	07 96       	adiw	r24, 0x07	; 7
    2b46:	0e 94 c3 13 	call	0x2786	;  0x2786
    2b4a:	86 e0       	ldi	r24, 0x06	; 6
    2b4c:	f8 01       	movw	r30, r16
    2b4e:	aa e0       	ldi	r26, 0x0A	; 10
    2b50:	b2 e0       	ldi	r27, 0x02	; 2
    2b52:	01 90       	ld	r0, Z+
    2b54:	0d 92       	st	X+, r0
    2b56:	8a 95       	dec	r24
    2b58:	e1 f7       	brne	.-8      	;  0x2b52
    2b5a:	0e 94 6a 14 	call	0x28d4	;  0x28d4
    2b5e:	0e 94 5c 14 	call	0x28b8	;  0x28b8
    2b62:	ff 24       	eor	r15, r15
    2b64:	f3 94       	inc	r15
    2b66:	68 cf       	rjmp	.-304    	;  0x2a38
    2b68:	c8 01       	movw	r24, r16
    2b6a:	0e 94 c3 13 	call	0x2786	;  0x2786
    2b6e:	f9 cf       	rjmp	.-14     	;  0x2b62
    2b70:	31 11       	cpse	r19, r1
    2b72:	13 c0       	rjmp	.+38     	;  0x2b9a
    2b74:	7a 2d       	mov	r23, r10
    2b76:	b9 8a       	std	Y+17, r11	; 0x11
    2b78:	a8 8a       	std	Y+16, r10	; 0x10
    2b7a:	6e 2d       	mov	r22, r14
    2b7c:	89 89       	ldd	r24, Y+17	; 0x11
    2b7e:	0e 94 1c 14 	call	0x2838	;  0x2838
    2b82:	8a e0       	ldi	r24, 0x0A	; 10
    2b84:	92 e0       	ldi	r25, 0x02	; 2
    2b86:	0e 94 c3 13 	call	0x2786	;  0x2786
    2b8a:	86 e0       	ldi	r24, 0x06	; 6
    2b8c:	f6 01       	movw	r30, r12
    2b8e:	11 92       	st	Z+, r1
    2b90:	8a 95       	dec	r24
    2b92:	e9 f7       	brne	.-6      	;  0x2b8e
    2b94:	0e 94 5c 14 	call	0x28b8	;  0x28b8
    2b98:	b2 cf       	rjmp	.-156    	;  0x2afe
    2b9a:	25 13       	cpse	r18, r21
    2b9c:	0f c0       	rjmp	.+30     	;  0x2bbc
    2b9e:	94 13       	cpse	r25, r20
    2ba0:	0d c0       	rjmp	.+26     	;  0x2bbc
    2ba2:	e1 10       	cpse	r14, r1
    2ba4:	0b c0       	rjmp	.+22     	;  0x2bbc
    2ba6:	f8 01       	movw	r30, r16
    2ba8:	85 83       	std	Z+5, r24	; 0x05
    2baa:	c8 01       	movw	r24, r16
    2bac:	0e 94 c3 13 	call	0x2786	;  0x2786
    2bb0:	86 e0       	ldi	r24, 0x06	; 6
    2bb2:	f6 01       	movw	r30, r12
    2bb4:	11 92       	st	Z+, r1
    2bb6:	8a 95       	dec	r24
    2bb8:	e9 f7       	brne	.-6      	;  0x2bb4
    2bba:	3e cf       	rjmp	.-388    	;  0x2a38
    2bbc:	4d 87       	std	Y+13, r20	; 0x0d
    2bbe:	5e 87       	std	Y+14, r21	; 0x0e
    2bc0:	8d 85       	ldd	r24, Y+13	; 0x0d
    2bc2:	9e 85       	ldd	r25, Y+14	; 0x0e
    2bc4:	0e 94 18 14 	call	0x2830	;  0x2830
    2bc8:	88 23       	and	r24, r24
    2bca:	71 f2       	breq	.-100    	;  0x2b68
    2bcc:	ee 20       	and	r14, r14
    2bce:	61 f2       	breq	.-104    	;  0x2b68
    2bd0:	80 91 0f 02 	lds	r24, 0x020F	;  0x80020f
    2bd4:	80 32       	cpi	r24, 0x20	; 32
    2bd6:	08 f4       	brcc	.+2      	;  0x2bda
    2bd8:	b8 cf       	rjmp	.-144    	;  0x2b4a
    2bda:	20 91 0a 02 	lds	r18, 0x020A	;  0x80020a
    2bde:	30 91 0b 02 	lds	r19, 0x020B	;  0x80020b
    2be2:	3a 83       	std	Y+2, r19	; 0x02
    2be4:	29 83       	std	Y+1, r18	; 0x01
    2be6:	1b 82       	std	Y+3, r1	; 0x03
    2be8:	bd 82       	std	Y+5, r11	; 0x05
    2bea:	ac 82       	std	Y+4, r10	; 0x04
    2bec:	8e 83       	std	Y+6, r24	; 0x06
    2bee:	ce 01       	movw	r24, r28
    2bf0:	01 96       	adiw	r24, 0x01	; 1
    2bf2:	a9 cf       	rjmp	.-174    	;  0x2b46
    2bf4:	e8 3c       	cpi	r30, 0xC8	; 200
    2bf6:	f1 05       	cpc	r31, r1
    2bf8:	08 f0       	brcs	.+2      	;  0x2bfc
    2bfa:	41 c0       	rjmp	.+130    	;  0x2c7e
    2bfc:	fe 2c       	mov	r15, r14
    2bfe:	ee 20       	and	r14, r14
    2c00:	09 f4       	brne	.+2      	;  0x2c04
    2c02:	b2 cf       	rjmp	.-156    	;  0x2b68
    2c04:	25 13       	cpse	r18, r21
    2c06:	2a c0       	rjmp	.+84     	;  0x2c5c
    2c08:	94 13       	cpse	r25, r20
    2c0a:	28 c0       	rjmp	.+80     	;  0x2c5c
    2c0c:	80 91 0f 02 	lds	r24, 0x020F	;  0x80020f
    2c10:	80 fd       	sbrc	r24, 0
    2c12:	1b c0       	rjmp	.+54     	;  0x2c4a
    2c14:	98 2f       	mov	r25, r24
    2c16:	90 7f       	andi	r25, 0xF0	; 240
    2c18:	c1 f0       	breq	.+48     	;  0x2c4a
    2c1a:	f8 01       	movw	r30, r16
    2c1c:	85 83       	std	Z+5, r24	; 0x05
    2c1e:	90 3f       	cpi	r25, 0xF0	; 240
    2c20:	31 f0       	breq	.+12     	;  0x2c2e
    2c22:	98 2f       	mov	r25, r24
    2c24:	90 7f       	andi	r25, 0xF0	; 240
    2c26:	90 5f       	subi	r25, 0xF0	; 240
    2c28:	8f 70       	andi	r24, 0x0F	; 15
    2c2a:	89 2b       	or	r24, r25
    2c2c:	85 83       	std	Z+5, r24	; 0x05
    2c2e:	c8 01       	movw	r24, r16
    2c30:	0e 94 c3 13 	call	0x2786	;  0x2786
    2c34:	86 e0       	ldi	r24, 0x06	; 6
    2c36:	f8 01       	movw	r30, r16
    2c38:	aa e0       	ldi	r26, 0x0A	; 10
    2c3a:	b2 e0       	ldi	r27, 0x02	; 2
    2c3c:	01 90       	ld	r0, Z+
    2c3e:	0d 92       	st	X+, r0
    2c40:	8a 95       	dec	r24
    2c42:	e1 f7       	brne	.-8      	;  0x2c3c
    2c44:	0e 94 5c 14 	call	0x28b8	;  0x28b8
    2c48:	f7 ce       	rjmp	.-530    	;  0x2a38
    2c4a:	86 e0       	ldi	r24, 0x06	; 6
    2c4c:	f8 01       	movw	r30, r16
    2c4e:	aa e0       	ldi	r26, 0x0A	; 10
    2c50:	b2 e0       	ldi	r27, 0x02	; 2
    2c52:	01 90       	ld	r0, Z+
    2c54:	0d 92       	st	X+, r0
    2c56:	8a 95       	dec	r24
    2c58:	e1 f7       	brne	.-8      	;  0x2c52
    2c5a:	ee ce       	rjmp	.-548    	;  0x2a38
    2c5c:	4d 87       	std	Y+13, r20	; 0x0d
    2c5e:	5e 87       	std	Y+14, r21	; 0x0e
    2c60:	8d 85       	ldd	r24, Y+13	; 0x0d
    2c62:	9e 85       	ldd	r25, Y+14	; 0x0e
    2c64:	0e 94 18 14 	call	0x2830	;  0x2830
    2c68:	81 11       	cpse	r24, r1
    2c6a:	6f cf       	rjmp	.-290    	;  0x2b4a
    2c6c:	80 91 0f 02 	lds	r24, 0x020F	;  0x80020f
    2c70:	81 60       	ori	r24, 0x01	; 1
    2c72:	80 93 0f 02 	sts	0x020F, r24	;  0x80020f
    2c76:	c8 01       	movw	r24, r16
    2c78:	0e 94 c3 13 	call	0x2786	;  0x2786
    2c7c:	dd ce       	rjmp	.-582    	;  0x2a38
    2c7e:	7a 2d       	mov	r23, r10
    2c80:	b9 8a       	std	Y+17, r11	; 0x11
    2c82:	a8 8a       	std	Y+16, r10	; 0x10
    2c84:	6e 2d       	mov	r22, r14
    2c86:	89 89       	ldd	r24, Y+17	; 0x11
    2c88:	0e 94 1c 14 	call	0x2838	;  0x2838
    2c8c:	86 e0       	ldi	r24, 0x06	; 6
    2c8e:	f6 01       	movw	r30, r12
    2c90:	11 92       	st	Z+, r1
    2c92:	8a 95       	dec	r24
    2c94:	e9 f7       	brne	.-6      	;  0x2c90
    2c96:	d6 cf       	rjmp	.-84     	;  0x2c44
    2c98:	ee 20       	and	r14, r14
    2c9a:	09 f4       	brne	.+2      	;  0x2c9e
    2c9c:	65 cf       	rjmp	.-310    	;  0x2b68
    2c9e:	4d 87       	std	Y+13, r20	; 0x0d
    2ca0:	5e 87       	std	Y+14, r21	; 0x0e
    2ca2:	8d 85       	ldd	r24, Y+13	; 0x0d
    2ca4:	9e 85       	ldd	r25, Y+14	; 0x0e
    2ca6:	0e 94 18 14 	call	0x2830	;  0x2830
    2caa:	f8 2e       	mov	r15, r24
    2cac:	88 23       	and	r24, r24
    2cae:	09 f4       	brne	.+2      	;  0x2cb2
    2cb0:	5b cf       	rjmp	.-330    	;  0x2b68
    2cb2:	86 e0       	ldi	r24, 0x06	; 6
    2cb4:	f8 01       	movw	r30, r16
    2cb6:	aa e0       	ldi	r26, 0x0A	; 10
    2cb8:	b2 e0       	ldi	r27, 0x02	; 2
    2cba:	01 90       	ld	r0, Z+
    2cbc:	0d 92       	st	X+, r0
    2cbe:	8a 95       	dec	r24
    2cc0:	e1 f7       	brne	.-8      	;  0x2cba
    2cc2:	8a e0       	ldi	r24, 0x0A	; 10
    2cc4:	92 e0       	ldi	r25, 0x02	; 2
    2cc6:	0e 94 4d 10 	call	0x209a	;  0x209a
    2cca:	0e 94 6a 14 	call	0x28d4	;  0x28d4
    2cce:	ba cf       	rjmp	.-140    	;  0x2c44
    2cd0:	81 e0       	ldi	r24, 0x01	; 1
    2cd2:	8e 25       	eor	r24, r14
    2cd4:	cb ce       	rjmp	.-618    	;  0x2a6c
    2cd6:	1f 93       	push	r17
    2cd8:	cf 93       	push	r28
    2cda:	df 93       	push	r29
    2cdc:	cd b7       	in	r28, 0x3d	; 61
    2cde:	de b7       	in	r29, 0x3e	; 62
    2ce0:	2c 97       	sbiw	r28, 0x0c	; 12
    2ce2:	0f b6       	in	r0, 0x3f	; 63
    2ce4:	f8 94       	cli
    2ce6:	de bf       	out	0x3e, r29	; 62
    2ce8:	0f be       	out	0x3f, r0	; 63
    2cea:	cd bf       	out	0x3d, r28	; 61
    2cec:	4f 83       	std	Y+7, r20	; 0x07
    2cee:	58 87       	std	Y+8, r21	; 0x08
    2cf0:	69 87       	std	Y+9, r22	; 0x09
    2cf2:	7a 87       	std	Y+10, r23	; 0x0a
    2cf4:	8b 87       	std	Y+11, r24	; 0x0b
    2cf6:	9c 87       	std	Y+12, r25	; 0x0c
    2cf8:	ce 01       	movw	r24, r28
    2cfa:	07 96       	adiw	r24, 0x07	; 7
    2cfc:	0e 94 c0 14 	call	0x2980	;  0x2980
    2d00:	88 23       	and	r24, r24
    2d02:	69 f0       	breq	.+26     	;  0x2d1e
    2d04:	8a 85       	ldd	r24, Y+10	; 0x0a
    2d06:	9b 85       	ldd	r25, Y+11	; 0x0b
    2d08:	89 2b       	or	r24, r25
    2d0a:	39 f0       	breq	.+14     	;  0x2d1a
    2d0c:	4f 81       	ldd	r20, Y+7	; 0x07
    2d0e:	58 85       	ldd	r21, Y+8	; 0x08
    2d10:	84 2f       	mov	r24, r20
    2d12:	85 23       	and	r24, r21
    2d14:	8f 3f       	cpi	r24, 0xFF	; 255
    2d16:	09 f0       	breq	.+2      	;  0x2d1a
    2d18:	71 c0       	rjmp	.+226    	;  0x2dfc
    2d1a:	16 e0       	ldi	r17, 0x06	; 6
    2d1c:	5f c0       	rjmp	.+190    	;  0x2ddc
    2d1e:	86 e0       	ldi	r24, 0x06	; 6
    2d20:	fe 01       	movw	r30, r28
    2d22:	37 96       	adiw	r30, 0x07	; 7
    2d24:	de 01       	movw	r26, r28
    2d26:	11 96       	adiw	r26, 0x01	; 1
    2d28:	01 90       	ld	r0, Z+
    2d2a:	0d 92       	st	X+, r0
    2d2c:	8a 95       	dec	r24
    2d2e:	e1 f7       	brne	.-8      	;  0x2d28
    2d30:	8a 85       	ldd	r24, Y+10	; 0x0a
    2d32:	9b 85       	ldd	r25, Y+11	; 0x0b
    2d34:	89 2b       	or	r24, r25
    2d36:	89 f3       	breq	.-30     	;  0x2d1a
    2d38:	8f 81       	ldd	r24, Y+7	; 0x07
    2d3a:	98 85       	ldd	r25, Y+8	; 0x08
    2d3c:	89 23       	and	r24, r25
    2d3e:	8f 3f       	cpi	r24, 0xFF	; 255
    2d40:	61 f3       	breq	.-40     	;  0x2d1a
    2d42:	20 91 d9 01 	lds	r18, 0x01D9	;  0x8001d9
    2d46:	30 e0       	ldi	r19, 0x00	; 0
    2d48:	c9 01       	movw	r24, r18
    2d4a:	01 96       	adiw	r24, 0x01	; 1
    2d4c:	87 70       	andi	r24, 0x07	; 7
    2d4e:	99 27       	eor	r25, r25
    2d50:	40 91 d8 01 	lds	r20, 0x01D8	;  0x8001d8
    2d54:	48 17       	cp	r20, r24
    2d56:	19 06       	cpc	r1, r25
    2d58:	71 f4       	brne	.+28     	;  0x2d76
    2d5a:	0e 94 f5 13 	call	0x27ea	;  0x27ea
    2d5e:	10 92 d9 01 	sts	0x01D9, r1	;  0x8001d9
    2d62:	10 92 d8 01 	sts	0x01D8, r1	;  0x8001d8
    2d66:	86 e0       	ldi	r24, 0x06	; 6
    2d68:	ea e0       	ldi	r30, 0x0A	; 10
    2d6a:	f2 e0       	ldi	r31, 0x02	; 2
    2d6c:	df 01       	movw	r26, r30
    2d6e:	1d 92       	st	X+, r1
    2d70:	8a 95       	dec	r24
    2d72:	e9 f7       	brne	.-6      	;  0x2d6e
    2d74:	d2 cf       	rjmp	.-92     	;  0x2d1a
    2d76:	96 e0       	ldi	r25, 0x06	; 6
    2d78:	92 9f       	mul	r25, r18
    2d7a:	d0 01       	movw	r26, r0
    2d7c:	93 9f       	mul	r25, r19
    2d7e:	b0 0d       	add	r27, r0
    2d80:	11 24       	eor	r1, r1
    2d82:	a6 52       	subi	r26, 0x26	; 38
    2d84:	be 4f       	sbci	r27, 0xFE	; 254
    2d86:	fe 01       	movw	r30, r28
    2d88:	31 96       	adiw	r30, 0x01	; 1
    2d8a:	01 90       	ld	r0, Z+
    2d8c:	0d 92       	st	X+, r0
    2d8e:	9a 95       	dec	r25
    2d90:	e1 f7       	brne	.-8      	;  0x2d8a
    2d92:	80 93 d9 01 	sts	0x01D9, r24	;  0x8001d9
    2d96:	0e 94 3b 14 	call	0x2876	;  0x2876
    2d9a:	bf cf       	rjmp	.-130    	;  0x2d1a
    2d9c:	81 9f       	mul	r24, r17
    2d9e:	c0 01       	movw	r24, r0
    2da0:	11 24       	eor	r1, r1
    2da2:	86 52       	subi	r24, 0x26	; 38
    2da4:	9e 4f       	sbci	r25, 0xFE	; 254
    2da6:	0e 94 c0 14 	call	0x2980	;  0x2980
    2daa:	88 23       	and	r24, r24
    2dac:	e9 f0       	breq	.+58     	;  0x2de8
    2dae:	e0 91 d8 01 	lds	r30, 0x01D8	;  0x8001d8
    2db2:	1e 9f       	mul	r17, r30
    2db4:	f0 01       	movw	r30, r0
    2db6:	11 24       	eor	r1, r1
    2db8:	e6 52       	subi	r30, 0x26	; 38
    2dba:	fe 4f       	sbci	r31, 0xFE	; 254
    2dbc:	40 81       	ld	r20, Z
    2dbe:	51 81       	ldd	r21, Z+1	; 0x01
    2dc0:	62 81       	ldd	r22, Z+2	; 0x02
    2dc2:	73 81       	ldd	r23, Z+3	; 0x03
    2dc4:	84 81       	ldd	r24, Z+4	; 0x04
    2dc6:	95 81       	ldd	r25, Z+5	; 0x05
    2dc8:	0e 94 2b 14 	call	0x2856	;  0x2856
    2dcc:	80 91 d8 01 	lds	r24, 0x01D8	;  0x8001d8
    2dd0:	90 e0       	ldi	r25, 0x00	; 0
    2dd2:	01 96       	adiw	r24, 0x01	; 1
    2dd4:	87 70       	andi	r24, 0x07	; 7
    2dd6:	99 27       	eor	r25, r25
    2dd8:	80 93 d8 01 	sts	0x01D8, r24	;  0x8001d8
    2ddc:	80 91 d8 01 	lds	r24, 0x01D8	;  0x8001d8
    2de0:	90 91 d9 01 	lds	r25, 0x01D9	;  0x8001d9
    2de4:	89 13       	cpse	r24, r25
    2de6:	da cf       	rjmp	.-76     	;  0x2d9c
    2de8:	2c 96       	adiw	r28, 0x0c	; 12
    2dea:	0f b6       	in	r0, 0x3f	; 63
    2dec:	f8 94       	cli
    2dee:	de bf       	out	0x3e, r29	; 62
    2df0:	0f be       	out	0x3f, r0	; 63
    2df2:	cd bf       	out	0x3d, r28	; 61
    2df4:	df 91       	pop	r29
    2df6:	cf 91       	pop	r28
    2df8:	1f 91       	pop	r17
    2dfa:	08 95       	ret
    2dfc:	69 85       	ldd	r22, Y+9	; 0x09
    2dfe:	7a 85       	ldd	r23, Y+10	; 0x0a
    2e00:	8b 85       	ldd	r24, Y+11	; 0x0b
    2e02:	9c 85       	ldd	r25, Y+12	; 0x0c
    2e04:	0e 94 2b 14 	call	0x2856	;  0x2856
    2e08:	88 cf       	rjmp	.-240    	;  0x2d1a
    2e0a:	ef 92       	push	r14
    2e0c:	ff 92       	push	r15
    2e0e:	0f 93       	push	r16
    2e10:	1f 93       	push	r17
    2e12:	cf 93       	push	r28
    2e14:	df 93       	push	r29
    2e16:	8c 01       	movw	r16, r24
    2e18:	89 2b       	or	r24, r25
    2e1a:	81 f0       	breq	.+32     	;  0x2e3c
    2e1c:	f1 2c       	mov	r15, r1
    2e1e:	ee 24       	eor	r14, r14
    2e20:	e3 94       	inc	r14
    2e22:	e8 01       	movw	r28, r16
    2e24:	21 96       	adiw	r28, 0x01	; 1
    2e26:	f8 01       	movw	r30, r16
    2e28:	84 91       	lpm	r24, Z
    2e2a:	84 37       	cpi	r24, 0x74	; 116
    2e2c:	70 f4       	brcc	.+28     	;  0x2e4a
    2e2e:	84 30       	cpi	r24, 0x04	; 4
    2e30:	08 f0       	brcs	.+2      	;  0x2e34
    2e32:	5f c0       	rjmp	.+190    	;  0x2ef2
    2e34:	81 30       	cpi	r24, 0x01	; 1
    2e36:	b1 f0       	breq	.+44     	;  0x2e64
    2e38:	82 30       	cpi	r24, 0x02	; 2
    2e3a:	a1 f1       	breq	.+104    	;  0x2ea4
    2e3c:	df 91       	pop	r29
    2e3e:	cf 91       	pop	r28
    2e40:	1f 91       	pop	r17
    2e42:	0f 91       	pop	r16
    2e44:	ff 90       	pop	r15
    2e46:	ef 90       	pop	r14
    2e48:	08 95       	ret
    2e4a:	85 37       	cpi	r24, 0x75	; 117
    2e4c:	09 f4       	brne	.+2      	;  0x2e50
    2e4e:	4c c0       	rjmp	.+152    	;  0x2ee8
    2e50:	08 f4       	brcc	.+2      	;  0x2e54
    2e52:	3d c0       	rjmp	.+122    	;  0x2ece
    2e54:	9c e7       	ldi	r25, 0x7C	; 124
    2e56:	98 0f       	add	r25, r24
    2e58:	90 37       	cpi	r25, 0x70	; 112
    2e5a:	80 f7       	brcc	.-32     	;  0x2e3c
    2e5c:	8f 77       	andi	r24, 0x7F	; 127
    2e5e:	0e 94 e9 10 	call	0x21d2	;  0x21d2
    2e62:	49 c0       	rjmp	.+146    	;  0x2ef6
    2e64:	0e 5f       	subi	r16, 0xFE	; 254
    2e66:	1f 4f       	sbci	r17, 0xFF	; 255
    2e68:	fe 01       	movw	r30, r28
    2e6a:	84 91       	lpm	r24, Z
    2e6c:	90 e2       	ldi	r25, 0x20	; 32
    2e6e:	98 0f       	add	r25, r24
    2e70:	98 30       	cpi	r25, 0x08	; 8
    2e72:	60 f4       	brcc	.+24     	;  0x2e8c
    2e74:	87 70       	andi	r24, 0x07	; 7
    2e76:	fe 2d       	mov	r31, r14
    2e78:	01 c0       	rjmp	.+2      	;  0x2e7c
    2e7a:	ff 0f       	add	r31, r31
    2e7c:	8a 95       	dec	r24
    2e7e:	ea f7       	brpl	.-6      	;  0x2e7a
    2e80:	8f 2f       	mov	r24, r31
    2e82:	0e 94 96 19 	call	0x332c	;  0x332c
    2e86:	0e 94 bf 19 	call	0x337e	;  0x337e
    2e8a:	02 c0       	rjmp	.+4      	;  0x2e90
    2e8c:	0e 94 52 10 	call	0x20a4	;  0x20a4
    2e90:	8f 2d       	mov	r24, r15
    2e92:	81 50       	subi	r24, 0x01	; 1
    2e94:	30 f2       	brcs	.-116    	;  0x2e22
    2e96:	ef e9       	ldi	r30, 0x9F	; 159
    2e98:	ff e0       	ldi	r31, 0x0F	; 15
    2e9a:	31 97       	sbiw	r30, 0x01	; 1
    2e9c:	f1 f7       	brne	.-4      	;  0x2e9a
    2e9e:	00 c0       	rjmp	.+0      	;  0x2ea0
    2ea0:	00 00       	nop
    2ea2:	f7 cf       	rjmp	.-18     	;  0x2e92
    2ea4:	0e 5f       	subi	r16, 0xFE	; 254
    2ea6:	1f 4f       	sbci	r17, 0xFF	; 255
    2ea8:	fe 01       	movw	r30, r28
    2eaa:	84 91       	lpm	r24, Z
    2eac:	90 e2       	ldi	r25, 0x20	; 32
    2eae:	98 0f       	add	r25, r24
    2eb0:	98 30       	cpi	r25, 0x08	; 8
    2eb2:	50 f4       	brcc	.+20     	;  0x2ec8
    2eb4:	87 70       	andi	r24, 0x07	; 7
    2eb6:	fe 2d       	mov	r31, r14
    2eb8:	01 c0       	rjmp	.+2      	;  0x2ebc
    2eba:	ff 0f       	add	r31, r31
    2ebc:	8a 95       	dec	r24
    2ebe:	ea f7       	brpl	.-6      	;  0x2eba
    2ec0:	8f 2f       	mov	r24, r31
    2ec2:	0e 94 9c 19 	call	0x3338	;  0x3338
    2ec6:	df cf       	rjmp	.-66     	;  0x2e86
    2ec8:	0e 94 e9 10 	call	0x21d2	;  0x21d2
    2ecc:	e1 cf       	rjmp	.-62     	;  0x2e90
    2ece:	0e 5f       	subi	r16, 0xFE	; 254
    2ed0:	1f 4f       	sbci	r17, 0xFF	; 255
    2ed2:	fe 01       	movw	r30, r28
    2ed4:	c4 91       	lpm	r28, Z
    2ed6:	c1 50       	subi	r28, 0x01	; 1
    2ed8:	d8 f2       	brcs	.-74     	;  0x2e90
    2eda:	8f e9       	ldi	r24, 0x9F	; 159
    2edc:	9f e0       	ldi	r25, 0x0F	; 15
    2ede:	01 97       	sbiw	r24, 0x01	; 1
    2ee0:	f1 f7       	brne	.-4      	;  0x2ede
    2ee2:	00 c0       	rjmp	.+0      	;  0x2ee4
    2ee4:	00 00       	nop
    2ee6:	f7 cf       	rjmp	.-18     	;  0x2ed6
    2ee8:	0e 5f       	subi	r16, 0xFE	; 254
    2eea:	1f 4f       	sbci	r17, 0xFF	; 255
    2eec:	fe 01       	movw	r30, r28
    2eee:	f4 90       	lpm	r15, Z
    2ef0:	cf cf       	rjmp	.-98     	;  0x2e90
    2ef2:	0e 94 52 10 	call	0x20a4	;  0x20a4
    2ef6:	8e 01       	movw	r16, r28
    2ef8:	cb cf       	rjmp	.-106    	;  0x2e90
    2efa:	08 95       	ret
    2efc:	0c 94 7d 17 	jmp	0x2efa	;  0x2efa
    2f00:	0e 94 7e 17 	call	0x2efc	;  0x2efc
    2f04:	60 93 23 02 	sts	0x0223, r22	;  0x800223
    2f08:	70 93 24 02 	sts	0x0224, r23	;  0x800224
    2f0c:	80 93 25 02 	sts	0x0225, r24	;  0x800225
    2f10:	90 93 26 02 	sts	0x0226, r25	;  0x800226
    2f14:	0c 94 df 13 	jmp	0x27be	;  0x27be
    2f18:	08 95       	ret
    2f1a:	0c 94 80 17 	jmp	0x2f00	;  0x2f00
    2f1e:	0f 93       	push	r16
    2f20:	1f 93       	push	r17
    2f22:	00 91 23 02 	lds	r16, 0x0223	;  0x800223
    2f26:	10 91 24 02 	lds	r17, 0x0224	;  0x800224
    2f2a:	20 91 25 02 	lds	r18, 0x0225	;  0x800225
    2f2e:	30 91 26 02 	lds	r19, 0x0226	;  0x800226
    2f32:	60 2b       	or	r22, r16
    2f34:	71 2b       	or	r23, r17
    2f36:	82 2b       	or	r24, r18
    2f38:	93 2b       	or	r25, r19
    2f3a:	1f 91       	pop	r17
    2f3c:	0f 91       	pop	r16
    2f3e:	0c 94 80 17 	jmp	0x2f00	;  0x2f00
    2f42:	0f 93       	push	r16
    2f44:	1f 93       	push	r17
    2f46:	00 91 23 02 	lds	r16, 0x0223	;  0x800223
    2f4a:	10 91 24 02 	lds	r17, 0x0224	;  0x800224
    2f4e:	20 91 25 02 	lds	r18, 0x0225	;  0x800225
    2f52:	30 91 26 02 	lds	r19, 0x0226	;  0x800226
    2f56:	60 23       	and	r22, r16
    2f58:	71 23       	and	r23, r17
    2f5a:	82 23       	and	r24, r18
    2f5c:	93 23       	and	r25, r19
    2f5e:	1f 91       	pop	r17
    2f60:	0f 91       	pop	r16
    2f62:	0c 94 80 17 	jmp	0x2f00	;  0x2f00
    2f66:	0f 93       	push	r16
    2f68:	1f 93       	push	r17
    2f6a:	00 91 23 02 	lds	r16, 0x0223	;  0x800223
    2f6e:	10 91 24 02 	lds	r17, 0x0224	;  0x800224
    2f72:	20 91 25 02 	lds	r18, 0x0225	;  0x800225
    2f76:	30 91 26 02 	lds	r19, 0x0226	;  0x800226
    2f7a:	60 27       	eor	r22, r16
    2f7c:	71 27       	eor	r23, r17
    2f7e:	82 27       	eor	r24, r18
    2f80:	93 27       	eor	r25, r19
    2f82:	1f 91       	pop	r17
    2f84:	0f 91       	pop	r16
    2f86:	0c 94 80 17 	jmp	0x2f00	;  0x2f00
    2f8a:	0c 94 7d 17 	jmp	0x2efa	;  0x2efa
    2f8e:	0c 94 c5 17 	jmp	0x2f8a	;  0x2f8a
    2f92:	0e 94 c7 17 	call	0x2f8e	;  0x2f8e
    2f96:	60 93 1f 02 	sts	0x021F, r22	;  0x80021f
    2f9a:	70 93 20 02 	sts	0x0220, r23	;  0x800220
    2f9e:	80 93 21 02 	sts	0x0221, r24	;  0x800221
    2fa2:	90 93 22 02 	sts	0x0222, r25	;  0x800222
    2fa6:	0c 94 df 13 	jmp	0x27be	;  0x27be
    2faa:	60 e0       	ldi	r22, 0x00	; 0
    2fac:	70 e0       	ldi	r23, 0x00	; 0
    2fae:	cb 01       	movw	r24, r22
    2fb0:	0c 94 c9 17 	jmp	0x2f92	;  0x2f92
    2fb4:	0f 93       	push	r16
    2fb6:	1f 93       	push	r17
    2fb8:	41 e0       	ldi	r20, 0x01	; 1
    2fba:	50 e0       	ldi	r21, 0x00	; 0
    2fbc:	60 e0       	ldi	r22, 0x00	; 0
    2fbe:	70 e0       	ldi	r23, 0x00	; 0
    2fc0:	8a 01       	movw	r16, r20
    2fc2:	9b 01       	movw	r18, r22
    2fc4:	04 c0       	rjmp	.+8      	;  0x2fce
    2fc6:	00 0f       	add	r16, r16
    2fc8:	11 1f       	adc	r17, r17
    2fca:	22 1f       	adc	r18, r18
    2fcc:	33 1f       	adc	r19, r19
    2fce:	8a 95       	dec	r24
    2fd0:	d2 f7       	brpl	.-12     	;  0x2fc6
    2fd2:	c9 01       	movw	r24, r18
    2fd4:	b8 01       	movw	r22, r16
    2fd6:	1f 91       	pop	r17
    2fd8:	0f 91       	pop	r16
    2fda:	0c 94 c9 17 	jmp	0x2f92	;  0x2f92
    2fde:	0f 93       	push	r16
    2fe0:	1f 93       	push	r17
    2fe2:	41 e0       	ldi	r20, 0x01	; 1
    2fe4:	50 e0       	ldi	r21, 0x00	; 0
    2fe6:	60 e0       	ldi	r22, 0x00	; 0
    2fe8:	70 e0       	ldi	r23, 0x00	; 0
    2fea:	04 c0       	rjmp	.+8      	;  0x2ff4
    2fec:	44 0f       	add	r20, r20
    2fee:	55 1f       	adc	r21, r21
    2ff0:	66 1f       	adc	r22, r22
    2ff2:	77 1f       	adc	r23, r23
    2ff4:	8a 95       	dec	r24
    2ff6:	d2 f7       	brpl	.-12     	;  0x2fec
    2ff8:	80 91 1f 02 	lds	r24, 0x021F	;  0x80021f
    2ffc:	90 91 20 02 	lds	r25, 0x0220	;  0x800220
    3000:	a0 91 21 02 	lds	r26, 0x0221	;  0x800221
    3004:	b0 91 22 02 	lds	r27, 0x0222	;  0x800222
    3008:	8a 01       	movw	r16, r20
    300a:	9b 01       	movw	r18, r22
    300c:	08 2b       	or	r16, r24
    300e:	19 2b       	or	r17, r25
    3010:	2a 2b       	or	r18, r26
    3012:	3b 2b       	or	r19, r27
    3014:	c9 01       	movw	r24, r18
    3016:	b8 01       	movw	r22, r16
    3018:	1f 91       	pop	r17
    301a:	0f 91       	pop	r16
    301c:	0c 94 c9 17 	jmp	0x2f92	;  0x2f92
    3020:	0f 93       	push	r16
    3022:	1f 93       	push	r17
    3024:	41 e0       	ldi	r20, 0x01	; 1
    3026:	50 e0       	ldi	r21, 0x00	; 0
    3028:	60 e0       	ldi	r22, 0x00	; 0
    302a:	70 e0       	ldi	r23, 0x00	; 0
    302c:	04 c0       	rjmp	.+8      	;  0x3036
    302e:	44 0f       	add	r20, r20
    3030:	55 1f       	adc	r21, r21
    3032:	66 1f       	adc	r22, r22
    3034:	77 1f       	adc	r23, r23
    3036:	8a 95       	dec	r24
    3038:	d2 f7       	brpl	.-12     	;  0x302e
    303a:	cb 01       	movw	r24, r22
    303c:	ba 01       	movw	r22, r20
    303e:	60 95       	com	r22
    3040:	70 95       	com	r23
    3042:	80 95       	com	r24
    3044:	90 95       	com	r25
    3046:	00 91 1f 02 	lds	r16, 0x021F	;  0x80021f
    304a:	10 91 20 02 	lds	r17, 0x0220	;  0x800220
    304e:	20 91 21 02 	lds	r18, 0x0221	;  0x800221
    3052:	30 91 22 02 	lds	r19, 0x0222	;  0x800222
    3056:	60 23       	and	r22, r16
    3058:	71 23       	and	r23, r17
    305a:	82 23       	and	r24, r18
    305c:	93 23       	and	r25, r19
    305e:	1f 91       	pop	r17
    3060:	0f 91       	pop	r16
    3062:	0c 94 c9 17 	jmp	0x2f92	;  0x2f92
    3066:	0f 93       	push	r16
    3068:	1f 93       	push	r17
    306a:	41 e0       	ldi	r20, 0x01	; 1
    306c:	50 e0       	ldi	r21, 0x00	; 0
    306e:	60 e0       	ldi	r22, 0x00	; 0
    3070:	70 e0       	ldi	r23, 0x00	; 0
    3072:	04 c0       	rjmp	.+8      	;  0x307c
    3074:	44 0f       	add	r20, r20
    3076:	55 1f       	adc	r21, r21
    3078:	66 1f       	adc	r22, r22
    307a:	77 1f       	adc	r23, r23
    307c:	8a 95       	dec	r24
    307e:	d2 f7       	brpl	.-12     	;  0x3074
    3080:	80 91 1f 02 	lds	r24, 0x021F	;  0x80021f
    3084:	90 91 20 02 	lds	r25, 0x0220	;  0x800220
    3088:	a0 91 21 02 	lds	r26, 0x0221	;  0x800221
    308c:	b0 91 22 02 	lds	r27, 0x0222	;  0x800222
    3090:	8a 01       	movw	r16, r20
    3092:	9b 01       	movw	r18, r22
    3094:	08 27       	eor	r16, r24
    3096:	19 27       	eor	r17, r25
    3098:	2a 27       	eor	r18, r26
    309a:	3b 27       	eor	r19, r27
    309c:	c9 01       	movw	r24, r18
    309e:	b8 01       	movw	r22, r16
    30a0:	1f 91       	pop	r17
    30a2:	0f 91       	pop	r16
    30a4:	0c 94 c9 17 	jmp	0x2f92	;  0x2f92
    30a8:	0f 93       	push	r16
    30aa:	1f 93       	push	r17
    30ac:	00 91 1f 02 	lds	r16, 0x021F	;  0x80021f
    30b0:	10 91 20 02 	lds	r17, 0x0220	;  0x800220
    30b4:	20 91 21 02 	lds	r18, 0x0221	;  0x800221
    30b8:	30 91 22 02 	lds	r19, 0x0222	;  0x800222
    30bc:	60 2b       	or	r22, r16
    30be:	71 2b       	or	r23, r17
    30c0:	82 2b       	or	r24, r18
    30c2:	93 2b       	or	r25, r19
    30c4:	1f 91       	pop	r17
    30c6:	0f 91       	pop	r16
    30c8:	0c 94 c9 17 	jmp	0x2f92	;  0x2f92
    30cc:	0f 93       	push	r16
    30ce:	1f 93       	push	r17
    30d0:	00 91 1f 02 	lds	r16, 0x021F	;  0x80021f
    30d4:	10 91 20 02 	lds	r17, 0x0220	;  0x800220
    30d8:	20 91 21 02 	lds	r18, 0x0221	;  0x800221
    30dc:	30 91 22 02 	lds	r19, 0x0222	;  0x800222
    30e0:	60 23       	and	r22, r16
    30e2:	71 23       	and	r23, r17
    30e4:	82 23       	and	r24, r18
    30e6:	93 23       	and	r25, r19
    30e8:	1f 91       	pop	r17
    30ea:	0f 91       	pop	r16
    30ec:	0c 94 c9 17 	jmp	0x2f92	;  0x2f92
    30f0:	0f 93       	push	r16
    30f2:	1f 93       	push	r17
    30f4:	00 91 1f 02 	lds	r16, 0x021F	;  0x80021f
    30f8:	10 91 20 02 	lds	r17, 0x0220	;  0x800220
    30fc:	20 91 21 02 	lds	r18, 0x0221	;  0x800221
    3100:	30 91 22 02 	lds	r19, 0x0222	;  0x800222
    3104:	60 27       	eor	r22, r16
    3106:	71 27       	eor	r23, r17
    3108:	82 27       	eor	r24, r18
    310a:	93 27       	eor	r25, r19
    310c:	1f 91       	pop	r17
    310e:	0f 91       	pop	r16
    3110:	0c 94 c9 17 	jmp	0x2f92	;  0x2f92
    3114:	08 95       	ret
    3116:	99 0f       	add	r25, r25
    3118:	99 0f       	add	r25, r25
    311a:	89 0f       	add	r24, r25
    311c:	98 2f       	mov	r25, r24
    311e:	97 70       	andi	r25, 0x07	; 7
    3120:	41 e0       	ldi	r20, 0x01	; 1
    3122:	01 c0       	rjmp	.+2      	;  0x3126
    3124:	44 0f       	add	r20, r20
    3126:	9a 95       	dec	r25
    3128:	ea f7       	brpl	.-6      	;  0x3124
    312a:	86 95       	lsr	r24
    312c:	86 95       	lsr	r24
    312e:	86 95       	lsr	r24
    3130:	95 e0       	ldi	r25, 0x05	; 5
    3132:	89 9f       	mul	r24, r25
    3134:	f0 01       	movw	r30, r0
    3136:	11 24       	eor	r1, r1
    3138:	e0 5f       	subi	r30, 0xF0	; 240
    313a:	fd 4f       	sbci	r31, 0xFD	; 253
    313c:	30 e0       	ldi	r19, 0x00	; 0
    313e:	20 e0       	ldi	r18, 0x00	; 0
    3140:	70 e0       	ldi	r23, 0x00	; 0
    3142:	51 91       	ld	r21, Z+
    3144:	df 01       	movw	r26, r30
    3146:	11 97       	sbiw	r26, 0x01	; 1
    3148:	cb 01       	movw	r24, r22
    314a:	02 2e       	mov	r0, r18
    314c:	02 c0       	rjmp	.+4      	;  0x3152
    314e:	96 95       	lsr	r25
    3150:	87 95       	ror	r24
    3152:	0a 94       	dec	r0
    3154:	e2 f7       	brpl	.-8      	;  0x314e
    3156:	81 70       	andi	r24, 0x01	; 1
    3158:	81 95       	neg	r24
    315a:	85 27       	eor	r24, r21
    315c:	84 23       	and	r24, r20
    315e:	85 27       	eor	r24, r21
    3160:	8c 93       	st	X, r24
    3162:	2f 5f       	subi	r18, 0xFF	; 255
    3164:	3f 4f       	sbci	r19, 0xFF	; 255
    3166:	25 30       	cpi	r18, 0x05	; 5
    3168:	31 05       	cpc	r19, r1
    316a:	59 f7       	brne	.-42     	;  0x3142
    316c:	08 95       	ret
    316e:	99 0f       	add	r25, r25
    3170:	99 0f       	add	r25, r25
    3172:	89 0f       	add	r24, r25
    3174:	98 2f       	mov	r25, r24
    3176:	97 70       	andi	r25, 0x07	; 7
    3178:	86 95       	lsr	r24
    317a:	86 95       	lsr	r24
    317c:	86 95       	lsr	r24
    317e:	25 e0       	ldi	r18, 0x05	; 5
    3180:	82 9f       	mul	r24, r18
    3182:	f0 01       	movw	r30, r0
    3184:	11 24       	eor	r1, r1
    3186:	e0 5f       	subi	r30, 0xF0	; 240
    3188:	fd 4f       	sbci	r31, 0xFD	; 253
    318a:	50 e0       	ldi	r21, 0x00	; 0
    318c:	40 e0       	ldi	r20, 0x00	; 0
    318e:	80 e0       	ldi	r24, 0x00	; 0
    3190:	21 91       	ld	r18, Z+
    3192:	30 e0       	ldi	r19, 0x00	; 0
    3194:	09 2e       	mov	r0, r25
    3196:	02 c0       	rjmp	.+4      	;  0x319c
    3198:	36 95       	lsr	r19
    319a:	27 95       	ror	r18
    319c:	0a 94       	dec	r0
    319e:	e2 f7       	brpl	.-8      	;  0x3198
    31a0:	21 70       	andi	r18, 0x01	; 1
    31a2:	33 27       	eor	r19, r19
    31a4:	04 2e       	mov	r0, r20
    31a6:	01 c0       	rjmp	.+2      	;  0x31aa
    31a8:	22 0f       	add	r18, r18
    31aa:	0a 94       	dec	r0
    31ac:	ea f7       	brpl	.-6      	;  0x31a8
    31ae:	82 2b       	or	r24, r18
    31b0:	4f 5f       	subi	r20, 0xFF	; 255
    31b2:	5f 4f       	sbci	r21, 0xFF	; 255
    31b4:	45 30       	cpi	r20, 0x05	; 5
    31b6:	51 05       	cpc	r21, r1
    31b8:	59 f7       	brne	.-42     	;  0x3190
    31ba:	08 95       	ret
    31bc:	bf 92       	push	r11
    31be:	cf 92       	push	r12
    31c0:	df 92       	push	r13
    31c2:	ef 92       	push	r14
    31c4:	ff 92       	push	r15
    31c6:	0f 93       	push	r16
    31c8:	1f 93       	push	r17
    31ca:	cf 93       	push	r28
    31cc:	df 93       	push	r29
    31ce:	8c 01       	movw	r16, r24
    31d0:	c0 90 1f 02 	lds	r12, 0x021F	;  0x80021f
    31d4:	d0 90 20 02 	lds	r13, 0x0220	;  0x800220
    31d8:	e0 90 21 02 	lds	r14, 0x0221	;  0x800221
    31dc:	f0 90 22 02 	lds	r15, 0x0222	;  0x800222
    31e0:	80 91 23 02 	lds	r24, 0x0223	;  0x800223
    31e4:	90 91 24 02 	lds	r25, 0x0224	;  0x800224
    31e8:	a0 91 25 02 	lds	r26, 0x0225	;  0x800225
    31ec:	b0 91 26 02 	lds	r27, 0x0226	;  0x800226
    31f0:	c8 2a       	or	r12, r24
    31f2:	d9 2a       	or	r13, r25
    31f4:	ea 2a       	or	r14, r26
    31f6:	fb 2a       	or	r15, r27
    31f8:	cf e1       	ldi	r28, 0x1F	; 31
    31fa:	d0 e0       	ldi	r29, 0x00	; 0
    31fc:	bc 2e       	mov	r11, r28
    31fe:	d7 01       	movw	r26, r14
    3200:	c6 01       	movw	r24, r12
    3202:	0c 2e       	mov	r0, r28
    3204:	04 c0       	rjmp	.+8      	;  0x320e
    3206:	b6 95       	lsr	r27
    3208:	a7 95       	ror	r26
    320a:	97 95       	ror	r25
    320c:	87 95       	ror	r24
    320e:	0a 94       	dec	r0
    3210:	d2 f7       	brpl	.-12     	;  0x3206
    3212:	80 fd       	sbrc	r24, 0
    3214:	0e c0       	rjmp	.+28     	;  0x3232
    3216:	21 97       	sbiw	r28, 0x01	; 1
    3218:	88 f7       	brcc	.-30     	;  0x31fc
    321a:	b1 2c       	mov	r11, r1
    321c:	8b 2d       	mov	r24, r11
    321e:	df 91       	pop	r29
    3220:	cf 91       	pop	r28
    3222:	1f 91       	pop	r17
    3224:	0f 91       	pop	r16
    3226:	ff 90       	pop	r15
    3228:	ef 90       	pop	r14
    322a:	df 90       	pop	r13
    322c:	cf 90       	pop	r12
    322e:	bf 90       	pop	r11
    3230:	08 95       	ret
    3232:	b8 01       	movw	r22, r16
    3234:	8c 2f       	mov	r24, r28
    3236:	0e 94 62 09 	call	0x12c4	;  0x12c4
    323a:	01 97       	sbiw	r24, 0x01	; 1
    323c:	61 f3       	breq	.-40     	;  0x3216
    323e:	ee cf       	rjmp	.-36     	;  0x321c
    3240:	cf 93       	push	r28
    3242:	df 93       	push	r29
    3244:	ec 01       	movw	r28, r24
    3246:	0e 94 de 18 	call	0x31bc	;  0x31bc
    324a:	be 01       	movw	r22, r28
    324c:	df 91       	pop	r29
    324e:	cf 91       	pop	r28
    3250:	0c 94 62 09 	jmp	0x12c4	;  0x12c4
    3254:	1f 93       	push	r17
    3256:	cf 93       	push	r28
    3258:	df 93       	push	r29
    325a:	eb 01       	movw	r28, r22
    325c:	90 91 d7 01 	lds	r25, 0x01D7	;  0x8001d7
    3260:	99 23       	and	r25, r25
    3262:	31 f0       	breq	.+12     	;  0x3270
    3264:	cb 01       	movw	r24, r22
    3266:	df 91       	pop	r29
    3268:	cf 91       	pop	r28
    326a:	1f 91       	pop	r17
    326c:	0c 94 20 19 	jmp	0x3240	;  0x3240
    3270:	88 23       	and	r24, r24
    3272:	79 f0       	breq	.+30     	;  0x3292
    3274:	cb 01       	movw	r24, r22
    3276:	0e 94 de 18 	call	0x31bc	;  0x31bc
    327a:	18 2f       	mov	r17, r24
    327c:	68 2f       	mov	r22, r24
    327e:	ce 01       	movw	r24, r28
    3280:	0e 94 8b 18 	call	0x3116	;  0x3116
    3284:	be 01       	movw	r22, r28
    3286:	81 2f       	mov	r24, r17
    3288:	df 91       	pop	r29
    328a:	cf 91       	pop	r28
    328c:	1f 91       	pop	r17
    328e:	0c 94 62 09 	jmp	0x12c4	;  0x12c4
    3292:	cb 01       	movw	r24, r22
    3294:	0e 94 b7 18 	call	0x316e	;  0x316e
    3298:	18 2f       	mov	r17, r24
    329a:	f4 cf       	rjmp	.-24     	;  0x3284
    329c:	68 2f       	mov	r22, r24
    329e:	80 91 00 01 	lds	r24, 0x0100	;  0x800100
    32a2:	90 91 01 01 	lds	r25, 0x0101	;  0x800101
    32a6:	0c 94 31 1b 	jmp	0x3662	;  0x3662
    32aa:	68 2f       	mov	r22, r24
    32ac:	80 91 00 01 	lds	r24, 0x0100	;  0x800100
    32b0:	90 91 01 01 	lds	r25, 0x0101	;  0x800101
    32b4:	0c 94 33 1b 	jmp	0x3666	;  0x3666
    32b8:	80 91 00 01 	lds	r24, 0x0100	;  0x800100
    32bc:	90 91 01 01 	lds	r25, 0x0101	;  0x800101
    32c0:	0c 94 35 1b 	jmp	0x366a	;  0x366a
    32c4:	80 91 27 02 	lds	r24, 0x0227	;  0x800227
    32c8:	85 95       	asr	r24
    32ca:	85 95       	asr	r24
    32cc:	85 95       	asr	r24
    32ce:	08 95       	ret
    32d0:	80 91 27 02 	lds	r24, 0x0227	;  0x800227
    32d4:	87 70       	andi	r24, 0x07	; 7
    32d6:	08 95       	ret
    32d8:	90 91 27 02 	lds	r25, 0x0227	;  0x800227
    32dc:	97 70       	andi	r25, 0x07	; 7
    32de:	81 e0       	ldi	r24, 0x01	; 1
    32e0:	09 f4       	brne	.+2      	;  0x32e4
    32e2:	80 e0       	ldi	r24, 0x00	; 0
    32e4:	08 95       	ret
    32e6:	80 91 33 02 	lds	r24, 0x0233	;  0x800233
    32ea:	08 95       	ret
    32ec:	90 91 33 02 	lds	r25, 0x0233	;  0x800233
    32f0:	89 2b       	or	r24, r25
    32f2:	80 93 33 02 	sts	0x0233, r24	;  0x800233
    32f6:	08 95       	ret
    32f8:	80 95       	com	r24
    32fa:	90 91 33 02 	lds	r25, 0x0233	;  0x800233
    32fe:	98 23       	and	r25, r24
    3300:	90 93 33 02 	sts	0x0233, r25	;  0x800233
    3304:	08 95       	ret
    3306:	10 92 33 02 	sts	0x0233, r1	;  0x800233
    330a:	08 95       	ret
    330c:	90 91 32 02 	lds	r25, 0x0232	;  0x800232
    3310:	89 2b       	or	r24, r25
    3312:	80 93 32 02 	sts	0x0232, r24	;  0x800232
    3316:	08 95       	ret
    3318:	80 95       	com	r24
    331a:	90 91 32 02 	lds	r25, 0x0232	;  0x800232
    331e:	98 23       	and	r25, r24
    3320:	90 93 32 02 	sts	0x0232, r25	;  0x800232
    3324:	08 95       	ret
    3326:	10 92 32 02 	sts	0x0232, r1	;  0x800232
    332a:	08 95       	ret
    332c:	90 91 31 02 	lds	r25, 0x0231	;  0x800231
    3330:	89 2b       	or	r24, r25
    3332:	80 93 31 02 	sts	0x0231, r24	;  0x800231
    3336:	08 95       	ret
    3338:	80 95       	com	r24
    333a:	90 91 31 02 	lds	r25, 0x0231	;  0x800231
    333e:	98 23       	and	r25, r24
    3340:	90 93 31 02 	sts	0x0231, r25	;  0x800231
    3344:	08 95       	ret
    3346:	10 92 31 02 	sts	0x0231, r1	;  0x800231
    334a:	08 95       	ret
    334c:	80 91 28 02 	lds	r24, 0x0228	;  0x800228
    3350:	08 95       	ret
    3352:	08 95       	ret
    3354:	0c 94 a9 19 	jmp	0x3352	;  0x3352
    3358:	90 91 28 02 	lds	r25, 0x0228	;  0x800228
    335c:	98 17       	cp	r25, r24
    335e:	21 f0       	breq	.+8      	;  0x3368
    3360:	80 93 28 02 	sts	0x0228, r24	;  0x800228
    3364:	0c 94 aa 19 	jmp	0x3354	;  0x3354
    3368:	08 95       	ret
    336a:	80 91 28 02 	lds	r24, 0x0228	;  0x800228
    336e:	88 23       	and	r24, r24
    3370:	29 f0       	breq	.+10     	;  0x337c
    3372:	10 92 28 02 	sts	0x0228, r1	;  0x800228
    3376:	80 e0       	ldi	r24, 0x00	; 0
    3378:	0c 94 aa 19 	jmp	0x3354	;  0x3354
    337c:	08 95       	ret
    337e:	e0 91 00 01 	lds	r30, 0x0100	;  0x800100
    3382:	f0 91 01 01 	lds	r31, 0x0101	;  0x800101
    3386:	80 91 33 02 	lds	r24, 0x0233	;  0x800233
    338a:	80 83       	st	Z, r24
    338c:	e0 91 00 01 	lds	r30, 0x0100	;  0x800100
    3390:	f0 91 01 01 	lds	r31, 0x0101	;  0x800101
    3394:	80 81       	ld	r24, Z
    3396:	90 91 32 02 	lds	r25, 0x0232	;  0x800232
    339a:	89 2b       	or	r24, r25
    339c:	80 83       	st	Z, r24
    339e:	e0 91 00 01 	lds	r30, 0x0100	;  0x800100
    33a2:	f0 91 01 01 	lds	r31, 0x0101	;  0x800101
    33a6:	80 81       	ld	r24, Z
    33a8:	90 91 31 02 	lds	r25, 0x0231	;  0x800231
    33ac:	89 2b       	or	r24, r25
    33ae:	80 83       	st	Z, r24
    33b0:	90 91 28 02 	lds	r25, 0x0228	;  0x800228
    33b4:	99 23       	and	r25, r25
    33b6:	81 f0       	breq	.+32     	;  0x33d8
    33b8:	e0 91 00 01 	lds	r30, 0x0100	;  0x800100
    33bc:	f0 91 01 01 	lds	r31, 0x0101	;  0x800101
    33c0:	80 81       	ld	r24, Z
    33c2:	89 2b       	or	r24, r25
    33c4:	80 83       	st	Z, r24
    33c6:	80 91 00 01 	lds	r24, 0x0100	;  0x800100
    33ca:	90 91 01 01 	lds	r25, 0x0101	;  0x800101
    33ce:	0e 94 e9 1a 	call	0x35d2	;  0x35d2
    33d2:	81 11       	cpse	r24, r1
    33d4:	0e 94 b5 19 	call	0x336a	;  0x336a
    33d8:	80 91 00 01 	lds	r24, 0x0100	;  0x800100
    33dc:	90 91 01 01 	lds	r25, 0x0101	;  0x800101
    33e0:	0c 94 be 0e 	jmp	0x1d7c	;  0x1d7c
    33e4:	08 95       	ret
    33e6:	0c 94 f2 19 	jmp	0x33e4	;  0x33e4
    33ea:	98 e0       	ldi	r25, 0x08	; 8
    33ec:	89 9f       	mul	r24, r25
    33ee:	90 01       	movw	r18, r0
    33f0:	11 24       	eor	r1, r1
    33f2:	62 2b       	or	r22, r18
    33f4:	60 93 27 02 	sts	0x0227, r22	;  0x800227
    33f8:	0e 94 ef 17 	call	0x2fde	;  0x2fde
    33fc:	80 91 27 02 	lds	r24, 0x0227	;  0x800227
    3400:	85 95       	asr	r24
    3402:	85 95       	asr	r24
    3404:	85 95       	asr	r24
    3406:	0c 94 f3 19 	jmp	0x33e6	;  0x33e6
    340a:	10 92 27 02 	sts	0x0227, r1	;  0x800227
    340e:	80 e0       	ldi	r24, 0x00	; 0
    3410:	0c 94 f3 19 	jmp	0x33e6	;  0x33e6
    3414:	90 91 27 02 	lds	r25, 0x0227	;  0x800227
    3418:	80 95       	com	r24
    341a:	89 23       	and	r24, r25
    341c:	80 93 27 02 	sts	0x0227, r24	;  0x800227
    3420:	28 2f       	mov	r18, r24
    3422:	27 70       	andi	r18, 0x07	; 7
    3424:	71 f4       	brne	.+28     	;  0x3442
    3426:	28 2f       	mov	r18, r24
    3428:	08 2e       	mov	r0, r24
    342a:	00 0c       	add	r0, r0
    342c:	33 0b       	sbc	r19, r19
    342e:	92 17       	cp	r25, r18
    3430:	13 06       	cpc	r1, r19
    3432:	39 f0       	breq	.+14     	;  0x3442
    3434:	85 95       	asr	r24
    3436:	85 95       	asr	r24
    3438:	85 95       	asr	r24
    343a:	0e 94 10 18 	call	0x3020	;  0x3020
    343e:	0c 94 05 1a 	jmp	0x340a	;  0x340a
    3442:	08 95       	ret
    3444:	90 93 c3 01 	sts	0x01C3, r25	;  0x8001c3
    3448:	80 93 c2 01 	sts	0x01C2, r24	;  0x8001c2
    344c:	08 95       	ret
    344e:	82 95       	swap	r24
    3450:	90 e0       	ldi	r25, 0x00	; 0
    3452:	9c 01       	movw	r18, r24
    3454:	22 0f       	add	r18, r18
    3456:	33 1f       	adc	r19, r19
    3458:	22 0f       	add	r18, r18
    345a:	33 1f       	adc	r19, r19
    345c:	2c 7c       	andi	r18, 0xCC	; 204
    345e:	95 95       	asr	r25
    3460:	87 95       	ror	r24
    3462:	95 95       	asr	r25
    3464:	87 95       	ror	r24
    3466:	83 73       	andi	r24, 0x33	; 51
    3468:	28 2b       	or	r18, r24
    346a:	30 e0       	ldi	r19, 0x00	; 0
    346c:	c9 01       	movw	r24, r18
    346e:	88 0f       	add	r24, r24
    3470:	99 1f       	adc	r25, r25
    3472:	8a 7a       	andi	r24, 0xAA	; 170
    3474:	35 95       	asr	r19
    3476:	27 95       	ror	r18
    3478:	25 75       	andi	r18, 0x55	; 85
    347a:	82 2b       	or	r24, r18
    347c:	08 95       	ret
    347e:	6f ef       	ldi	r22, 0xFF	; 255
    3480:	7f ef       	ldi	r23, 0xFF	; 255
    3482:	90 e0       	ldi	r25, 0x00	; 0
    3484:	80 e0       	ldi	r24, 0x00	; 0
    3486:	0c 94 86 2c 	jmp	0x590c	;  0x590c
    348a:	90 e0       	ldi	r25, 0x00	; 0
    348c:	80 e0       	ldi	r24, 0x00	; 0
    348e:	0e 94 62 2c 	call	0x58c4	;  0x58c4
    3492:	21 e0       	ldi	r18, 0x01	; 1
    3494:	8c 3e       	cpi	r24, 0xEC	; 236
    3496:	9e 4f       	sbci	r25, 0xFE	; 254
    3498:	09 f0       	breq	.+2      	;  0x349c
    349a:	20 e0       	ldi	r18, 0x00	; 0
    349c:	82 2f       	mov	r24, r18
    349e:	08 95       	ret
    34a0:	82 e0       	ldi	r24, 0x02	; 2
    34a2:	90 e0       	ldi	r25, 0x00	; 0
    34a4:	0c 94 5a 2c 	jmp	0x58b4	;  0x58b4
    34a8:	83 e0       	ldi	r24, 0x03	; 3
    34aa:	90 e0       	ldi	r25, 0x00	; 0
    34ac:	0c 94 5a 2c 	jmp	0x58b4	;  0x58b4
    34b0:	cf 93       	push	r28
    34b2:	84 e0       	ldi	r24, 0x04	; 4
    34b4:	90 e0       	ldi	r25, 0x00	; 0
    34b6:	0e 94 5a 2c 	call	0x58b4	;  0x58b4
    34ba:	c8 2f       	mov	r28, r24
    34bc:	81 e2       	ldi	r24, 0x21	; 33
    34be:	90 e0       	ldi	r25, 0x00	; 0
    34c0:	0e 94 5a 2c 	call	0x58b4	;  0x58b4
    34c4:	98 2f       	mov	r25, r24
    34c6:	8c 2f       	mov	r24, r28
    34c8:	cf 91       	pop	r28
    34ca:	08 95       	ret
    34cc:	cf 93       	push	r28
    34ce:	c9 2f       	mov	r28, r25
    34d0:	68 2f       	mov	r22, r24
    34d2:	84 e0       	ldi	r24, 0x04	; 4
    34d4:	90 e0       	ldi	r25, 0x00	; 0
    34d6:	0e 94 68 2c 	call	0x58d0	;  0x58d0
    34da:	6c 2f       	mov	r22, r28
    34dc:	81 e2       	ldi	r24, 0x21	; 33
    34de:	90 e0       	ldi	r25, 0x00	; 0
    34e0:	cf 91       	pop	r28
    34e2:	0c 94 68 2c 	jmp	0x58d0	;  0x58d0
    34e6:	ab 01       	movw	r20, r22
    34e8:	bc 01       	movw	r22, r24
    34ea:	8f e0       	ldi	r24, 0x0F	; 15
    34ec:	90 e0       	ldi	r25, 0x00	; 0
    34ee:	0c 94 7a 2c 	jmp	0x58f4	;  0x58f4
    34f2:	ab 01       	movw	r20, r22
    34f4:	bc 01       	movw	r22, r24
    34f6:	83 e1       	ldi	r24, 0x13	; 19
    34f8:	90 e0       	ldi	r25, 0x00	; 0
    34fa:	0c 94 7a 2c 	jmp	0x58f4	;  0x58f4
    34fe:	60 e0       	ldi	r22, 0x00	; 0
    3500:	70 e0       	ldi	r23, 0x00	; 0
    3502:	cb 01       	movw	r24, r22
    3504:	0c 94 79 1a 	jmp	0x34f2	;  0x34f2
    3508:	60 e0       	ldi	r22, 0x00	; 0
    350a:	70 e0       	ldi	r23, 0x00	; 0
    350c:	cb 01       	movw	r24, r22
    350e:	0e 94 73 1a 	call	0x34e6	;  0x34e6
    3512:	0c 94 7f 1a 	jmp	0x34fe	;  0x34fe
    3516:	6c ee       	ldi	r22, 0xEC	; 236
    3518:	7e ef       	ldi	r23, 0xFE	; 254
    351a:	90 e0       	ldi	r25, 0x00	; 0
    351c:	80 e0       	ldi	r24, 0x00	; 0
    351e:	0e 94 86 2c 	call	0x590c	;  0x590c
    3522:	60 e0       	ldi	r22, 0x00	; 0
    3524:	82 e0       	ldi	r24, 0x02	; 2
    3526:	90 e0       	ldi	r25, 0x00	; 0
    3528:	0e 94 68 2c 	call	0x58d0	;  0x58d0
    352c:	60 e0       	ldi	r22, 0x00	; 0
    352e:	83 e0       	ldi	r24, 0x03	; 3
    3530:	90 e0       	ldi	r25, 0x00	; 0
    3532:	0e 94 68 2c 	call	0x58d0	;  0x58d0
    3536:	10 92 23 02 	sts	0x0223, r1	;  0x800223
    353a:	10 92 24 02 	sts	0x0224, r1	;  0x800224
    353e:	10 92 25 02 	sts	0x0225, r1	;  0x800225
    3542:	10 92 26 02 	sts	0x0226, r1	;  0x800226
    3546:	60 e0       	ldi	r22, 0x00	; 0
    3548:	84 e0       	ldi	r24, 0x04	; 4
    354a:	90 e0       	ldi	r25, 0x00	; 0
    354c:	0e 94 68 2c 	call	0x58d0	;  0x58d0
    3550:	60 e0       	ldi	r22, 0x00	; 0
    3552:	81 e2       	ldi	r24, 0x21	; 33
    3554:	90 e0       	ldi	r25, 0x00	; 0
    3556:	0e 94 68 2c 	call	0x58d0	;  0x58d0
    355a:	60 e0       	ldi	r22, 0x00	; 0
    355c:	85 e0       	ldi	r24, 0x05	; 5
    355e:	90 e0       	ldi	r25, 0x00	; 0
    3560:	0e 94 68 2c 	call	0x58d0	;  0x58d0
    3564:	60 e0       	ldi	r22, 0x00	; 0
    3566:	86 e0       	ldi	r24, 0x06	; 6
    3568:	90 e0       	ldi	r25, 0x00	; 0
    356a:	0e 94 68 2c 	call	0x58d0	;  0x58d0
    356e:	6f ef       	ldi	r22, 0xFF	; 255
    3570:	87 e0       	ldi	r24, 0x07	; 7
    3572:	90 e0       	ldi	r25, 0x00	; 0
    3574:	0e 94 68 2c 	call	0x58d0	;  0x58d0
    3578:	40 e0       	ldi	r20, 0x00	; 0
    357a:	50 e0       	ldi	r21, 0x00	; 0
    357c:	ba 01       	movw	r22, r20
    357e:	88 e0       	ldi	r24, 0x08	; 8
    3580:	90 e0       	ldi	r25, 0x00	; 0
    3582:	0e 94 7a 2c 	call	0x58f4	;  0x58f4
    3586:	60 e0       	ldi	r22, 0x00	; 0
    3588:	8d e0       	ldi	r24, 0x0D	; 13
    358a:	90 e0       	ldi	r25, 0x00	; 0
    358c:	0e 94 68 2c 	call	0x58d0	;  0x58d0
    3590:	40 e0       	ldi	r20, 0x00	; 0
    3592:	50 e0       	ldi	r21, 0x00	; 0
    3594:	ba 01       	movw	r22, r20
    3596:	88 e1       	ldi	r24, 0x18	; 24
    3598:	90 e0       	ldi	r25, 0x00	; 0
    359a:	0e 94 7a 2c 	call	0x58f4	;  0x58f4
    359e:	60 e0       	ldi	r22, 0x00	; 0
    35a0:	87 e1       	ldi	r24, 0x17	; 23
    35a2:	90 e0       	ldi	r25, 0x00	; 0
    35a4:	0e 94 68 2c 	call	0x58d0	;  0x58d0
    35a8:	40 e0       	ldi	r20, 0x00	; 0
    35aa:	50 e0       	ldi	r21, 0x00	; 0
    35ac:	ba 01       	movw	r22, r20
    35ae:	8c e1       	ldi	r24, 0x1C	; 28
    35b0:	90 e0       	ldi	r25, 0x00	; 0
    35b2:	0e 94 7a 2c 	call	0x58f4	;  0x58f4
    35b6:	60 e0       	ldi	r22, 0x00	; 0
    35b8:	80 e2       	ldi	r24, 0x20	; 32
    35ba:	90 e0       	ldi	r25, 0x00	; 0
    35bc:	0e 94 68 2c 	call	0x58d0	;  0x58d0
    35c0:	0c 94 84 1a 	jmp	0x3508	;  0x3508
    35c4:	0c 94 8b 1a 	jmp	0x3516	;  0x3516
    35c8:	68 2f       	mov	r22, r24
    35ca:	8e e0       	ldi	r24, 0x0E	; 14
    35cc:	90 e0       	ldi	r25, 0x00	; 0
    35ce:	0c 94 68 2c 	jmp	0x58d0	;  0x58d0
    35d2:	9c 01       	movw	r18, r24
    35d4:	2e 5f       	subi	r18, 0xFE	; 254
    35d6:	3f 4f       	sbci	r19, 0xFF	; 255
    35d8:	ac 01       	movw	r20, r24
    35da:	48 5f       	subi	r20, 0xF8	; 248
    35dc:	5f 4f       	sbci	r21, 0xFF	; 255
    35de:	80 e0       	ldi	r24, 0x00	; 0
    35e0:	24 17       	cp	r18, r20
    35e2:	35 07       	cpc	r19, r21
    35e4:	09 f4       	brne	.+2      	;  0x35e8
    35e6:	08 95       	ret
    35e8:	f9 01       	movw	r30, r18
    35ea:	91 91       	ld	r25, Z+
    35ec:	9f 01       	movw	r18, r30
    35ee:	99 23       	and	r25, r25
    35f0:	b9 f3       	breq	.-18     	;  0x35e0
    35f2:	8f 5f       	subi	r24, 0xFF	; 255
    35f4:	f5 cf       	rjmp	.-22     	;  0x35e0
    35f6:	66 23       	and	r22, r22
    35f8:	49 f0       	breq	.+18     	;  0x360c
    35fa:	fc 01       	movw	r30, r24
    35fc:	32 96       	adiw	r30, 0x02	; 2
    35fe:	08 96       	adiw	r24, 0x08	; 8
    3600:	21 91       	ld	r18, Z+
    3602:	26 17       	cp	r18, r22
    3604:	29 f0       	breq	.+10     	;  0x3610
    3606:	e8 17       	cp	r30, r24
    3608:	f9 07       	cpc	r31, r25
    360a:	d1 f7       	brne	.-12     	;  0x3600
    360c:	80 e0       	ldi	r24, 0x00	; 0
    360e:	08 95       	ret
    3610:	81 e0       	ldi	r24, 0x01	; 1
    3612:	08 95       	ret
    3614:	9c 01       	movw	r18, r24
    3616:	fc 01       	movw	r30, r24
    3618:	32 96       	adiw	r30, 0x02	; 2
    361a:	9f ef       	ldi	r25, 0xFF	; 255
    361c:	80 e0       	ldi	r24, 0x00	; 0
    361e:	41 91       	ld	r20, Z+
    3620:	46 17       	cp	r20, r22
    3622:	51 f0       	breq	.+20     	;  0x3638
    3624:	9f 3f       	cpi	r25, 0xFF	; 255
    3626:	19 f4       	brne	.+6      	;  0x362e
    3628:	41 11       	cpse	r20, r1
    362a:	01 c0       	rjmp	.+2      	;  0x362e
    362c:	98 2f       	mov	r25, r24
    362e:	8f 5f       	subi	r24, 0xFF	; 255
    3630:	86 30       	cpi	r24, 0x06	; 6
    3632:	a9 f7       	brne	.-22     	;  0x361e
    3634:	9f 3f       	cpi	r25, 0xFF	; 255
    3636:	09 f4       	brne	.+2      	;  0x363a
    3638:	08 95       	ret
    363a:	29 0f       	add	r18, r25
    363c:	31 1d       	adc	r19, r1
    363e:	97 fd       	sbrc	r25, 7
    3640:	3a 95       	dec	r19
    3642:	f9 01       	movw	r30, r18
    3644:	62 83       	std	Z+2, r22	; 0x02
    3646:	08 95       	ret
    3648:	fc 01       	movw	r30, r24
    364a:	32 96       	adiw	r30, 0x02	; 2
    364c:	08 96       	adiw	r24, 0x08	; 8
    364e:	21 91       	ld	r18, Z+
    3650:	26 13       	cpse	r18, r22
    3652:	03 c0       	rjmp	.+6      	;  0x365a
    3654:	df 01       	movw	r26, r30
    3656:	11 97       	sbiw	r26, 0x01	; 1
    3658:	1c 92       	st	X, r1
    365a:	e8 17       	cp	r30, r24
    365c:	f9 07       	cpc	r31, r25
    365e:	b9 f7       	brne	.-18     	;  0x364e
    3660:	08 95       	ret
    3662:	0c 94 0a 1b 	jmp	0x3614	;  0x3614
    3666:	0c 94 24 1b 	jmp	0x3648	;  0x3648
    366a:	02 96       	adiw	r24, 0x02	; 2
    366c:	26 e0       	ldi	r18, 0x06	; 6
    366e:	fc 01       	movw	r30, r24
    3670:	11 92       	st	Z+, r1
    3672:	2a 95       	dec	r18
    3674:	e9 f7       	brne	.-6      	;  0x3670
    3676:	08 95       	ret
    3678:	08 95       	ret
    367a:	08 95       	ret
    367c:	0c 94 3d 1b 	jmp	0x367a	;  0x367a
    3680:	0e 94 3e 1b 	call	0x367c	;  0x367c
    3684:	80 91 6a 02 	lds	r24, 0x026A	;  0x80026a
    3688:	84 30       	cpi	r24, 0x04	; 4
    368a:	49 f1       	breq	.+82     	;  0x36de
    368c:	10 92 35 02 	sts	0x0235, r1	;  0x800235
    3690:	88 e1       	ldi	r24, 0x18	; 24
    3692:	90 e0       	ldi	r25, 0x00	; 0
    3694:	20 e4       	ldi	r18, 0x40	; 64
    3696:	0f b6       	in	r0, 0x3f	; 63
    3698:	f8 94       	cli
    369a:	a8 95       	wdr
    369c:	80 93 60 00 	sts	0x0060, r24	;  0x800060
    36a0:	0f be       	out	0x3f, r0	; 63
    36a2:	20 93 60 00 	sts	0x0060, r18	;  0x800060
    36a6:	80 e0       	ldi	r24, 0x00	; 0
    36a8:	0e 94 d8 08 	call	0x11b0	;  0x11b0
    36ac:	0e 94 3e 1b 	call	0x367c	;  0x367c
    36b0:	83 b7       	in	r24, 0x33	; 51
    36b2:	81 7f       	andi	r24, 0xF1	; 241
    36b4:	84 60       	ori	r24, 0x04	; 4
    36b6:	83 bf       	out	0x33, r24	; 51
    36b8:	83 b7       	in	r24, 0x33	; 51
    36ba:	81 60       	ori	r24, 0x01	; 1
    36bc:	83 bf       	out	0x33, r24	; 51
    36be:	78 94       	sei
    36c0:	88 95       	sleep
    36c2:	83 b7       	in	r24, 0x33	; 51
    36c4:	8e 7f       	andi	r24, 0xFE	; 254
    36c6:	83 bf       	out	0x33, r24	; 51
    36c8:	0f b6       	in	r0, 0x3f	; 63
    36ca:	f8 94       	cli
    36cc:	a8 95       	wdr
    36ce:	80 91 60 00 	lds	r24, 0x0060	;  0x800060
    36d2:	88 61       	ori	r24, 0x18	; 24
    36d4:	80 93 60 00 	sts	0x0060, r24	;  0x800060
    36d8:	10 92 60 00 	sts	0x0060, r1	;  0x800060
    36dc:	0f be       	out	0x3f, r0	; 63
    36de:	08 95       	ret
    36e0:	08 95       	ret
    36e2:	cf 93       	push	r28
    36e4:	0e 94 3c 1b 	call	0x3678	;  0x3678
    36e8:	0e 94 fb 0b 	call	0x17f6	;  0x17f6
    36ec:	0e 94 70 1b 	call	0x36e0	;  0x36e0
    36f0:	c0 e0       	ldi	r28, 0x00	; 0
    36f2:	8c 2f       	mov	r24, r28
    36f4:	0e 94 57 0b 	call	0x16ae	;  0x16ae
    36f8:	81 11       	cpse	r24, r1
    36fa:	05 c0       	rjmp	.+10     	;  0x3706
    36fc:	cf 5f       	subi	r28, 0xFF	; 255
    36fe:	c5 30       	cpi	r28, 0x05	; 5
    3700:	c1 f7       	brne	.-16     	;  0x36f2
    3702:	cf 91       	pop	r28
    3704:	08 95       	ret
    3706:	81 e0       	ldi	r24, 0x01	; 1
    3708:	fc cf       	rjmp	.-8      	;  0x3702
    370a:	08 95       	ret
    370c:	0c 94 85 1b 	jmp	0x370a	;  0x370a
    3710:	0e 94 f5 13 	call	0x27ea	;  0x27ea
    3714:	0e 94 b2 0e 	call	0x1d64	;  0x1d64
    3718:	0e 94 d8 08 	call	0x11b0	;  0x11b0
    371c:	0c 94 86 1b 	jmp	0x370c	;  0x370c
    3720:	1f 92       	push	r1
    3722:	1f b6       	in	r1, 0x3f	; 63
    3724:	1f 92       	push	r1
    3726:	11 24       	eor	r1, r1
    3728:	8f 93       	push	r24
    372a:	9f 93       	push	r25
    372c:	af 93       	push	r26
    372e:	bf 93       	push	r27
    3730:	80 91 35 02 	lds	r24, 0x0235	;  0x800235
    3734:	81 11       	cpse	r24, r1
    3736:	13 c0       	rjmp	.+38     	;  0x375e
    3738:	80 91 60 02 	lds	r24, 0x0260	;  0x800260
    373c:	90 91 61 02 	lds	r25, 0x0261	;  0x800261
    3740:	a0 91 62 02 	lds	r26, 0x0262	;  0x800262
    3744:	b0 91 63 02 	lds	r27, 0x0263	;  0x800263
    3748:	41 96       	adiw	r24, 0x11	; 17
    374a:	a1 1d       	adc	r26, r1
    374c:	b1 1d       	adc	r27, r1
    374e:	80 93 60 02 	sts	0x0260, r24	;  0x800260
    3752:	90 93 61 02 	sts	0x0261, r25	;  0x800261
    3756:	a0 93 62 02 	sts	0x0262, r26	;  0x800262
    375a:	b0 93 63 02 	sts	0x0263, r27	;  0x800263
    375e:	bf 91       	pop	r27
    3760:	af 91       	pop	r26
    3762:	9f 91       	pop	r25
    3764:	8f 91       	pop	r24
    3766:	1f 90       	pop	r1
    3768:	1f be       	out	0x3f, r1	; 63
    376a:	1f 90       	pop	r1
    376c:	18 95       	reti
    376e:	82 e0       	ldi	r24, 0x02	; 2
    3770:	84 bd       	out	0x24, r24	; 36
    3772:	93 e0       	ldi	r25, 0x03	; 3
    3774:	95 bd       	out	0x25, r25	; 37
    3776:	9a ef       	ldi	r25, 0xFA	; 250
    3778:	97 bd       	out	0x27, r25	; 39
    377a:	80 93 6e 00 	sts	0x006E, r24	;  0x80006e
    377e:	08 95       	ret
    3780:	2f b7       	in	r18, 0x3f	; 63
    3782:	f8 94       	cli
    3784:	80 91 60 02 	lds	r24, 0x0260	;  0x800260
    3788:	90 91 61 02 	lds	r25, 0x0261	;  0x800261
    378c:	a0 91 62 02 	lds	r26, 0x0262	;  0x800262
    3790:	b0 91 63 02 	lds	r27, 0x0263	;  0x800263
    3794:	2f bf       	out	0x3f, r18	; 63
    3796:	08 95       	ret
    3798:	2f b7       	in	r18, 0x3f	; 63
    379a:	f8 94       	cli
    379c:	60 91 60 02 	lds	r22, 0x0260	;  0x800260
    37a0:	70 91 61 02 	lds	r23, 0x0261	;  0x800261
    37a4:	80 91 62 02 	lds	r24, 0x0262	;  0x800262
    37a8:	90 91 63 02 	lds	r25, 0x0263	;  0x800263
    37ac:	2f bf       	out	0x3f, r18	; 63
    37ae:	08 95       	ret
    37b0:	9c 01       	movw	r18, r24
    37b2:	4f b7       	in	r20, 0x3f	; 63
    37b4:	f8 94       	cli
    37b6:	80 91 60 02 	lds	r24, 0x0260	;  0x800260
    37ba:	90 91 61 02 	lds	r25, 0x0261	;  0x800261
    37be:	a0 91 62 02 	lds	r26, 0x0262	;  0x800262
    37c2:	b0 91 63 02 	lds	r27, 0x0263	;  0x800263
    37c6:	4f bf       	out	0x3f, r20	; 63
    37c8:	82 1b       	sub	r24, r18
    37ca:	93 0b       	sbc	r25, r19
    37cc:	08 95       	ret
    37ce:	78 94       	sei
    37d0:	1f 92       	push	r1
    37d2:	1f b6       	in	r1, 0x3f	; 63
    37d4:	1f 92       	push	r1
    37d6:	11 24       	eor	r1, r1
    37d8:	8f 93       	push	r24
    37da:	9f 93       	push	r25
    37dc:	af 93       	push	r26
    37de:	bf 93       	push	r27
    37e0:	80 91 60 02 	lds	r24, 0x0260	;  0x800260
    37e4:	90 91 61 02 	lds	r25, 0x0261	;  0x800261
    37e8:	a0 91 62 02 	lds	r26, 0x0262	;  0x800262
    37ec:	b0 91 63 02 	lds	r27, 0x0263	;  0x800263
    37f0:	01 96       	adiw	r24, 0x01	; 1
    37f2:	a1 1d       	adc	r26, r1
    37f4:	b1 1d       	adc	r27, r1
    37f6:	80 93 60 02 	sts	0x0260, r24	;  0x800260
    37fa:	90 93 61 02 	sts	0x0261, r25	;  0x800261
    37fe:	a0 93 62 02 	sts	0x0262, r26	;  0x800262
    3802:	b0 93 63 02 	sts	0x0263, r27	;  0x800263
    3806:	bf 91       	pop	r27
    3808:	af 91       	pop	r26
    380a:	9f 91       	pop	r25
    380c:	8f 91       	pop	r24
    380e:	1f 90       	pop	r1
    3810:	1f be       	out	0x3f, r1	; 63
    3812:	1f 90       	pop	r1
    3814:	18 95       	reti
    3816:	87 e7       	ldi	r24, 0x77	; 119
    3818:	97 e7       	ldi	r25, 0x77	; 119
    381a:	90 93 01 08 	sts	0x0801, r25	;  0x800801
    381e:	80 93 00 08 	sts	0x0800, r24	;  0x800800
    3822:	88 e1       	ldi	r24, 0x18	; 24
    3824:	9a e0       	ldi	r25, 0x0A	; 10
    3826:	0f b6       	in	r0, 0x3f	; 63
    3828:	f8 94       	cli
    382a:	a8 95       	wdr
    382c:	80 93 60 00 	sts	0x0060, r24	;  0x800060
    3830:	0f be       	out	0x3f, r0	; 63
    3832:	90 93 60 00 	sts	0x0060, r25	;  0x800060
    3836:	ff cf       	rjmp	.-2      	;  0x3836
    3838:	0c 94 3f 1a 	jmp	0x347e	;  0x347e
    383c:	0e 94 fb 0b 	call	0x17f6	;  0x17f6
    3840:	8f e3       	ldi	r24, 0x3F	; 63
    3842:	9c e9       	ldi	r25, 0x9C	; 156
    3844:	01 97       	sbiw	r24, 0x01	; 1
    3846:	f1 f7       	brne	.-4      	;  0x3844
    3848:	00 c0       	rjmp	.+0      	;  0x384a
    384a:	00 00       	nop
    384c:	0e 94 fb 0b 	call	0x17f6	;  0x17f6
    3850:	80 e0       	ldi	r24, 0x00	; 0
    3852:	0e 94 57 0b 	call	0x16ae	;  0x16ae
    3856:	80 ff       	sbrs	r24, 0
    3858:	04 c0       	rjmp	.+8      	;  0x3862
    385a:	0e 94 1c 1c 	call	0x3838	;  0x3838
    385e:	0c 94 0b 1c 	jmp	0x3816	;  0x3816
    3862:	08 95       	ret
    3864:	0e 94 45 1a 	call	0x348a	;  0x348a
    3868:	81 11       	cpse	r24, r1
    386a:	02 c0       	rjmp	.+4      	;  0x3870
    386c:	0e 94 e2 1a 	call	0x35c4	;  0x35c4
    3870:	0e 94 50 1a 	call	0x34a0	;  0x34a0
    3874:	80 93 34 02 	sts	0x0234, r24	;  0x800234
    3878:	0e 94 58 1a 	call	0x34b0	;  0x34b0
    387c:	90 93 65 02 	sts	0x0265, r25	;  0x800265
    3880:	80 93 64 02 	sts	0x0264, r24	;  0x800264
    3884:	0e 94 54 1a 	call	0x34a8	;  0x34a8
    3888:	68 2f       	mov	r22, r24
    388a:	70 e0       	ldi	r23, 0x00	; 0
    388c:	90 e0       	ldi	r25, 0x00	; 0
    388e:	80 e0       	ldi	r24, 0x00	; 0
    3890:	0c 94 8d 17 	jmp	0x2f1a	;  0x2f1a
    3894:	80 91 3d 02 	lds	r24, 0x023D	;  0x80023d
    3898:	80 ff       	sbrs	r24, 0
    389a:	12 c0       	rjmp	.+36     	;  0x38c0
    389c:	60 91 07 01 	lds	r22, 0x0107	;  0x800107
    38a0:	85 e0       	ldi	r24, 0x05	; 5
    38a2:	68 9f       	mul	r22, r24
    38a4:	b0 01       	movw	r22, r0
    38a6:	11 24       	eor	r1, r1
    38a8:	75 95       	asr	r23
    38aa:	67 95       	ror	r22
    38ac:	75 95       	asr	r23
    38ae:	67 95       	ror	r22
    38b0:	60 38       	cpi	r22, 0x80	; 128
    38b2:	71 05       	cpc	r23, r1
    38b4:	a8 f5       	brcc	.+106    	;  0x3920
    38b6:	61 15       	cp	r22, r1
    38b8:	71 05       	cpc	r23, r1
    38ba:	a1 f1       	breq	.+104    	;  0x3924
    38bc:	86 2f       	mov	r24, r22
    38be:	08 95       	ret
    38c0:	81 ff       	sbrs	r24, 1
    38c2:	09 c0       	rjmp	.+18     	;  0x38d6
    38c4:	60 91 07 01 	lds	r22, 0x0107	;  0x800107
    38c8:	85 e0       	ldi	r24, 0x05	; 5
    38ca:	68 9f       	mul	r22, r24
    38cc:	b0 01       	movw	r22, r0
    38ce:	11 24       	eor	r1, r1
    38d0:	75 95       	asr	r23
    38d2:	67 95       	ror	r22
    38d4:	ed cf       	rjmp	.-38     	;  0x38b0
    38d6:	60 91 07 01 	lds	r22, 0x0107	;  0x800107
    38da:	82 fd       	sbrc	r24, 2
    38dc:	0a c0       	rjmp	.+20     	;  0x38f2
    38de:	80 91 3c 02 	lds	r24, 0x023C	;  0x80023c
    38e2:	88 23       	and	r24, r24
    38e4:	d1 f0       	breq	.+52     	;  0x391a
    38e6:	90 91 06 01 	lds	r25, 0x0106	;  0x800106
    38ea:	60 91 07 01 	lds	r22, 0x0107	;  0x800107
    38ee:	89 17       	cp	r24, r25
    38f0:	28 f0       	brcs	.+10     	;  0x38fc
    38f2:	85 e0       	ldi	r24, 0x05	; 5
    38f4:	68 9f       	mul	r22, r24
    38f6:	b0 01       	movw	r22, r0
    38f8:	11 24       	eor	r1, r1
    38fa:	da cf       	rjmp	.-76     	;  0x38b0
    38fc:	86 9f       	mul	r24, r22
    38fe:	b0 01       	movw	r22, r0
    3900:	11 24       	eor	r1, r1
    3902:	85 e0       	ldi	r24, 0x05	; 5
    3904:	86 9f       	mul	r24, r22
    3906:	90 01       	movw	r18, r0
    3908:	87 9f       	mul	r24, r23
    390a:	30 0d       	add	r19, r0
    390c:	11 24       	eor	r1, r1
    390e:	69 2f       	mov	r22, r25
    3910:	70 e0       	ldi	r23, 0x00	; 0
    3912:	c9 01       	movw	r24, r18
    3914:	0e 94 1a 2c 	call	0x5834	;  0x5834
    3918:	cb cf       	rjmp	.-106    	;  0x38b0
    391a:	65 e0       	ldi	r22, 0x05	; 5
    391c:	70 e0       	ldi	r23, 0x00	; 0
    391e:	ce cf       	rjmp	.-100    	;  0x38bc
    3920:	8f e7       	ldi	r24, 0x7F	; 127
    3922:	08 95       	ret
    3924:	81 e0       	ldi	r24, 0x01	; 1
    3926:	08 95       	ret
    3928:	80 91 3d 02 	lds	r24, 0x023D	;  0x80023d
    392c:	80 ff       	sbrs	r24, 0
    392e:	0c c0       	rjmp	.+24     	;  0x3948
    3930:	60 91 03 01 	lds	r22, 0x0103	;  0x800103
    3934:	70 e0       	ldi	r23, 0x00	; 0
    3936:	75 95       	asr	r23
    3938:	67 95       	ror	r22
    393a:	75 95       	asr	r23
    393c:	67 95       	ror	r22
    393e:	61 15       	cp	r22, r1
    3940:	71 05       	cpc	r23, r1
    3942:	49 f1       	breq	.+82     	;  0x3996
    3944:	86 2f       	mov	r24, r22
    3946:	08 95       	ret
    3948:	81 ff       	sbrs	r24, 1
    394a:	06 c0       	rjmp	.+12     	;  0x3958
    394c:	60 91 03 01 	lds	r22, 0x0103	;  0x800103
    3950:	70 e0       	ldi	r23, 0x00	; 0
    3952:	75 95       	asr	r23
    3954:	67 95       	ror	r22
    3956:	f3 cf       	rjmp	.-26     	;  0x393e
    3958:	60 91 03 01 	lds	r22, 0x0103	;  0x800103
    395c:	82 fd       	sbrc	r24, 2
    395e:	0b c0       	rjmp	.+22     	;  0x3976
    3960:	90 91 3c 02 	lds	r25, 0x023C	;  0x80023c
    3964:	99 23       	and	r25, r25
    3966:	a1 f0       	breq	.+40     	;  0x3990
    3968:	60 91 02 01 	lds	r22, 0x0102	;  0x800102
    396c:	80 91 03 01 	lds	r24, 0x0103	;  0x800103
    3970:	96 17       	cp	r25, r22
    3972:	38 f0       	brcs	.+14     	;  0x3982
    3974:	68 2f       	mov	r22, r24
    3976:	70 e0       	ldi	r23, 0x00	; 0
    3978:	60 38       	cpi	r22, 0x80	; 128
    397a:	71 05       	cpc	r23, r1
    397c:	00 f3       	brcs	.-64     	;  0x393e
    397e:	8f e7       	ldi	r24, 0x7F	; 127
    3980:	08 95       	ret
    3982:	89 9f       	mul	r24, r25
    3984:	c0 01       	movw	r24, r0
    3986:	11 24       	eor	r1, r1
    3988:	70 e0       	ldi	r23, 0x00	; 0
    398a:	0e 94 1a 2c 	call	0x5834	;  0x5834
    398e:	f4 cf       	rjmp	.-24     	;  0x3978
    3990:	61 e0       	ldi	r22, 0x01	; 1
    3992:	70 e0       	ldi	r23, 0x00	; 0
    3994:	d7 cf       	rjmp	.-82     	;  0x3944
    3996:	81 e0       	ldi	r24, 0x01	; 1
    3998:	08 95       	ret
    399a:	80 3f       	cpi	r24, 0xF0	; 240
    399c:	31 f4       	brne	.+12     	;  0x39aa
    399e:	0e 94 4a 1c 	call	0x3894	;  0x3894
    39a2:	81 95       	neg	r24
    39a4:	80 93 41 02 	sts	0x0241, r24	;  0x800241
    39a8:	08 95       	ret
    39aa:	81 3f       	cpi	r24, 0xF1	; 241
    39ac:	19 f4       	brne	.+6      	;  0x39b4
    39ae:	0e 94 4a 1c 	call	0x3894	;  0x3894
    39b2:	f8 cf       	rjmp	.-16     	;  0x39a4
    39b4:	82 3f       	cpi	r24, 0xF2	; 242
    39b6:	31 f4       	brne	.+12     	;  0x39c4
    39b8:	0e 94 4a 1c 	call	0x3894	;  0x3894
    39bc:	81 95       	neg	r24
    39be:	80 93 40 02 	sts	0x0240, r24	;  0x800240
    39c2:	08 95       	ret
    39c4:	83 3f       	cpi	r24, 0xF3	; 243
    39c6:	19 f4       	brne	.+6      	;  0x39ce
    39c8:	0e 94 4a 1c 	call	0x3894	;  0x3894
    39cc:	f8 cf       	rjmp	.-16     	;  0x39be
    39ce:	89 3f       	cpi	r24, 0xF9	; 249
    39d0:	29 f4       	brne	.+10     	;  0x39dc
    39d2:	0e 94 94 1c 	call	0x3928	;  0x3928
    39d6:	80 93 42 02 	sts	0x0242, r24	;  0x800242
    39da:	08 95       	ret
    39dc:	8a 3f       	cpi	r24, 0xFA	; 250
    39de:	21 f4       	brne	.+8      	;  0x39e8
    39e0:	0e 94 94 1c 	call	0x3928	;  0x3928
    39e4:	81 95       	neg	r24
    39e6:	f7 cf       	rjmp	.-18     	;  0x39d6
    39e8:	8b 3f       	cpi	r24, 0xFB	; 251
    39ea:	31 f4       	brne	.+12     	;  0x39f8
    39ec:	0e 94 94 1c 	call	0x3928	;  0x3928
    39f0:	81 95       	neg	r24
    39f2:	80 93 43 02 	sts	0x0243, r24	;  0x800243
    39f6:	08 95       	ret
    39f8:	8c 3f       	cpi	r24, 0xFC	; 252
    39fa:	19 f4       	brne	.+6      	;  0x3a02
    39fc:	0e 94 94 1c 	call	0x3928	;  0x3928
    3a00:	f8 cf       	rjmp	.-16     	;  0x39f2
    3a02:	84 3f       	cpi	r24, 0xF4	; 244
    3a04:	31 f4       	brne	.+12     	;  0x3a12
    3a06:	80 91 3f 02 	lds	r24, 0x023F	;  0x80023f
    3a0a:	81 60       	ori	r24, 0x01	; 1
    3a0c:	80 93 3f 02 	sts	0x023F, r24	;  0x80023f
    3a10:	08 95       	ret
    3a12:	85 3f       	cpi	r24, 0xF5	; 245
    3a14:	21 f4       	brne	.+8      	;  0x3a1e
    3a16:	80 91 3f 02 	lds	r24, 0x023F	;  0x80023f
    3a1a:	82 60       	ori	r24, 0x02	; 2
    3a1c:	f7 cf       	rjmp	.-18     	;  0x3a0c
    3a1e:	86 3f       	cpi	r24, 0xF6	; 246
    3a20:	21 f4       	brne	.+8      	;  0x3a2a
    3a22:	80 91 3f 02 	lds	r24, 0x023F	;  0x80023f
    3a26:	84 60       	ori	r24, 0x04	; 4
    3a28:	f1 cf       	rjmp	.-30     	;  0x3a0c
    3a2a:	87 3f       	cpi	r24, 0xF7	; 247
    3a2c:	21 f4       	brne	.+8      	;  0x3a36
    3a2e:	80 91 3f 02 	lds	r24, 0x023F	;  0x80023f
    3a32:	88 60       	ori	r24, 0x08	; 8
    3a34:	eb cf       	rjmp	.-42     	;  0x3a0c
    3a36:	88 3f       	cpi	r24, 0xF8	; 248
    3a38:	21 f4       	brne	.+8      	;  0x3a42
    3a3a:	80 91 3f 02 	lds	r24, 0x023F	;  0x80023f
    3a3e:	80 61       	ori	r24, 0x10	; 16
    3a40:	e5 cf       	rjmp	.-54     	;  0x3a0c
    3a42:	8d 3f       	cpi	r24, 0xFD	; 253
    3a44:	31 f4       	brne	.+12     	;  0x3a52
    3a46:	80 91 3d 02 	lds	r24, 0x023D	;  0x80023d
    3a4a:	81 60       	ori	r24, 0x01	; 1
    3a4c:	80 93 3d 02 	sts	0x023D, r24	;  0x80023d
    3a50:	08 95       	ret
    3a52:	8e 3f       	cpi	r24, 0xFE	; 254
    3a54:	21 f4       	brne	.+8      	;  0x3a5e
    3a56:	80 91 3d 02 	lds	r24, 0x023D	;  0x80023d
    3a5a:	82 60       	ori	r24, 0x02	; 2
    3a5c:	f7 cf       	rjmp	.-18     	;  0x3a4c
    3a5e:	8f 3f       	cpi	r24, 0xFF	; 255
    3a60:	b9 f7       	brne	.-18     	;  0x3a50
    3a62:	80 91 3d 02 	lds	r24, 0x023D	;  0x80023d
    3a66:	84 60       	ori	r24, 0x04	; 4
    3a68:	f1 cf       	rjmp	.-30     	;  0x3a4c
    3a6a:	90 91 40 02 	lds	r25, 0x0240	;  0x800240
    3a6e:	80 3f       	cpi	r24, 0xF0	; 240
    3a70:	41 f4       	brne	.+16     	;  0x3a82
    3a72:	80 91 41 02 	lds	r24, 0x0241	;  0x800241
    3a76:	87 fd       	sbrc	r24, 7
    3a78:	10 92 41 02 	sts	0x0241, r1	;  0x800241
    3a7c:	99 23       	and	r25, r25
    3a7e:	71 f0       	breq	.+28     	;  0x3a9c
    3a80:	08 95       	ret
    3a82:	81 3f       	cpi	r24, 0xF1	; 241
    3a84:	29 f4       	brne	.+10     	;  0x3a90
    3a86:	80 91 41 02 	lds	r24, 0x0241	;  0x800241
    3a8a:	18 16       	cp	r1, r24
    3a8c:	ac f3       	brlt	.-22     	;  0x3a78
    3a8e:	f6 cf       	rjmp	.-20     	;  0x3a7c
    3a90:	82 3f       	cpi	r24, 0xF2	; 242
    3a92:	81 f4       	brne	.+32     	;  0x3ab4
    3a94:	97 ff       	sbrs	r25, 7
    3a96:	f2 cf       	rjmp	.-28     	;  0x3a7c
    3a98:	10 92 40 02 	sts	0x0240, r1	;  0x800240
    3a9c:	80 91 41 02 	lds	r24, 0x0241	;  0x800241
    3aa0:	90 91 42 02 	lds	r25, 0x0242	;  0x800242
    3aa4:	89 2b       	or	r24, r25
    3aa6:	90 91 43 02 	lds	r25, 0x0243	;  0x800243
    3aaa:	89 2b       	or	r24, r25
    3aac:	49 f7       	brne	.-46     	;  0x3a80
    3aae:	10 92 3c 02 	sts	0x023C, r1	;  0x80023c
    3ab2:	08 95       	ret
    3ab4:	83 3f       	cpi	r24, 0xF3	; 243
    3ab6:	19 f4       	brne	.+6      	;  0x3abe
    3ab8:	19 16       	cp	r1, r25
    3aba:	74 f3       	brlt	.-36     	;  0x3a98
    3abc:	df cf       	rjmp	.-66     	;  0x3a7c
    3abe:	89 3f       	cpi	r24, 0xF9	; 249
    3ac0:	39 f4       	brne	.+14     	;  0x3ad0
    3ac2:	80 91 42 02 	lds	r24, 0x0242	;  0x800242
    3ac6:	18 16       	cp	r1, r24
    3ac8:	cc f6       	brge	.-78     	;  0x3a7c
    3aca:	10 92 42 02 	sts	0x0242, r1	;  0x800242
    3ace:	d6 cf       	rjmp	.-84     	;  0x3a7c
    3ad0:	8a 3f       	cpi	r24, 0xFA	; 250
    3ad2:	29 f4       	brne	.+10     	;  0x3ade
    3ad4:	80 91 42 02 	lds	r24, 0x0242	;  0x800242
    3ad8:	87 ff       	sbrs	r24, 7
    3ada:	d0 cf       	rjmp	.-96     	;  0x3a7c
    3adc:	f6 cf       	rjmp	.-20     	;  0x3aca
    3ade:	8b 3f       	cpi	r24, 0xFB	; 251
    3ae0:	39 f4       	brne	.+14     	;  0x3af0
    3ae2:	80 91 43 02 	lds	r24, 0x0243	;  0x800243
    3ae6:	87 ff       	sbrs	r24, 7
    3ae8:	c9 cf       	rjmp	.-110    	;  0x3a7c
    3aea:	10 92 43 02 	sts	0x0243, r1	;  0x800243
    3aee:	c6 cf       	rjmp	.-116    	;  0x3a7c
    3af0:	8c 3f       	cpi	r24, 0xFC	; 252
    3af2:	29 f4       	brne	.+10     	;  0x3afe
    3af4:	80 91 43 02 	lds	r24, 0x0243	;  0x800243
    3af8:	18 16       	cp	r1, r24
    3afa:	bc f3       	brlt	.-18     	;  0x3aea
    3afc:	bf cf       	rjmp	.-130    	;  0x3a7c
    3afe:	84 3f       	cpi	r24, 0xF4	; 244
    3b00:	31 f4       	brne	.+12     	;  0x3b0e
    3b02:	80 91 3f 02 	lds	r24, 0x023F	;  0x80023f
    3b06:	8e 7f       	andi	r24, 0xFE	; 254
    3b08:	80 93 3f 02 	sts	0x023F, r24	;  0x80023f
    3b0c:	b7 cf       	rjmp	.-146    	;  0x3a7c
    3b0e:	85 3f       	cpi	r24, 0xF5	; 245
    3b10:	21 f4       	brne	.+8      	;  0x3b1a
    3b12:	80 91 3f 02 	lds	r24, 0x023F	;  0x80023f
    3b16:	8d 7f       	andi	r24, 0xFD	; 253
    3b18:	f7 cf       	rjmp	.-18     	;  0x3b08
    3b1a:	86 3f       	cpi	r24, 0xF6	; 246
    3b1c:	21 f4       	brne	.+8      	;  0x3b26
    3b1e:	80 91 3f 02 	lds	r24, 0x023F	;  0x80023f
    3b22:	8b 7f       	andi	r24, 0xFB	; 251
    3b24:	f1 cf       	rjmp	.-30     	;  0x3b08
    3b26:	87 3f       	cpi	r24, 0xF7	; 247
    3b28:	21 f4       	brne	.+8      	;  0x3b32
    3b2a:	80 91 3f 02 	lds	r24, 0x023F	;  0x80023f
    3b2e:	87 7f       	andi	r24, 0xF7	; 247
    3b30:	eb cf       	rjmp	.-42     	;  0x3b08
    3b32:	88 3f       	cpi	r24, 0xF8	; 248
    3b34:	21 f4       	brne	.+8      	;  0x3b3e
    3b36:	80 91 3f 02 	lds	r24, 0x023F	;  0x80023f
    3b3a:	8f 7e       	andi	r24, 0xEF	; 239
    3b3c:	e5 cf       	rjmp	.-54     	;  0x3b08
    3b3e:	8d 3f       	cpi	r24, 0xFD	; 253
    3b40:	31 f4       	brne	.+12     	;  0x3b4e
    3b42:	80 91 3d 02 	lds	r24, 0x023D	;  0x80023d
    3b46:	8e 7f       	andi	r24, 0xFE	; 254
    3b48:	80 93 3d 02 	sts	0x023D, r24	;  0x80023d
    3b4c:	97 cf       	rjmp	.-210    	;  0x3a7c
    3b4e:	8e 3f       	cpi	r24, 0xFE	; 254
    3b50:	21 f4       	brne	.+8      	;  0x3b5a
    3b52:	80 91 3d 02 	lds	r24, 0x023D	;  0x80023d
    3b56:	8d 7f       	andi	r24, 0xFD	; 253
    3b58:	f7 cf       	rjmp	.-18     	;  0x3b48
    3b5a:	8f 3f       	cpi	r24, 0xFF	; 255
    3b5c:	09 f0       	breq	.+2      	;  0x3b60
    3b5e:	8e cf       	rjmp	.-228    	;  0x3a7c
    3b60:	80 91 3d 02 	lds	r24, 0x023D	;  0x80023d
    3b64:	8b 7f       	andi	r24, 0xFB	; 251
    3b66:	f0 cf       	rjmp	.-32     	;  0x3b48
    3b68:	80 91 34 02 	lds	r24, 0x0234	;  0x800234
    3b6c:	83 ff       	sbrs	r24, 3
    3b6e:	7e c0       	rjmp	.+252    	;  0x3c6c
    3b70:	82 e7       	ldi	r24, 0x72	; 114
    3b72:	92 e0       	ldi	r25, 0x02	; 2
    3b74:	0e 94 9a 06 	call	0xd34	;  0xd34
    3b78:	80 91 3f 02 	lds	r24, 0x023F	;  0x80023f
    3b7c:	1f 92       	push	r1
    3b7e:	8f 93       	push	r24
    3b80:	8d e6       	ldi	r24, 0x6D	; 109
    3b82:	92 e0       	ldi	r25, 0x02	; 2
    3b84:	9f 93       	push	r25
    3b86:	8f 93       	push	r24
    3b88:	0e 94 33 07 	call	0xe66	;  0xe66
    3b8c:	8b e6       	ldi	r24, 0x6B	; 107
    3b8e:	92 e0       	ldi	r25, 0x02	; 2
    3b90:	0e 94 9a 06 	call	0xd34	;  0xd34
    3b94:	80 91 40 02 	lds	r24, 0x0240	;  0x800240
    3b98:	28 2f       	mov	r18, r24
    3b9a:	08 2e       	mov	r0, r24
    3b9c:	00 0c       	add	r0, r0
    3b9e:	33 0b       	sbc	r19, r19
    3ba0:	3f 93       	push	r19
    3ba2:	8f 93       	push	r24
    3ba4:	88 e6       	ldi	r24, 0x68	; 104
    3ba6:	92 e0       	ldi	r25, 0x02	; 2
    3ba8:	9f 93       	push	r25
    3baa:	8f 93       	push	r24
    3bac:	0e 94 33 07 	call	0xe66	;  0xe66
    3bb0:	86 e6       	ldi	r24, 0x66	; 102
    3bb2:	92 e0       	ldi	r25, 0x02	; 2
    3bb4:	0e 94 9a 06 	call	0xd34	;  0xd34
    3bb8:	80 91 41 02 	lds	r24, 0x0241	;  0x800241
    3bbc:	28 2f       	mov	r18, r24
    3bbe:	08 2e       	mov	r0, r24
    3bc0:	00 0c       	add	r0, r0
    3bc2:	33 0b       	sbc	r19, r19
    3bc4:	3f 93       	push	r19
    3bc6:	8f 93       	push	r24
    3bc8:	83 e6       	ldi	r24, 0x63	; 99
    3bca:	92 e0       	ldi	r25, 0x02	; 2
    3bcc:	9f 93       	push	r25
    3bce:	8f 93       	push	r24
    3bd0:	0e 94 33 07 	call	0xe66	;  0xe66
    3bd4:	81 e6       	ldi	r24, 0x61	; 97
    3bd6:	92 e0       	ldi	r25, 0x02	; 2
    3bd8:	0e 94 9a 06 	call	0xd34	;  0xd34
    3bdc:	80 91 42 02 	lds	r24, 0x0242	;  0x800242
    3be0:	28 2f       	mov	r18, r24
    3be2:	08 2e       	mov	r0, r24
    3be4:	00 0c       	add	r0, r0
    3be6:	33 0b       	sbc	r19, r19
    3be8:	3f 93       	push	r19
    3bea:	8f 93       	push	r24
    3bec:	8e e5       	ldi	r24, 0x5E	; 94
    3bee:	92 e0       	ldi	r25, 0x02	; 2
    3bf0:	9f 93       	push	r25
    3bf2:	8f 93       	push	r24
    3bf4:	0e 94 33 07 	call	0xe66	;  0xe66
    3bf8:	8c e5       	ldi	r24, 0x5C	; 92
    3bfa:	92 e0       	ldi	r25, 0x02	; 2
    3bfc:	0e 94 9a 06 	call	0xd34	;  0xd34
    3c00:	80 91 43 02 	lds	r24, 0x0243	;  0x800243
    3c04:	28 2f       	mov	r18, r24
    3c06:	08 2e       	mov	r0, r24
    3c08:	00 0c       	add	r0, r0
    3c0a:	33 0b       	sbc	r19, r19
    3c0c:	3f 93       	push	r19
    3c0e:	8f 93       	push	r24
    3c10:	89 e5       	ldi	r24, 0x59	; 89
    3c12:	92 e0       	ldi	r25, 0x02	; 2
    3c14:	9f 93       	push	r25
    3c16:	8f 93       	push	r24
    3c18:	0e 94 33 07 	call	0xe66	;  0xe66
    3c1c:	86 e5       	ldi	r24, 0x56	; 86
    3c1e:	92 e0       	ldi	r25, 0x02	; 2
    3c20:	0e 94 9a 06 	call	0xd34	;  0xd34
    3c24:	80 91 3c 02 	lds	r24, 0x023C	;  0x80023c
    3c28:	1f 92       	push	r1
    3c2a:	8f 93       	push	r24
    3c2c:	83 e5       	ldi	r24, 0x53	; 83
    3c2e:	92 e0       	ldi	r25, 0x02	; 2
    3c30:	9f 93       	push	r25
    3c32:	8f 93       	push	r24
    3c34:	0e 94 33 07 	call	0xe66	;  0xe66
    3c38:	81 e5       	ldi	r24, 0x51	; 81
    3c3a:	92 e0       	ldi	r25, 0x02	; 2
    3c3c:	0e 94 9a 06 	call	0xd34	;  0xd34
    3c40:	80 91 3d 02 	lds	r24, 0x023D	;  0x80023d
    3c44:	1f 92       	push	r1
    3c46:	8f 93       	push	r24
    3c48:	8e e4       	ldi	r24, 0x4E	; 78
    3c4a:	92 e0       	ldi	r25, 0x02	; 2
    3c4c:	9f 93       	push	r25
    3c4e:	8f 93       	push	r24
    3c50:	0e 94 33 07 	call	0xe66	;  0xe66
    3c54:	8b e4       	ldi	r24, 0x4B	; 75
    3c56:	92 e0       	ldi	r25, 0x02	; 2
    3c58:	0e 94 9a 06 	call	0xd34	;  0xd34
    3c5c:	8d b7       	in	r24, 0x3d	; 61
    3c5e:	9e b7       	in	r25, 0x3e	; 62
    3c60:	4c 96       	adiw	r24, 0x1c	; 28
    3c62:	0f b6       	in	r0, 0x3f	; 63
    3c64:	f8 94       	cli
    3c66:	9e bf       	out	0x3e, r25	; 62
    3c68:	0f be       	out	0x3f, r0	; 63
    3c6a:	8d bf       	out	0x3d, r24	; 61
    3c6c:	8e e3       	ldi	r24, 0x3E	; 62
    3c6e:	92 e0       	ldi	r25, 0x02	; 2
    3c70:	0e 94 0a 0f 	call	0x1e14	;  0x1e14
    3c74:	0e 94 c0 1b 	call	0x3780	;  0x3780
    3c78:	90 93 3b 02 	sts	0x023B, r25	;  0x80023b
    3c7c:	80 93 3a 02 	sts	0x023A, r24	;  0x80023a
    3c80:	08 95       	ret
    3c82:	cf 93       	push	r28
    3c84:	df 93       	push	r29
    3c86:	00 d0       	rcall	.+0      	;  0x3c88
    3c88:	00 d0       	rcall	.+0      	;  0x3c8a
    3c8a:	00 d0       	rcall	.+0      	;  0x3c8c
    3c8c:	cd b7       	in	r28, 0x3d	; 61
    3c8e:	de b7       	in	r29, 0x3e	; 62
    3c90:	86 e0       	ldi	r24, 0x06	; 6
    3c92:	ee e3       	ldi	r30, 0x3E	; 62
    3c94:	f2 e0       	ldi	r31, 0x02	; 2
    3c96:	de 01       	movw	r26, r28
    3c98:	11 96       	adiw	r26, 0x01	; 1
    3c9a:	01 90       	ld	r0, Z+
    3c9c:	0d 92       	st	X+, r0
    3c9e:	8a 95       	dec	r24
    3ca0:	e1 f7       	brne	.-8      	;  0x3c9a
    3ca2:	80 91 40 02 	lds	r24, 0x0240	;  0x800240
    3ca6:	90 91 41 02 	lds	r25, 0x0241	;  0x800241
    3caa:	89 2b       	or	r24, r25
    3cac:	81 f0       	breq	.+32     	;  0x3cce
    3cae:	80 91 38 02 	lds	r24, 0x0238	;  0x800238
    3cb2:	90 91 39 02 	lds	r25, 0x0239	;  0x800239
    3cb6:	0e 94 d8 1b 	call	0x37b0	;  0x37b0
    3cba:	ac 01       	movw	r20, r24
    3cbc:	90 91 3c 02 	lds	r25, 0x023C	;  0x80023c
    3cc0:	99 23       	and	r25, r25
    3cc2:	31 f1       	breq	.+76     	;  0x3d10
    3cc4:	80 91 08 01 	lds	r24, 0x0108	;  0x800108
    3cc8:	84 17       	cp	r24, r20
    3cca:	15 06       	cpc	r1, r21
    3ccc:	70 f1       	brcs	.+92     	;  0x3d2a
    3cce:	80 91 42 02 	lds	r24, 0x0242	;  0x800242
    3cd2:	90 91 43 02 	lds	r25, 0x0243	;  0x800243
    3cd6:	89 2b       	or	r24, r25
    3cd8:	91 f0       	breq	.+36     	;  0x3cfe
    3cda:	80 91 36 02 	lds	r24, 0x0236	;  0x800236
    3cde:	90 91 37 02 	lds	r25, 0x0237	;  0x800237
    3ce2:	0e 94 d8 1b 	call	0x37b0	;  0x37b0
    3ce6:	ac 01       	movw	r20, r24
    3ce8:	90 91 3c 02 	lds	r25, 0x023C	;  0x80023c
    3cec:	99 23       	and	r25, r25
    3cee:	09 f4       	brne	.+2      	;  0x3cf2
    3cf0:	78 c0       	rjmp	.+240    	;  0x3de2
    3cf2:	80 91 04 01 	lds	r24, 0x0104	;  0x800104
    3cf6:	84 17       	cp	r24, r20
    3cf8:	15 06       	cpc	r1, r21
    3cfa:	08 f4       	brcc	.+2      	;  0x3cfe
    3cfc:	80 c0       	rjmp	.+256    	;  0x3dfe
    3cfe:	26 96       	adiw	r28, 0x06	; 6
    3d00:	0f b6       	in	r0, 0x3f	; 63
    3d02:	f8 94       	cli
    3d04:	de bf       	out	0x3e, r29	; 62
    3d06:	0f be       	out	0x3f, r0	; 63
    3d08:	cd bf       	out	0x3d, r28	; 61
    3d0a:	df 91       	pop	r29
    3d0c:	cf 91       	pop	r28
    3d0e:	08 95       	ret
    3d10:	20 91 09 01 	lds	r18, 0x0109	;  0x800109
    3d14:	8a e0       	ldi	r24, 0x0A	; 10
    3d16:	28 9f       	mul	r18, r24
    3d18:	90 01       	movw	r18, r0
    3d1a:	11 24       	eor	r1, r1
    3d1c:	24 17       	cp	r18, r20
    3d1e:	35 07       	cpc	r19, r21
    3d20:	b0 f6       	brcc	.-84     	;  0x3cce
    3d22:	9f 5f       	subi	r25, 0xFF	; 255
    3d24:	90 93 3c 02 	sts	0x023C, r25	;  0x80023c
    3d28:	02 c0       	rjmp	.+4      	;  0x3d2e
    3d2a:	9f 3f       	cpi	r25, 0xFF	; 255
    3d2c:	d1 f7       	brne	.-12     	;  0x3d22
    3d2e:	10 92 42 02 	sts	0x0242, r1	;  0x800242
    3d32:	10 92 43 02 	sts	0x0243, r1	;  0x800243
    3d36:	80 91 40 02 	lds	r24, 0x0240	;  0x800240
    3d3a:	18 16       	cp	r1, r24
    3d3c:	24 f4       	brge	.+8      	;  0x3d46
    3d3e:	0e 94 4a 1c 	call	0x3894	;  0x3894
    3d42:	80 93 40 02 	sts	0x0240, r24	;  0x800240
    3d46:	80 91 40 02 	lds	r24, 0x0240	;  0x800240
    3d4a:	87 ff       	sbrs	r24, 7
    3d4c:	05 c0       	rjmp	.+10     	;  0x3d58
    3d4e:	0e 94 4a 1c 	call	0x3894	;  0x3894
    3d52:	81 95       	neg	r24
    3d54:	80 93 40 02 	sts	0x0240, r24	;  0x800240
    3d58:	80 91 41 02 	lds	r24, 0x0241	;  0x800241
    3d5c:	18 16       	cp	r1, r24
    3d5e:	24 f4       	brge	.+8      	;  0x3d68
    3d60:	0e 94 4a 1c 	call	0x3894	;  0x3894
    3d64:	80 93 41 02 	sts	0x0241, r24	;  0x800241
    3d68:	80 91 41 02 	lds	r24, 0x0241	;  0x800241
    3d6c:	87 ff       	sbrs	r24, 7
    3d6e:	05 c0       	rjmp	.+10     	;  0x3d7a
    3d70:	0e 94 4a 1c 	call	0x3894	;  0x3894
    3d74:	81 95       	neg	r24
    3d76:	80 93 41 02 	sts	0x0241, r24	;  0x800241
    3d7a:	30 91 40 02 	lds	r19, 0x0240	;  0x800240
    3d7e:	33 23       	and	r19, r19
    3d80:	a1 f0       	breq	.+40     	;  0x3daa
    3d82:	20 91 41 02 	lds	r18, 0x0241	;  0x800241
    3d86:	22 23       	and	r18, r18
    3d88:	81 f0       	breq	.+32     	;  0x3daa
    3d8a:	45 eb       	ldi	r20, 0xB5	; 181
    3d8c:	34 03       	mulsu	r19, r20
    3d8e:	c0 01       	movw	r24, r0
    3d90:	11 24       	eor	r1, r1
    3d92:	99 23       	and	r25, r25
    3d94:	f1 f0       	breq	.+60     	;  0x3dd2
    3d96:	90 93 40 02 	sts	0x0240, r25	;  0x800240
    3d9a:	45 eb       	ldi	r20, 0xB5	; 181
    3d9c:	24 03       	mulsu	r18, r20
    3d9e:	90 01       	movw	r18, r0
    3da0:	11 24       	eor	r1, r1
    3da2:	33 23       	and	r19, r19
    3da4:	d1 f0       	breq	.+52     	;  0x3dda
    3da6:	30 93 41 02 	sts	0x0241, r19	;  0x800241
    3daa:	0e 94 b4 1d 	call	0x3b68	;  0x3b68
    3dae:	80 91 3a 02 	lds	r24, 0x023A	;  0x80023a
    3db2:	90 91 3b 02 	lds	r25, 0x023B	;  0x80023b
    3db6:	90 93 39 02 	sts	0x0239, r25	;  0x800239
    3dba:	80 93 38 02 	sts	0x0238, r24	;  0x800238
    3dbe:	86 e0       	ldi	r24, 0x06	; 6
    3dc0:	fe 01       	movw	r30, r28
    3dc2:	31 96       	adiw	r30, 0x01	; 1
    3dc4:	ae e3       	ldi	r26, 0x3E	; 62
    3dc6:	b2 e0       	ldi	r27, 0x02	; 2
    3dc8:	01 90       	ld	r0, Z+
    3dca:	0d 92       	st	X+, r0
    3dcc:	8a 95       	dec	r24
    3dce:	e1 f7       	brne	.-8      	;  0x3dc8
    3dd0:	7e cf       	rjmp	.-260    	;  0x3cce
    3dd2:	81 e0       	ldi	r24, 0x01	; 1
    3dd4:	80 93 40 02 	sts	0x0240, r24	;  0x800240
    3dd8:	e0 cf       	rjmp	.-64     	;  0x3d9a
    3dda:	81 e0       	ldi	r24, 0x01	; 1
    3ddc:	80 93 41 02 	sts	0x0241, r24	;  0x800241
    3de0:	e4 cf       	rjmp	.-56     	;  0x3daa
    3de2:	20 91 05 01 	lds	r18, 0x0105	;  0x800105
    3de6:	8a e0       	ldi	r24, 0x0A	; 10
    3de8:	28 9f       	mul	r18, r24
    3dea:	90 01       	movw	r18, r0
    3dec:	11 24       	eor	r1, r1
    3dee:	24 17       	cp	r18, r20
    3df0:	35 07       	cpc	r19, r21
    3df2:	08 f0       	brcs	.+2      	;  0x3df6
    3df4:	84 cf       	rjmp	.-248    	;  0x3cfe
    3df6:	9f 5f       	subi	r25, 0xFF	; 255
    3df8:	90 93 3c 02 	sts	0x023C, r25	;  0x80023c
    3dfc:	02 c0       	rjmp	.+4      	;  0x3e02
    3dfe:	9f 3f       	cpi	r25, 0xFF	; 255
    3e00:	d1 f7       	brne	.-12     	;  0x3df6
    3e02:	10 92 40 02 	sts	0x0240, r1	;  0x800240
    3e06:	10 92 41 02 	sts	0x0241, r1	;  0x800241
    3e0a:	80 91 42 02 	lds	r24, 0x0242	;  0x800242
    3e0e:	18 16       	cp	r1, r24
    3e10:	24 f4       	brge	.+8      	;  0x3e1a
    3e12:	0e 94 94 1c 	call	0x3928	;  0x3928
    3e16:	80 93 42 02 	sts	0x0242, r24	;  0x800242
    3e1a:	80 91 42 02 	lds	r24, 0x0242	;  0x800242
    3e1e:	87 ff       	sbrs	r24, 7
    3e20:	05 c0       	rjmp	.+10     	;  0x3e2c
    3e22:	0e 94 94 1c 	call	0x3928	;  0x3928
    3e26:	81 95       	neg	r24
    3e28:	80 93 42 02 	sts	0x0242, r24	;  0x800242
    3e2c:	80 91 43 02 	lds	r24, 0x0243	;  0x800243
    3e30:	18 16       	cp	r1, r24
    3e32:	24 f4       	brge	.+8      	;  0x3e3c
    3e34:	0e 94 94 1c 	call	0x3928	;  0x3928
    3e38:	80 93 43 02 	sts	0x0243, r24	;  0x800243
    3e3c:	80 91 43 02 	lds	r24, 0x0243	;  0x800243
    3e40:	87 ff       	sbrs	r24, 7
    3e42:	05 c0       	rjmp	.+10     	;  0x3e4e
    3e44:	0e 94 94 1c 	call	0x3928	;  0x3928
    3e48:	81 95       	neg	r24
    3e4a:	80 93 43 02 	sts	0x0243, r24	;  0x800243
    3e4e:	30 91 42 02 	lds	r19, 0x0242	;  0x800242
    3e52:	33 23       	and	r19, r19
    3e54:	a1 f0       	breq	.+40     	;  0x3e7e
    3e56:	20 91 43 02 	lds	r18, 0x0243	;  0x800243
    3e5a:	22 23       	and	r18, r18
    3e5c:	81 f0       	breq	.+32     	;  0x3e7e
    3e5e:	45 eb       	ldi	r20, 0xB5	; 181
    3e60:	34 03       	mulsu	r19, r20
    3e62:	c0 01       	movw	r24, r0
    3e64:	11 24       	eor	r1, r1
    3e66:	99 23       	and	r25, r25
    3e68:	f1 f0       	breq	.+60     	;  0x3ea6
    3e6a:	90 93 42 02 	sts	0x0242, r25	;  0x800242
    3e6e:	45 eb       	ldi	r20, 0xB5	; 181
    3e70:	24 03       	mulsu	r18, r20
    3e72:	90 01       	movw	r18, r0
    3e74:	11 24       	eor	r1, r1
    3e76:	33 23       	and	r19, r19
    3e78:	d1 f0       	breq	.+52     	;  0x3eae
    3e7a:	30 93 43 02 	sts	0x0243, r19	;  0x800243
    3e7e:	0e 94 b4 1d 	call	0x3b68	;  0x3b68
    3e82:	80 91 3a 02 	lds	r24, 0x023A	;  0x80023a
    3e86:	90 91 3b 02 	lds	r25, 0x023B	;  0x80023b
    3e8a:	90 93 37 02 	sts	0x0237, r25	;  0x800237
    3e8e:	80 93 36 02 	sts	0x0236, r24	;  0x800236
    3e92:	86 e0       	ldi	r24, 0x06	; 6
    3e94:	fe 01       	movw	r30, r28
    3e96:	31 96       	adiw	r30, 0x01	; 1
    3e98:	ae e3       	ldi	r26, 0x3E	; 62
    3e9a:	b2 e0       	ldi	r27, 0x02	; 2
    3e9c:	01 90       	ld	r0, Z+
    3e9e:	0d 92       	st	X+, r0
    3ea0:	8a 95       	dec	r24
    3ea2:	e1 f7       	brne	.-8      	;  0x3e9c
    3ea4:	2c cf       	rjmp	.-424    	;  0x3cfe
    3ea6:	81 e0       	ldi	r24, 0x01	; 1
    3ea8:	80 93 42 02 	sts	0x0242, r24	;  0x800242
    3eac:	e0 cf       	rjmp	.-64     	;  0x3e6e
    3eae:	81 e0       	ldi	r24, 0x01	; 1
    3eb0:	80 93 43 02 	sts	0x0243, r24	;  0x800243
    3eb4:	e4 cf       	rjmp	.-56     	;  0x3e7e
    3eb6:	86 e0       	ldi	r24, 0x06	; 6
    3eb8:	ee e3       	ldi	r30, 0x3E	; 62
    3eba:	f2 e0       	ldi	r31, 0x02	; 2
    3ebc:	df 01       	movw	r26, r30
    3ebe:	1d 92       	st	X+, r1
    3ec0:	8a 95       	dec	r24
    3ec2:	e9 f7       	brne	.-6      	;  0x3ebe
    3ec4:	10 92 3c 02 	sts	0x023C, r1	;  0x80023c
    3ec8:	10 92 3d 02 	sts	0x023D, r1	;  0x80023d
    3ecc:	08 95       	ret
    3ece:	85 e9       	ldi	r24, 0x95	; 149
    3ed0:	94 e0       	ldi	r25, 0x04	; 4
    3ed2:	0e 94 9a 06 	call	0xd34	;  0xd34
    3ed6:	1f 92       	push	r1
    3ed8:	81 e0       	ldi	r24, 0x01	; 1
    3eda:	8f 93       	push	r24
    3edc:	1f 92       	push	r1
    3ede:	85 e0       	ldi	r24, 0x05	; 5
    3ee0:	8f 93       	push	r24
    3ee2:	87 e4       	ldi	r24, 0x47	; 71
    3ee4:	94 e0       	ldi	r25, 0x04	; 4
    3ee6:	9f 93       	push	r25
    3ee8:	8f 93       	push	r24
    3eea:	0e 94 33 07 	call	0xe66	;  0xe66
    3eee:	0f 90       	pop	r0
    3ef0:	0f 90       	pop	r0
    3ef2:	0f 90       	pop	r0
    3ef4:	0f 90       	pop	r0
    3ef6:	0f 90       	pop	r0
    3ef8:	0f 90       	pop	r0
    3efa:	08 95       	ret
    3efc:	83 30       	cpi	r24, 0x03	; 3
    3efe:	09 f4       	brne	.+2      	;  0x3f02
    3f00:	45 c0       	rjmp	.+138    	;  0x3f8c
    3f02:	28 f4       	brcc	.+10     	;  0x3f0e
    3f04:	81 30       	cpi	r24, 0x01	; 1
    3f06:	61 f0       	breq	.+24     	;  0x3f20
    3f08:	82 30       	cpi	r24, 0x02	; 2
    3f0a:	49 f1       	breq	.+82     	;  0x3f5e
    3f0c:	08 95       	ret
    3f0e:	85 30       	cpi	r24, 0x05	; 5
    3f10:	09 f4       	brne	.+2      	;  0x3f14
    3f12:	6a c0       	rjmp	.+212    	;  0x3fe8
    3f14:	08 f4       	brcc	.+2      	;  0x3f18
    3f16:	51 c0       	rjmp	.+162    	;  0x3fba
    3f18:	86 30       	cpi	r24, 0x06	; 6
    3f1a:	09 f4       	brne	.+2      	;  0x3f1e
    3f1c:	7c c0       	rjmp	.+248    	;  0x4016
    3f1e:	08 95       	ret
    3f20:	80 91 09 01 	lds	r24, 0x0109	;  0x800109
    3f24:	48 2f       	mov	r20, r24
    3f26:	46 0f       	add	r20, r22
    3f28:	55 27       	eor	r21, r21
    3f2a:	55 1f       	adc	r21, r21
    3f2c:	4f 3f       	cpi	r20, 0xFF	; 255
    3f2e:	51 05       	cpc	r21, r1
    3f30:	94 f4       	brge	.+36     	;  0x3f56
    3f32:	68 0f       	add	r22, r24
    3f34:	60 93 09 01 	sts	0x0109, r22	;  0x800109
    3f38:	80 91 09 01 	lds	r24, 0x0109	;  0x800109
    3f3c:	1f 92       	push	r1
    3f3e:	8f 93       	push	r24
    3f40:	80 e8       	ldi	r24, 0x80	; 128
    3f42:	93 e0       	ldi	r25, 0x03	; 3
    3f44:	9f 93       	push	r25
    3f46:	8f 93       	push	r24
    3f48:	0e 94 33 07 	call	0xe66	;  0xe66
    3f4c:	0f 90       	pop	r0
    3f4e:	0f 90       	pop	r0
    3f50:	0f 90       	pop	r0
    3f52:	0f 90       	pop	r0
    3f54:	08 95       	ret
    3f56:	8f ef       	ldi	r24, 0xFF	; 255
    3f58:	80 93 09 01 	sts	0x0109, r24	;  0x800109
    3f5c:	ed cf       	rjmp	.-38     	;  0x3f38
    3f5e:	80 91 08 01 	lds	r24, 0x0108	;  0x800108
    3f62:	48 2f       	mov	r20, r24
    3f64:	46 0f       	add	r20, r22
    3f66:	55 27       	eor	r21, r21
    3f68:	55 1f       	adc	r21, r21
    3f6a:	4f 3f       	cpi	r20, 0xFF	; 255
    3f6c:	51 05       	cpc	r21, r1
    3f6e:	54 f4       	brge	.+20     	;  0x3f84
    3f70:	68 0f       	add	r22, r24
    3f72:	60 93 08 01 	sts	0x0108, r22	;  0x800108
    3f76:	80 91 08 01 	lds	r24, 0x0108	;  0x800108
    3f7a:	1f 92       	push	r1
    3f7c:	8f 93       	push	r24
    3f7e:	8e e6       	ldi	r24, 0x6E	; 110
    3f80:	93 e0       	ldi	r25, 0x03	; 3
    3f82:	e0 cf       	rjmp	.-64     	;  0x3f44
    3f84:	8f ef       	ldi	r24, 0xFF	; 255
    3f86:	80 93 08 01 	sts	0x0108, r24	;  0x800108
    3f8a:	f5 cf       	rjmp	.-22     	;  0x3f76
    3f8c:	80 91 07 01 	lds	r24, 0x0107	;  0x800107
    3f90:	48 2f       	mov	r20, r24
    3f92:	46 0f       	add	r20, r22
    3f94:	55 27       	eor	r21, r21
    3f96:	55 1f       	adc	r21, r21
    3f98:	4f 3f       	cpi	r20, 0xFF	; 255
    3f9a:	51 05       	cpc	r21, r1
    3f9c:	54 f4       	brge	.+20     	;  0x3fb2
    3f9e:	68 0f       	add	r22, r24
    3fa0:	60 93 07 01 	sts	0x0107, r22	;  0x800107
    3fa4:	80 91 07 01 	lds	r24, 0x0107	;  0x800107
    3fa8:	1f 92       	push	r1
    3faa:	8f 93       	push	r24
    3fac:	8b e5       	ldi	r24, 0x5B	; 91
    3fae:	93 e0       	ldi	r25, 0x03	; 3
    3fb0:	c9 cf       	rjmp	.-110    	;  0x3f44
    3fb2:	8f ef       	ldi	r24, 0xFF	; 255
    3fb4:	80 93 07 01 	sts	0x0107, r24	;  0x800107
    3fb8:	f5 cf       	rjmp	.-22     	;  0x3fa4
    3fba:	80 91 06 01 	lds	r24, 0x0106	;  0x800106
    3fbe:	48 2f       	mov	r20, r24
    3fc0:	46 0f       	add	r20, r22
    3fc2:	55 27       	eor	r21, r21
    3fc4:	55 1f       	adc	r21, r21
    3fc6:	4f 3f       	cpi	r20, 0xFF	; 255
    3fc8:	51 05       	cpc	r21, r1
    3fca:	54 f4       	brge	.+20     	;  0x3fe0
    3fcc:	68 0f       	add	r22, r24
    3fce:	60 93 06 01 	sts	0x0106, r22	;  0x800106
    3fd2:	80 91 06 01 	lds	r24, 0x0106	;  0x800106
    3fd6:	1f 92       	push	r1
    3fd8:	8f 93       	push	r24
    3fda:	86 e4       	ldi	r24, 0x46	; 70
    3fdc:	93 e0       	ldi	r25, 0x03	; 3
    3fde:	b2 cf       	rjmp	.-156    	;  0x3f44
    3fe0:	8f ef       	ldi	r24, 0xFF	; 255
    3fe2:	80 93 06 01 	sts	0x0106, r24	;  0x800106
    3fe6:	f5 cf       	rjmp	.-22     	;  0x3fd2
    3fe8:	80 91 03 01 	lds	r24, 0x0103	;  0x800103
    3fec:	48 2f       	mov	r20, r24
    3fee:	46 0f       	add	r20, r22
    3ff0:	55 27       	eor	r21, r21
    3ff2:	55 1f       	adc	r21, r21
    3ff4:	4f 3f       	cpi	r20, 0xFF	; 255
    3ff6:	51 05       	cpc	r21, r1
    3ff8:	54 f4       	brge	.+20     	;  0x400e
    3ffa:	68 0f       	add	r22, r24
    3ffc:	60 93 03 01 	sts	0x0103, r22	;  0x800103
    4000:	80 91 03 01 	lds	r24, 0x0103	;  0x800103
    4004:	1f 92       	push	r1
    4006:	8f 93       	push	r24
    4008:	8d e2       	ldi	r24, 0x2D	; 45
    400a:	93 e0       	ldi	r25, 0x03	; 3
    400c:	9b cf       	rjmp	.-202    	;  0x3f44
    400e:	8f ef       	ldi	r24, 0xFF	; 255
    4010:	80 93 03 01 	sts	0x0103, r24	;  0x800103
    4014:	f5 cf       	rjmp	.-22     	;  0x4000
    4016:	80 91 02 01 	lds	r24, 0x0102	;  0x800102
    401a:	48 2f       	mov	r20, r24
    401c:	46 0f       	add	r20, r22
    401e:	55 27       	eor	r21, r21
    4020:	55 1f       	adc	r21, r21
    4022:	4f 3f       	cpi	r20, 0xFF	; 255
    4024:	51 05       	cpc	r21, r1
    4026:	54 f4       	brge	.+20     	;  0x403c
    4028:	68 0f       	add	r22, r24
    402a:	60 93 02 01 	sts	0x0102, r22	;  0x800102
    402e:	80 91 02 01 	lds	r24, 0x0102	;  0x800102
    4032:	1f 92       	push	r1
    4034:	8f 93       	push	r24
    4036:	82 e1       	ldi	r24, 0x12	; 18
    4038:	93 e0       	ldi	r25, 0x03	; 3
    403a:	84 cf       	rjmp	.-248    	;  0x3f44
    403c:	8f ef       	ldi	r24, 0xFF	; 255
    403e:	80 93 02 01 	sts	0x0102, r24	;  0x800102
    4042:	f5 cf       	rjmp	.-22     	;  0x402e
    4044:	83 30       	cpi	r24, 0x03	; 3
    4046:	c9 f1       	breq	.+114    	;  0x40ba
    4048:	28 f4       	brcc	.+10     	;  0x4054
    404a:	81 30       	cpi	r24, 0x01	; 1
    404c:	61 f0       	breq	.+24     	;  0x4066
    404e:	82 30       	cpi	r24, 0x02	; 2
    4050:	19 f1       	breq	.+70     	;  0x4098
    4052:	08 95       	ret
    4054:	85 30       	cpi	r24, 0x05	; 5
    4056:	09 f4       	brne	.+2      	;  0x405a
    4058:	52 c0       	rjmp	.+164    	;  0x40fe
    405a:	08 f4       	brcc	.+2      	;  0x405e
    405c:	3f c0       	rjmp	.+126    	;  0x40dc
    405e:	86 30       	cpi	r24, 0x06	; 6
    4060:	09 f4       	brne	.+2      	;  0x4064
    4062:	5e c0       	rjmp	.+188    	;  0x4120
    4064:	08 95       	ret
    4066:	80 91 09 01 	lds	r24, 0x0109	;  0x800109
    406a:	68 17       	cp	r22, r24
    406c:	90 f4       	brcc	.+36     	;  0x4092
    406e:	86 1b       	sub	r24, r22
    4070:	80 93 09 01 	sts	0x0109, r24	;  0x800109
    4074:	80 91 09 01 	lds	r24, 0x0109	;  0x800109
    4078:	1f 92       	push	r1
    407a:	8f 93       	push	r24
    407c:	83 e0       	ldi	r24, 0x03	; 3
    407e:	93 e0       	ldi	r25, 0x03	; 3
    4080:	9f 93       	push	r25
    4082:	8f 93       	push	r24
    4084:	0e 94 33 07 	call	0xe66	;  0xe66
    4088:	0f 90       	pop	r0
    408a:	0f 90       	pop	r0
    408c:	0f 90       	pop	r0
    408e:	0f 90       	pop	r0
    4090:	08 95       	ret
    4092:	10 92 09 01 	sts	0x0109, r1	;  0x800109
    4096:	ee cf       	rjmp	.-36     	;  0x4074
    4098:	80 91 08 01 	lds	r24, 0x0108	;  0x800108
    409c:	68 17       	cp	r22, r24
    409e:	50 f4       	brcc	.+20     	;  0x40b4
    40a0:	86 1b       	sub	r24, r22
    40a2:	80 93 08 01 	sts	0x0108, r24	;  0x800108
    40a6:	80 91 08 01 	lds	r24, 0x0108	;  0x800108
    40aa:	1f 92       	push	r1
    40ac:	8f 93       	push	r24
    40ae:	81 ef       	ldi	r24, 0xF1	; 241
    40b0:	92 e0       	ldi	r25, 0x02	; 2
    40b2:	e6 cf       	rjmp	.-52     	;  0x4080
    40b4:	10 92 08 01 	sts	0x0108, r1	;  0x800108
    40b8:	f6 cf       	rjmp	.-20     	;  0x40a6
    40ba:	80 91 07 01 	lds	r24, 0x0107	;  0x800107
    40be:	68 17       	cp	r22, r24
    40c0:	50 f4       	brcc	.+20     	;  0x40d6
    40c2:	86 1b       	sub	r24, r22
    40c4:	80 93 07 01 	sts	0x0107, r24	;  0x800107
    40c8:	80 91 07 01 	lds	r24, 0x0107	;  0x800107
    40cc:	1f 92       	push	r1
    40ce:	8f 93       	push	r24
    40d0:	8e ed       	ldi	r24, 0xDE	; 222
    40d2:	92 e0       	ldi	r25, 0x02	; 2
    40d4:	d5 cf       	rjmp	.-86     	;  0x4080
    40d6:	10 92 07 01 	sts	0x0107, r1	;  0x800107
    40da:	f6 cf       	rjmp	.-20     	;  0x40c8
    40dc:	80 91 06 01 	lds	r24, 0x0106	;  0x800106
    40e0:	68 17       	cp	r22, r24
    40e2:	50 f4       	brcc	.+20     	;  0x40f8
    40e4:	86 1b       	sub	r24, r22
    40e6:	80 93 06 01 	sts	0x0106, r24	;  0x800106
    40ea:	80 91 06 01 	lds	r24, 0x0106	;  0x800106
    40ee:	1f 92       	push	r1
    40f0:	8f 93       	push	r24
    40f2:	89 ec       	ldi	r24, 0xC9	; 201
    40f4:	92 e0       	ldi	r25, 0x02	; 2
    40f6:	c4 cf       	rjmp	.-120    	;  0x4080
    40f8:	10 92 06 01 	sts	0x0106, r1	;  0x800106
    40fc:	f6 cf       	rjmp	.-20     	;  0x40ea
    40fe:	80 91 03 01 	lds	r24, 0x0103	;  0x800103
    4102:	68 17       	cp	r22, r24
    4104:	50 f4       	brcc	.+20     	;  0x411a
    4106:	86 1b       	sub	r24, r22
    4108:	80 93 03 01 	sts	0x0103, r24	;  0x800103
    410c:	80 91 03 01 	lds	r24, 0x0103	;  0x800103
    4110:	1f 92       	push	r1
    4112:	8f 93       	push	r24
    4114:	80 eb       	ldi	r24, 0xB0	; 176
    4116:	92 e0       	ldi	r25, 0x02	; 2
    4118:	b3 cf       	rjmp	.-154    	;  0x4080
    411a:	10 92 03 01 	sts	0x0103, r1	;  0x800103
    411e:	f6 cf       	rjmp	.-20     	;  0x410c
    4120:	80 91 02 01 	lds	r24, 0x0102	;  0x800102
    4124:	68 17       	cp	r22, r24
    4126:	50 f4       	brcc	.+20     	;  0x413c
    4128:	86 1b       	sub	r24, r22
    412a:	80 93 02 01 	sts	0x0102, r24	;  0x800102
    412e:	80 91 02 01 	lds	r24, 0x0102	;  0x800102
    4132:	1f 92       	push	r1
    4134:	8f 93       	push	r24
    4136:	85 e9       	ldi	r24, 0x95	; 149
    4138:	92 e0       	ldi	r25, 0x02	; 2
    413a:	a2 cf       	rjmp	.-188    	;  0x4080
    413c:	10 92 02 01 	sts	0x0102, r1	;  0x800102
    4140:	f6 cf       	rjmp	.-20     	;  0x412e
    4142:	cf 93       	push	r28
    4144:	c8 2f       	mov	r28, r24
    4146:	1f 92       	push	r1
    4148:	8f 93       	push	r24
    414a:	8a e9       	ldi	r24, 0x9A	; 154
    414c:	95 e0       	ldi	r25, 0x05	; 5
    414e:	9f 93       	push	r25
    4150:	8f 93       	push	r24
    4152:	0e 94 33 07 	call	0xe66	;  0xe66
    4156:	61 e0       	ldi	r22, 0x01	; 1
    4158:	70 e0       	ldi	r23, 0x00	; 0
    415a:	80 e0       	ldi	r24, 0x00	; 0
    415c:	90 e0       	ldi	r25, 0x00	; 0
    415e:	04 c0       	rjmp	.+8      	;  0x4168
    4160:	66 0f       	add	r22, r22
    4162:	77 1f       	adc	r23, r23
    4164:	88 1f       	adc	r24, r24
    4166:	99 1f       	adc	r25, r25
    4168:	ca 95       	dec	r28
    416a:	d2 f7       	brpl	.-12     	;  0x4160
    416c:	0e 94 8d 17 	call	0x2f1a	;  0x2f1a
    4170:	0f 90       	pop	r0
    4172:	0f 90       	pop	r0
    4174:	0f 90       	pop	r0
    4176:	0f 90       	pop	r0
    4178:	cf 91       	pop	r28
    417a:	0c 94 f5 13 	jmp	0x27ea	;  0x27ea
    417e:	cf 93       	push	r28
    4180:	df 93       	push	r29
    4182:	8b 31       	cpi	r24, 0x1B	; 27
    4184:	09 f4       	brne	.+2      	;  0x4188
    4186:	fe c1       	rjmp	.+1020   	;  0x4584
    4188:	08 f0       	brcs	.+2      	;  0x418c
    418a:	a0 c1       	rjmp	.+832    	;  0x44cc
    418c:	8b 30       	cpi	r24, 0x0B	; 11
    418e:	09 f4       	brne	.+2      	;  0x4192
    4190:	bc c1       	rjmp	.+888    	;  0x450a
    4192:	08 f0       	brcs	.+2      	;  0x4196
    4194:	6a c1       	rjmp	.+724    	;  0x446a
    4196:	86 30       	cpi	r24, 0x06	; 6
    4198:	09 f4       	brne	.+2      	;  0x419c
    419a:	ca c1       	rjmp	.+916    	;  0x4530
    419c:	48 f4       	brcc	.+18     	;  0x41b0
    419e:	85 30       	cpi	r24, 0x05	; 5
    41a0:	09 f4       	brne	.+2      	;  0x41a4
    41a2:	a2 c1       	rjmp	.+836    	;  0x44e8
    41a4:	8a e3       	ldi	r24, 0x3A	; 58
    41a6:	9a e0       	ldi	r25, 0x0A	; 10
    41a8:	0e 94 9a 06 	call	0xd34	;  0xd34
    41ac:	80 e0       	ldi	r24, 0x00	; 0
    41ae:	d0 c1       	rjmp	.+928    	;  0x4550
    41b0:	87 30       	cpi	r24, 0x07	; 7
    41b2:	09 f4       	brne	.+2      	;  0x41b6
    41b4:	d0 c1       	rjmp	.+928    	;  0x4556
    41b6:	88 30       	cpi	r24, 0x08	; 8
    41b8:	a9 f7       	brne	.-22     	;  0x41a4
    41ba:	89 ed       	ldi	r24, 0xD9	; 217
    41bc:	9a e0       	ldi	r25, 0x0A	; 10
    41be:	0e 94 9a 06 	call	0xd34	;  0xd34
    41c2:	8a e2       	ldi	r24, 0x2A	; 42
    41c4:	9a e0       	ldi	r25, 0x0A	; 10
    41c6:	0e 94 9a 06 	call	0xd34	;  0xd34
    41ca:	0e 94 54 1a 	call	0x34a8	;  0x34a8
    41ce:	1f 92       	push	r1
    41d0:	8f 93       	push	r24
    41d2:	87 e2       	ldi	r24, 0x27	; 39
    41d4:	9a e0       	ldi	r25, 0x0A	; 10
    41d6:	9f 93       	push	r25
    41d8:	8f 93       	push	r24
    41da:	0e 94 33 07 	call	0xe66	;  0xe66
    41de:	85 e2       	ldi	r24, 0x25	; 37
    41e0:	9a e0       	ldi	r25, 0x0A	; 10
    41e2:	0e 94 9a 06 	call	0xd34	;  0xd34
    41e6:	0e 94 50 1a 	call	0x34a0	;  0x34a0
    41ea:	c8 2f       	mov	r28, r24
    41ec:	82 e1       	ldi	r24, 0x12	; 18
    41ee:	9a e0       	ldi	r25, 0x0A	; 10
    41f0:	0e 94 9a 06 	call	0xd34	;  0xd34
    41f4:	1f 92       	push	r1
    41f6:	cf 93       	push	r28
    41f8:	8d e0       	ldi	r24, 0x0D	; 13
    41fa:	9a e0       	ldi	r25, 0x0A	; 10
    41fc:	9f 93       	push	r25
    41fe:	8f 93       	push	r24
    4200:	0e 94 33 07 	call	0xe66	;  0xe66
    4204:	8b e0       	ldi	r24, 0x0B	; 11
    4206:	9a e0       	ldi	r25, 0x0A	; 10
    4208:	0e 94 9a 06 	call	0xd34	;  0xd34
    420c:	81 e0       	ldi	r24, 0x01	; 1
    420e:	9a e0       	ldi	r25, 0x0A	; 10
    4210:	0e 94 9a 06 	call	0xd34	;  0xd34
    4214:	8c 2f       	mov	r24, r28
    4216:	81 70       	andi	r24, 0x01	; 1
    4218:	1f 92       	push	r1
    421a:	8f 93       	push	r24
    421c:	8e ef       	ldi	r24, 0xFE	; 254
    421e:	99 e0       	ldi	r25, 0x09	; 9
    4220:	9f 93       	push	r25
    4222:	8f 93       	push	r24
    4224:	0e 94 33 07 	call	0xe66	;  0xe66
    4228:	8c ef       	ldi	r24, 0xFC	; 252
    422a:	99 e0       	ldi	r25, 0x09	; 9
    422c:	0e 94 9a 06 	call	0xd34	;  0xd34
    4230:	82 ef       	ldi	r24, 0xF2	; 242
    4232:	99 e0       	ldi	r25, 0x09	; 9
    4234:	0e 94 9a 06 	call	0xd34	;  0xd34
    4238:	c1 fb       	bst	r28, 1
    423a:	88 27       	eor	r24, r24
    423c:	80 f9       	bld	r24, 0
    423e:	1f 92       	push	r1
    4240:	8f 93       	push	r24
    4242:	8f ee       	ldi	r24, 0xEF	; 239
    4244:	99 e0       	ldi	r25, 0x09	; 9
    4246:	9f 93       	push	r25
    4248:	8f 93       	push	r24
    424a:	0e 94 33 07 	call	0xe66	;  0xe66
    424e:	8d ee       	ldi	r24, 0xED	; 237
    4250:	99 e0       	ldi	r25, 0x09	; 9
    4252:	0e 94 9a 06 	call	0xd34	;  0xd34
    4256:	81 ee       	ldi	r24, 0xE1	; 225
    4258:	99 e0       	ldi	r25, 0x09	; 9
    425a:	0e 94 9a 06 	call	0xd34	;  0xd34
    425e:	c2 fb       	bst	r28, 2
    4260:	88 27       	eor	r24, r24
    4262:	80 f9       	bld	r24, 0
    4264:	1f 92       	push	r1
    4266:	8f 93       	push	r24
    4268:	8e ed       	ldi	r24, 0xDE	; 222
    426a:	99 e0       	ldi	r25, 0x09	; 9
    426c:	9f 93       	push	r25
    426e:	8f 93       	push	r24
    4270:	0e 94 33 07 	call	0xe66	;  0xe66
    4274:	8c ed       	ldi	r24, 0xDC	; 220
    4276:	99 e0       	ldi	r25, 0x09	; 9
    4278:	0e 94 9a 06 	call	0xd34	;  0xd34
    427c:	83 ed       	ldi	r24, 0xD3	; 211
    427e:	99 e0       	ldi	r25, 0x09	; 9
    4280:	0e 94 9a 06 	call	0xd34	;  0xd34
    4284:	c3 fb       	bst	r28, 3
    4286:	cc 27       	eor	r28, r28
    4288:	c0 f9       	bld	r28, 0
    428a:	1f 92       	push	r1
    428c:	cf 93       	push	r28
    428e:	80 ed       	ldi	r24, 0xD0	; 208
    4290:	99 e0       	ldi	r25, 0x09	; 9
    4292:	9f 93       	push	r25
    4294:	8f 93       	push	r24
    4296:	0e 94 33 07 	call	0xe66	;  0xe66
    429a:	8e ec       	ldi	r24, 0xCE	; 206
    429c:	99 e0       	ldi	r25, 0x09	; 9
    429e:	0e 94 9a 06 	call	0xd34	;  0xd34
    42a2:	0e 94 58 1a 	call	0x34b0	;  0x34b0
    42a6:	ec 01       	movw	r28, r24
    42a8:	8a eb       	ldi	r24, 0xBA	; 186
    42aa:	99 e0       	ldi	r25, 0x09	; 9
    42ac:	0e 94 9a 06 	call	0xd34	;  0xd34
    42b0:	df 93       	push	r29
    42b2:	cf 93       	push	r28
    42b4:	85 eb       	ldi	r24, 0xB5	; 181
    42b6:	99 e0       	ldi	r25, 0x09	; 9
    42b8:	9f 93       	push	r25
    42ba:	8f 93       	push	r24
    42bc:	0e 94 33 07 	call	0xe66	;  0xe66
    42c0:	83 eb       	ldi	r24, 0xB3	; 179
    42c2:	99 e0       	ldi	r25, 0x09	; 9
    42c4:	0e 94 9a 06 	call	0xd34	;  0xd34
    42c8:	8a e9       	ldi	r24, 0x9A	; 154
    42ca:	99 e0       	ldi	r25, 0x09	; 9
    42cc:	0e 94 9a 06 	call	0xd34	;  0xd34
    42d0:	8c 2f       	mov	r24, r28
    42d2:	81 70       	andi	r24, 0x01	; 1
    42d4:	1f 92       	push	r1
    42d6:	8f 93       	push	r24
    42d8:	87 e9       	ldi	r24, 0x97	; 151
    42da:	99 e0       	ldi	r25, 0x09	; 9
    42dc:	9f 93       	push	r25
    42de:	8f 93       	push	r24
    42e0:	0e 94 33 07 	call	0xe66	;  0xe66
    42e4:	8d b7       	in	r24, 0x3d	; 61
    42e6:	9e b7       	in	r25, 0x3e	; 62
    42e8:	80 96       	adiw	r24, 0x20	; 32
    42ea:	0f b6       	in	r0, 0x3f	; 63
    42ec:	f8 94       	cli
    42ee:	9e bf       	out	0x3e, r25	; 62
    42f0:	0f be       	out	0x3f, r0	; 63
    42f2:	8d bf       	out	0x3d, r24	; 61
    42f4:	85 e9       	ldi	r24, 0x95	; 149
    42f6:	99 e0       	ldi	r25, 0x09	; 9
    42f8:	0e 94 9a 06 	call	0xd34	;  0xd34
    42fc:	8e e7       	ldi	r24, 0x7E	; 126
    42fe:	99 e0       	ldi	r25, 0x09	; 9
    4300:	0e 94 9a 06 	call	0xd34	;  0xd34
    4304:	c1 fb       	bst	r28, 1
    4306:	88 27       	eor	r24, r24
    4308:	80 f9       	bld	r24, 0
    430a:	1f 92       	push	r1
    430c:	8f 93       	push	r24
    430e:	8b e7       	ldi	r24, 0x7B	; 123
    4310:	99 e0       	ldi	r25, 0x09	; 9
    4312:	9f 93       	push	r25
    4314:	8f 93       	push	r24
    4316:	0e 94 33 07 	call	0xe66	;  0xe66
    431a:	89 e7       	ldi	r24, 0x79	; 121
    431c:	99 e0       	ldi	r25, 0x09	; 9
    431e:	0e 94 9a 06 	call	0xd34	;  0xd34
    4322:	87 e6       	ldi	r24, 0x67	; 103
    4324:	99 e0       	ldi	r25, 0x09	; 9
    4326:	0e 94 9a 06 	call	0xd34	;  0xd34
    432a:	8d 2f       	mov	r24, r29
    432c:	81 70       	andi	r24, 0x01	; 1
    432e:	1f 92       	push	r1
    4330:	8f 93       	push	r24
    4332:	84 e6       	ldi	r24, 0x64	; 100
    4334:	99 e0       	ldi	r25, 0x09	; 9
    4336:	9f 93       	push	r25
    4338:	8f 93       	push	r24
    433a:	0e 94 33 07 	call	0xe66	;  0xe66
    433e:	82 e6       	ldi	r24, 0x62	; 98
    4340:	99 e0       	ldi	r25, 0x09	; 9
    4342:	0e 94 9a 06 	call	0xd34	;  0xd34
    4346:	80 e5       	ldi	r24, 0x50	; 80
    4348:	99 e0       	ldi	r25, 0x09	; 9
    434a:	0e 94 9a 06 	call	0xd34	;  0xd34
    434e:	d6 95       	lsr	r29
    4350:	d1 70       	andi	r29, 0x01	; 1
    4352:	1f 92       	push	r1
    4354:	df 93       	push	r29
    4356:	8d e4       	ldi	r24, 0x4D	; 77
    4358:	99 e0       	ldi	r25, 0x09	; 9
    435a:	9f 93       	push	r25
    435c:	8f 93       	push	r24
    435e:	0e 94 33 07 	call	0xe66	;  0xe66
    4362:	8b e4       	ldi	r24, 0x4B	; 75
    4364:	99 e0       	ldi	r25, 0x09	; 9
    4366:	0e 94 9a 06 	call	0xd34	;  0xd34
    436a:	89 e3       	ldi	r24, 0x39	; 57
    436c:	99 e0       	ldi	r25, 0x09	; 9
    436e:	0e 94 9a 06 	call	0xd34	;  0xd34
    4372:	c2 fb       	bst	r28, 2
    4374:	88 27       	eor	r24, r24
    4376:	80 f9       	bld	r24, 0
    4378:	1f 92       	push	r1
    437a:	8f 93       	push	r24
    437c:	86 e3       	ldi	r24, 0x36	; 54
    437e:	99 e0       	ldi	r25, 0x09	; 9
    4380:	9f 93       	push	r25
    4382:	8f 93       	push	r24
    4384:	0e 94 33 07 	call	0xe66	;  0xe66
    4388:	84 e3       	ldi	r24, 0x34	; 52
    438a:	99 e0       	ldi	r25, 0x09	; 9
    438c:	0e 94 9a 06 	call	0xd34	;  0xd34
    4390:	82 e2       	ldi	r24, 0x22	; 34
    4392:	99 e0       	ldi	r25, 0x09	; 9
    4394:	0e 94 9a 06 	call	0xd34	;  0xd34
    4398:	c3 fb       	bst	r28, 3
    439a:	88 27       	eor	r24, r24
    439c:	80 f9       	bld	r24, 0
    439e:	1f 92       	push	r1
    43a0:	8f 93       	push	r24
    43a2:	8f e1       	ldi	r24, 0x1F	; 31
    43a4:	99 e0       	ldi	r25, 0x09	; 9
    43a6:	9f 93       	push	r25
    43a8:	8f 93       	push	r24
    43aa:	0e 94 33 07 	call	0xe66	;  0xe66
    43ae:	8d e1       	ldi	r24, 0x1D	; 29
    43b0:	99 e0       	ldi	r25, 0x09	; 9
    43b2:	0e 94 9a 06 	call	0xd34	;  0xd34
    43b6:	83 e1       	ldi	r24, 0x13	; 19
    43b8:	99 e0       	ldi	r25, 0x09	; 9
    43ba:	0e 94 9a 06 	call	0xd34	;  0xd34
    43be:	c4 fb       	bst	r28, 4
    43c0:	88 27       	eor	r24, r24
    43c2:	80 f9       	bld	r24, 0
    43c4:	1f 92       	push	r1
    43c6:	8f 93       	push	r24
    43c8:	80 e1       	ldi	r24, 0x10	; 16
    43ca:	99 e0       	ldi	r25, 0x09	; 9
    43cc:	9f 93       	push	r25
    43ce:	8f 93       	push	r24
    43d0:	0e 94 33 07 	call	0xe66	;  0xe66
    43d4:	8e e0       	ldi	r24, 0x0E	; 14
    43d6:	99 e0       	ldi	r25, 0x09	; 9
    43d8:	0e 94 9a 06 	call	0xd34	;  0xd34
    43dc:	8c ef       	ldi	r24, 0xFC	; 252
    43de:	98 e0       	ldi	r25, 0x08	; 8
    43e0:	0e 94 9a 06 	call	0xd34	;  0xd34
    43e4:	c5 fb       	bst	r28, 5
    43e6:	88 27       	eor	r24, r24
    43e8:	80 f9       	bld	r24, 0
    43ea:	1f 92       	push	r1
    43ec:	8f 93       	push	r24
    43ee:	89 ef       	ldi	r24, 0xF9	; 249
    43f0:	98 e0       	ldi	r25, 0x08	; 8
    43f2:	9f 93       	push	r25
    43f4:	8f 93       	push	r24
    43f6:	0e 94 33 07 	call	0xe66	;  0xe66
    43fa:	87 ef       	ldi	r24, 0xF7	; 247
    43fc:	98 e0       	ldi	r25, 0x08	; 8
    43fe:	0e 94 9a 06 	call	0xd34	;  0xd34
    4402:	8b ed       	ldi	r24, 0xDB	; 219
    4404:	98 e0       	ldi	r25, 0x08	; 8
    4406:	0e 94 9a 06 	call	0xd34	;  0xd34
    440a:	c6 fb       	bst	r28, 6
    440c:	88 27       	eor	r24, r24
    440e:	80 f9       	bld	r24, 0
    4410:	1f 92       	push	r1
    4412:	8f 93       	push	r24
    4414:	88 ed       	ldi	r24, 0xD8	; 216
    4416:	98 e0       	ldi	r25, 0x08	; 8
    4418:	9f 93       	push	r25
    441a:	8f 93       	push	r24
    441c:	0e 94 33 07 	call	0xe66	;  0xe66
    4420:	8d b7       	in	r24, 0x3d	; 61
    4422:	9e b7       	in	r25, 0x3e	; 62
    4424:	80 96       	adiw	r24, 0x20	; 32
    4426:	0f b6       	in	r0, 0x3f	; 63
    4428:	f8 94       	cli
    442a:	9e bf       	out	0x3e, r25	; 62
    442c:	0f be       	out	0x3f, r0	; 63
    442e:	8d bf       	out	0x3d, r24	; 61
    4430:	86 ed       	ldi	r24, 0xD6	; 214
    4432:	98 e0       	ldi	r25, 0x08	; 8
    4434:	0e 94 9a 06 	call	0xd34	;  0xd34
    4438:	8e ec       	ldi	r24, 0xCE	; 206
    443a:	98 e0       	ldi	r25, 0x08	; 8
    443c:	0e 94 9a 06 	call	0xd34	;  0xd34
    4440:	c7 fb       	bst	r28, 7
    4442:	cc 27       	eor	r28, r28
    4444:	c0 f9       	bld	r28, 0
    4446:	1f 92       	push	r1
    4448:	cf 93       	push	r28
    444a:	8b ec       	ldi	r24, 0xCB	; 203
    444c:	98 e0       	ldi	r25, 0x08	; 8
    444e:	9f 93       	push	r25
    4450:	8f 93       	push	r24
    4452:	0e 94 33 07 	call	0xe66	;  0xe66
    4456:	89 ec       	ldi	r24, 0xC9	; 201
    4458:	98 e0       	ldi	r25, 0x08	; 8
    445a:	0e 94 9a 06 	call	0xd34	;  0xd34
    445e:	0f 90       	pop	r0
    4460:	0f 90       	pop	r0
    4462:	0f 90       	pop	r0
    4464:	0f 90       	pop	r0
    4466:	81 e0       	ldi	r24, 0x01	; 1
    4468:	73 c0       	rjmp	.+230    	;  0x4550
    446a:	80 31       	cpi	r24, 0x10	; 16
    446c:	09 f4       	brne	.+2      	;  0x4470
    446e:	a2 c0       	rjmp	.+324    	;  0x45b4
    4470:	80 f4       	brcc	.+32     	;  0x4492
    4472:	8e 30       	cpi	r24, 0x0E	; 14
    4474:	09 f0       	breq	.+2      	;  0x4478
    4476:	96 ce       	rjmp	.-724    	;  0x41a4
    4478:	90 91 34 02 	lds	r25, 0x0234	;  0x800234
    447c:	89 2f       	mov	r24, r25
    447e:	8b 7f       	andi	r24, 0xFB	; 251
    4480:	92 ff       	sbrs	r25, 2
    4482:	84 60       	ori	r24, 0x04	; 4
    4484:	80 93 34 02 	sts	0x0234, r24	;  0x800234
    4488:	82 ff       	sbrs	r24, 2
    448a:	91 c0       	rjmp	.+290    	;  0x45ae
    448c:	85 e6       	ldi	r24, 0x65	; 101
    448e:	9a e0       	ldi	r25, 0x0A	; 10
    4490:	85 c0       	rjmp	.+266    	;  0x459c
    4492:	86 31       	cpi	r24, 0x16	; 22
    4494:	09 f4       	brne	.+2      	;  0x4498
    4496:	9e c0       	rjmp	.+316    	;  0x45d4
    4498:	89 31       	cpi	r24, 0x19	; 25
    449a:	09 f0       	breq	.+2      	;  0x449e
    449c:	83 ce       	rjmp	.-762    	;  0x41a4
    449e:	80 ef       	ldi	r24, 0xF0	; 240
    44a0:	96 e0       	ldi	r25, 0x06	; 6
    44a2:	0e 94 9a 06 	call	0xd34	;  0xd34
    44a6:	82 ed       	ldi	r24, 0xD2	; 210
    44a8:	96 e0       	ldi	r25, 0x06	; 6
    44aa:	0e 94 9a 06 	call	0xd34	;  0xd34
    44ae:	8c e9       	ldi	r24, 0x9C	; 156
    44b0:	96 e0       	ldi	r25, 0x06	; 6
    44b2:	0e 94 9a 06 	call	0xd34	;  0xd34
    44b6:	89 e6       	ldi	r24, 0x69	; 105
    44b8:	96 e0       	ldi	r25, 0x06	; 6
    44ba:	0e 94 9a 06 	call	0xd34	;  0xd34
    44be:	83 e3       	ldi	r24, 0x33	; 51
    44c0:	96 e0       	ldi	r25, 0x06	; 6
    44c2:	0e 94 9a 06 	call	0xd34	;  0xd34
    44c6:	88 e0       	ldi	r24, 0x08	; 8
    44c8:	96 e0       	ldi	r25, 0x06	; 6
    44ca:	21 c0       	rjmp	.+66     	;  0x450e
    44cc:	8a 32       	cpi	r24, 0x2A	; 42
    44ce:	49 f1       	breq	.+82     	;  0x4522
    44d0:	90 f4       	brcc	.+36     	;  0x44f6
    44d2:	87 32       	cpi	r24, 0x27	; 39
    44d4:	11 f1       	breq	.+68     	;  0x451a
    44d6:	28 f4       	brcc	.+10     	;  0x44e2
    44d8:	8e 31       	cpi	r24, 0x1E	; 30
    44da:	08 f4       	brcc	.+2      	;  0x44de
    44dc:	63 ce       	rjmp	.-826    	;  0x41a4
    44de:	8d 51       	subi	r24, 0x1D	; 29
    44e0:	1d c0       	rjmp	.+58     	;  0x451c
    44e2:	89 32       	cpi	r24, 0x29	; 41
    44e4:	09 f0       	breq	.+2      	;  0x44e8
    44e6:	5e ce       	rjmp	.-836    	;  0x41a4
    44e8:	88 ea       	ldi	r24, 0xA8	; 168
    44ea:	9a e0       	ldi	r25, 0x0A	; 10
    44ec:	0e 94 9a 06 	call	0xd34	;  0xd34
    44f0:	0e 94 e1 08 	call	0x11c2	;  0x11c2
    44f4:	b8 cf       	rjmp	.-144    	;  0x4466
    44f6:	83 34       	cpi	r24, 0x43	; 67
    44f8:	68 f4       	brcc	.+26     	;  0x4514
    44fa:	8a 33       	cpi	r24, 0x3A	; 58
    44fc:	08 f0       	brcs	.+2      	;  0x4500
    44fe:	a1 c0       	rjmp	.+322    	;  0x4642
    4500:	85 33       	cpi	r24, 0x35	; 53
    4502:	59 f0       	breq	.+22     	;  0x451a
    4504:	88 33       	cpi	r24, 0x38	; 56
    4506:	09 f0       	breq	.+2      	;  0x450a
    4508:	4d ce       	rjmp	.-870    	;  0x41a4
    450a:	86 e2       	ldi	r24, 0x26	; 38
    450c:	97 e0       	ldi	r25, 0x07	; 7
    450e:	0e 94 9a 06 	call	0xd34	;  0xd34
    4512:	a9 cf       	rjmp	.-174    	;  0x4466
    4514:	83 34       	cpi	r24, 0x43	; 67
    4516:	09 f0       	breq	.+2      	;  0x451a
    4518:	45 ce       	rjmp	.-886    	;  0x41a4
    451a:	80 e0       	ldi	r24, 0x00	; 0
    451c:	0e 94 a1 20 	call	0x4142	;  0x4142
    4520:	a2 cf       	rjmp	.-188    	;  0x4466
    4522:	88 ec       	ldi	r24, 0xC8	; 200
    4524:	9a e0       	ldi	r25, 0x0A	; 10
    4526:	0e 94 9a 06 	call	0xd34	;  0xd34
    452a:	0e 94 e2 1a 	call	0x35c4	;  0x35c4
    452e:	9b cf       	rjmp	.-202    	;  0x4466
    4530:	80 91 34 02 	lds	r24, 0x0234	;  0x800234
    4534:	80 7f       	andi	r24, 0xF0	; 240
    4536:	80 93 34 02 	sts	0x0234, r24	;  0x800234
    453a:	8f ef       	ldi	r24, 0xFF	; 255
    453c:	96 e0       	ldi	r25, 0x06	; 6
    453e:	0e 94 9a 06 	call	0xd34	;  0xd34
    4542:	84 ec       	ldi	r24, 0xC4	; 196
    4544:	9a e0       	ldi	r25, 0x0A	; 10
    4546:	0e 94 9a 06 	call	0xd34	;  0xd34
    454a:	81 e0       	ldi	r24, 0x01	; 1
    454c:	80 93 45 02 	sts	0x0245, r24	;  0x800245
    4550:	df 91       	pop	r29
    4552:	cf 91       	pop	r28
    4554:	08 95       	ret
    4556:	90 91 34 02 	lds	r25, 0x0234	;  0x800234
    455a:	89 2f       	mov	r24, r25
    455c:	8e 7f       	andi	r24, 0xFE	; 254
    455e:	90 ff       	sbrs	r25, 0
    4560:	81 60       	ori	r24, 0x01	; 1
    4562:	80 93 34 02 	sts	0x0234, r24	;  0x800234
    4566:	80 ff       	sbrs	r24, 0
    4568:	03 c0       	rjmp	.+6      	;  0x4570
    456a:	8c e9       	ldi	r24, 0x9C	; 156
    456c:	9a e0       	ldi	r25, 0x0A	; 10
    456e:	cf cf       	rjmp	.-98     	;  0x450e
    4570:	8f e8       	ldi	r24, 0x8F	; 143
    4572:	9a e0       	ldi	r25, 0x0A	; 10
    4574:	0e 94 9a 06 	call	0xd34	;  0xd34
    4578:	80 91 34 02 	lds	r24, 0x0234	;  0x800234
    457c:	81 7f       	andi	r24, 0xF1	; 241
    457e:	80 93 34 02 	sts	0x0234, r24	;  0x800234
    4582:	71 cf       	rjmp	.-286    	;  0x4466
    4584:	90 91 34 02 	lds	r25, 0x0234	;  0x800234
    4588:	89 2f       	mov	r24, r25
    458a:	8d 7f       	andi	r24, 0xFD	; 253
    458c:	91 ff       	sbrs	r25, 1
    458e:	82 60       	ori	r24, 0x02	; 2
    4590:	80 93 34 02 	sts	0x0234, r24	;  0x800234
    4594:	81 ff       	sbrs	r24, 1
    4596:	08 c0       	rjmp	.+16     	;  0x45a8
    4598:	82 e8       	ldi	r24, 0x82	; 130
    459a:	9a e0       	ldi	r25, 0x0A	; 10
    459c:	0e 94 9a 06 	call	0xd34	;  0xd34
    45a0:	80 91 34 02 	lds	r24, 0x0234	;  0x800234
    45a4:	81 60       	ori	r24, 0x01	; 1
    45a6:	eb cf       	rjmp	.-42     	;  0x457e
    45a8:	84 e7       	ldi	r24, 0x74	; 116
    45aa:	9a e0       	ldi	r25, 0x0A	; 10
    45ac:	b0 cf       	rjmp	.-160    	;  0x450e
    45ae:	85 e5       	ldi	r24, 0x55	; 85
    45b0:	9a e0       	ldi	r25, 0x0A	; 10
    45b2:	ad cf       	rjmp	.-166    	;  0x450e
    45b4:	90 91 34 02 	lds	r25, 0x0234	;  0x800234
    45b8:	89 2f       	mov	r24, r25
    45ba:	87 7f       	andi	r24, 0xF7	; 247
    45bc:	93 ff       	sbrs	r25, 3
    45be:	88 60       	ori	r24, 0x08	; 8
    45c0:	80 93 34 02 	sts	0x0234, r24	;  0x800234
    45c4:	83 ff       	sbrs	r24, 3
    45c6:	03 c0       	rjmp	.+6      	;  0x45ce
    45c8:	89 e4       	ldi	r24, 0x49	; 73
    45ca:	9a e0       	ldi	r25, 0x0A	; 10
    45cc:	e7 cf       	rjmp	.-50     	;  0x459c
    45ce:	8c e3       	ldi	r24, 0x3C	; 60
    45d0:	9a e0       	ldi	r25, 0x0A	; 10
    45d2:	9d cf       	rjmp	.-198    	;  0x450e
    45d4:	8a ef       	ldi	r24, 0xFA	; 250
    45d6:	95 e0       	ldi	r25, 0x05	; 5
    45d8:	0e 94 9a 06 	call	0xd34	;  0xd34
    45dc:	0e 94 b2 0e 	call	0x1d64	;  0x1d64
    45e0:	1f 92       	push	r1
    45e2:	8f 93       	push	r24
    45e4:	80 ee       	ldi	r24, 0xE0	; 224
    45e6:	95 e0       	ldi	r25, 0x05	; 5
    45e8:	9f 93       	push	r25
    45ea:	8f 93       	push	r24
    45ec:	0e 94 33 07 	call	0xe66	;  0xe66
    45f0:	80 91 14 01 	lds	r24, 0x0114	;  0x800114
    45f4:	1f 92       	push	r1
    45f6:	8f 93       	push	r24
    45f8:	89 ec       	ldi	r24, 0xC9	; 201
    45fa:	95 e0       	ldi	r25, 0x05	; 5
    45fc:	9f 93       	push	r25
    45fe:	8f 93       	push	r24
    4600:	0e 94 33 07 	call	0xe66	;  0xe66
    4604:	80 91 52 02 	lds	r24, 0x0252	;  0x800252
    4608:	1f 92       	push	r1
    460a:	8f 93       	push	r24
    460c:	86 eb       	ldi	r24, 0xB6	; 182
    460e:	95 e0       	ldi	r25, 0x05	; 5
    4610:	9f 93       	push	r25
    4612:	8f 93       	push	r24
    4614:	0e 94 33 07 	call	0xe66	;  0xe66
    4618:	0e 94 cc 1b 	call	0x3798	;  0x3798
    461c:	9f 93       	push	r25
    461e:	8f 93       	push	r24
    4620:	7f 93       	push	r23
    4622:	6f 93       	push	r22
    4624:	8f e9       	ldi	r24, 0x9F	; 159
    4626:	95 e0       	ldi	r25, 0x05	; 5
    4628:	9f 93       	push	r25
    462a:	8f 93       	push	r24
    462c:	0e 94 33 07 	call	0xe66	;  0xe66
    4630:	8d b7       	in	r24, 0x3d	; 61
    4632:	9e b7       	in	r25, 0x3e	; 62
    4634:	42 96       	adiw	r24, 0x12	; 18
    4636:	0f b6       	in	r0, 0x3f	; 63
    4638:	f8 94       	cli
    463a:	9e bf       	out	0x3e, r25	; 62
    463c:	0f be       	out	0x3f, r0	; 63
    463e:	8d bf       	out	0x3d, r24	; 61
    4640:	12 cf       	rjmp	.-476    	;  0x4466
    4642:	89 53       	subi	r24, 0x39	; 57
    4644:	6b cf       	rjmp	.-298    	;  0x451c
    4646:	80 e0       	ldi	r24, 0x00	; 0
    4648:	08 95       	ret
    464a:	0c 94 23 23 	jmp	0x4646	;  0x4646
    464e:	8e 51       	subi	r24, 0x1E	; 30
    4650:	8a 30       	cpi	r24, 0x0A	; 10
    4652:	30 f4       	brcc	.+12     	;  0x4660
    4654:	e8 2f       	mov	r30, r24
    4656:	f0 e0       	ldi	r31, 0x00	; 0
    4658:	e7 55       	subi	r30, 0x57	; 87
    465a:	fe 4f       	sbci	r31, 0xFE	; 254
    465c:	80 81       	ld	r24, Z
    465e:	08 95       	ret
    4660:	80 e0       	ldi	r24, 0x00	; 0
    4662:	08 95       	ret
    4664:	cf 93       	push	r28
    4666:	c8 2f       	mov	r28, r24
    4668:	80 91 45 02 	lds	r24, 0x0245	;  0x800245
    466c:	81 30       	cpi	r24, 0x01	; 1
    466e:	c1 f0       	breq	.+48     	;  0x46a0
    4670:	88 23       	and	r24, r24
    4672:	39 f0       	breq	.+14     	;  0x4682
    4674:	82 30       	cpi	r24, 0x02	; 2
    4676:	09 f4       	brne	.+2      	;  0x467a
    4678:	47 c0       	rjmp	.+142    	;  0x4708
    467a:	10 92 45 02 	sts	0x0245, r1	;  0x800245
    467e:	80 e0       	ldi	r24, 0x00	; 0
    4680:	0d c0       	rjmp	.+26     	;  0x469c
    4682:	0e 94 73 19 	call	0x32e6	;  0x32e6
    4686:	82 32       	cpi	r24, 0x22	; 34
    4688:	d1 f7       	brne	.-12     	;  0x467e
    468a:	8c 2f       	mov	r24, r28
    468c:	0e 94 23 23 	call	0x4646	;  0x4646
    4690:	81 11       	cpse	r24, r1
    4692:	1b c0       	rjmp	.+54     	;  0x46ca
    4694:	8c 2f       	mov	r24, r28
    4696:	0e 94 bf 20 	call	0x417e	;  0x417e
    469a:	81 70       	andi	r24, 0x01	; 1
    469c:	cf 91       	pop	r28
    469e:	08 95       	ret
    46a0:	0e 94 73 19 	call	0x32e6	;  0x32e6
    46a4:	82 32       	cpi	r24, 0x22	; 34
    46a6:	89 f3       	breq	.-30     	;  0x468a
    46a8:	8c 2f       	mov	r24, r28
    46aa:	0e 94 25 23 	call	0x464a	;  0x464a
    46ae:	81 11       	cpse	r24, r1
    46b0:	1b c0       	rjmp	.+54     	;  0x46e8
    46b2:	c4 31       	cpi	r28, 0x14	; 20
    46b4:	d9 f0       	breq	.+54     	;  0x46ec
    46b6:	60 f4       	brcc	.+24     	;  0x46d0
    46b8:	cb 30       	cpi	r28, 0x0B	; 11
    46ba:	71 f0       	breq	.+28     	;  0x46d8
    46bc:	c0 31       	cpi	r28, 0x10	; 16
    46be:	d1 f0       	breq	.+52     	;  0x46f4
    46c0:	80 e9       	ldi	r24, 0x90	; 144
    46c2:	95 e0       	ldi	r25, 0x05	; 5
    46c4:	0e 94 9a 06 	call	0xd34	;  0xd34
    46c8:	13 c0       	rjmp	.+38     	;  0x46f0
    46ca:	81 e0       	ldi	r24, 0x01	; 1
    46cc:	90 e0       	ldi	r25, 0x00	; 0
    46ce:	e5 cf       	rjmp	.-54     	;  0x469a
    46d0:	c9 32       	cpi	r28, 0x29	; 41
    46d2:	61 f0       	breq	.+24     	;  0x46ec
    46d4:	c8 33       	cpi	r28, 0x38	; 56
    46d6:	a1 f7       	brne	.-24     	;  0x46c0
    46d8:	8f ef       	ldi	r24, 0xFF	; 255
    46da:	96 e0       	ldi	r25, 0x06	; 6
    46dc:	0e 94 9a 06 	call	0xd34	;  0xd34
    46e0:	86 e9       	ldi	r24, 0x96	; 150
    46e2:	95 e0       	ldi	r25, 0x05	; 5
    46e4:	0e 94 9a 06 	call	0xd34	;  0xd34
    46e8:	81 e0       	ldi	r24, 0x01	; 1
    46ea:	d7 cf       	rjmp	.-82     	;  0x469a
    46ec:	10 92 45 02 	sts	0x0245, r1	;  0x800245
    46f0:	80 e0       	ldi	r24, 0x00	; 0
    46f2:	d3 cf       	rjmp	.-90     	;  0x469a
    46f4:	0e 94 67 1f 	call	0x3ece	;  0x3ece
    46f8:	82 e9       	ldi	r24, 0x92	; 146
    46fa:	95 e0       	ldi	r25, 0x05	; 5
    46fc:	0e 94 9a 06 	call	0xd34	;  0xd34
    4700:	82 e0       	ldi	r24, 0x02	; 2
    4702:	80 93 45 02 	sts	0x0245, r24	;  0x800245
    4706:	f0 cf       	rjmp	.-32     	;  0x46e8
    4708:	c4 32       	cpi	r28, 0x24	; 36
    470a:	c8 f4       	brcc	.+50     	;  0x473e
    470c:	ce 31       	cpi	r28, 0x1E	; 30
    470e:	08 f0       	brcs	.+2      	;  0x4712
    4710:	be c0       	rjmp	.+380    	;  0x488e
    4712:	cb 30       	cpi	r28, 0x0B	; 11
    4714:	e1 f0       	breq	.+56     	;  0x474e
    4716:	40 f4       	brcc	.+16     	;  0x4728
    4718:	c7 30       	cpi	r28, 0x07	; 7
    471a:	09 f4       	brne	.+2      	;  0x471e
    471c:	cc c0       	rjmp	.+408    	;  0x48b6
    471e:	84 e3       	ldi	r24, 0x34	; 52
    4720:	94 e0       	ldi	r25, 0x04	; 4
    4722:	0e 94 9a 06 	call	0xd34	;  0xd34
    4726:	26 c0       	rjmp	.+76     	;  0x4774
    4728:	c3 31       	cpi	r28, 0x13	; 19
    472a:	c1 f1       	breq	.+112    	;  0x479c
    472c:	c4 31       	cpi	r28, 0x14	; 20
    472e:	b9 f7       	brne	.-18     	;  0x471e
    4730:	80 91 44 02 	lds	r24, 0x0244	;  0x800244
    4734:	88 23       	and	r24, r24
    4736:	51 f1       	breq	.+84     	;  0x478c
    4738:	10 92 44 02 	sts	0x0244, r1	;  0x800244
    473c:	0a c0       	rjmp	.+20     	;  0x4752
    473e:	cb 34       	cpi	r28, 0x4B	; 75
    4740:	09 f4       	brne	.+2      	;  0x4744
    4742:	b7 c0       	rjmp	.+366    	;  0x48b2
    4744:	c8 f4       	brcc	.+50     	;  0x4778
    4746:	c9 32       	cpi	r28, 0x29	; 41
    4748:	99 f3       	breq	.-26     	;  0x4730
    474a:	c8 33       	cpi	r28, 0x38	; 56
    474c:	41 f7       	brne	.-48     	;  0x471e
    474e:	0e 94 67 1f 	call	0x3ece	;  0x3ece
    4752:	80 91 44 02 	lds	r24, 0x0244	;  0x800244
    4756:	88 23       	and	r24, r24
    4758:	09 f4       	brne	.+2      	;  0x475c
    475a:	c4 c0       	rjmp	.+392    	;  0x48e4
    475c:	1f 92       	push	r1
    475e:	8f 93       	push	r24
    4760:	8e e2       	ldi	r24, 0x2E	; 46
    4762:	94 e0       	ldi	r25, 0x04	; 4
    4764:	9f 93       	push	r25
    4766:	8f 93       	push	r24
    4768:	0e 94 33 07 	call	0xe66	;  0xe66
    476c:	0f 90       	pop	r0
    476e:	0f 90       	pop	r0
    4770:	0f 90       	pop	r0
    4772:	0f 90       	pop	r0
    4774:	81 e0       	ldi	r24, 0x01	; 1
    4776:	92 cf       	rjmp	.-220    	;  0x469c
    4778:	c1 35       	cpi	r28, 0x51	; 81
    477a:	09 f4       	brne	.+2      	;  0x477e
    477c:	94 c0       	rjmp	.+296    	;  0x48a6
    477e:	c2 35       	cpi	r28, 0x52	; 82
    4780:	09 f4       	brne	.+2      	;  0x4784
    4782:	8b c0       	rjmp	.+278    	;  0x489a
    4784:	ce 34       	cpi	r28, 0x4E	; 78
    4786:	59 f6       	brne	.-106    	;  0x471e
    4788:	6a e0       	ldi	r22, 0x0A	; 10
    478a:	8e c0       	rjmp	.+284    	;  0x48a8
    478c:	83 e4       	ldi	r24, 0x43	; 67
    478e:	94 e0       	ldi	r25, 0x04	; 4
    4790:	0e 94 9a 06 	call	0xd34	;  0xd34
    4794:	81 e0       	ldi	r24, 0x01	; 1
    4796:	80 93 45 02 	sts	0x0245, r24	;  0x800245
    479a:	80 cf       	rjmp	.-256    	;  0x469c
    479c:	8d e1       	ldi	r24, 0x1D	; 29
    479e:	94 e0       	ldi	r25, 0x04	; 4
    47a0:	0e 94 9a 06 	call	0xd34	;  0xd34
    47a4:	8b e0       	ldi	r24, 0x0B	; 11
    47a6:	94 e0       	ldi	r25, 0x04	; 4
    47a8:	0e 94 9a 06 	call	0xd34	;  0xd34
    47ac:	80 91 09 01 	lds	r24, 0x0109	;  0x800109
    47b0:	1f 92       	push	r1
    47b2:	8f 93       	push	r24
    47b4:	88 e0       	ldi	r24, 0x08	; 8
    47b6:	94 e0       	ldi	r25, 0x04	; 4
    47b8:	9f 93       	push	r25
    47ba:	8f 93       	push	r24
    47bc:	0e 94 33 07 	call	0xe66	;  0xe66
    47c0:	86 e0       	ldi	r24, 0x06	; 6
    47c2:	94 e0       	ldi	r25, 0x04	; 4
    47c4:	0e 94 9a 06 	call	0xd34	;  0xd34
    47c8:	84 ef       	ldi	r24, 0xF4	; 244
    47ca:	93 e0       	ldi	r25, 0x03	; 3
    47cc:	0e 94 9a 06 	call	0xd34	;  0xd34
    47d0:	80 91 08 01 	lds	r24, 0x0108	;  0x800108
    47d4:	1f 92       	push	r1
    47d6:	8f 93       	push	r24
    47d8:	81 ef       	ldi	r24, 0xF1	; 241
    47da:	93 e0       	ldi	r25, 0x03	; 3
    47dc:	9f 93       	push	r25
    47de:	8f 93       	push	r24
    47e0:	0e 94 33 07 	call	0xe66	;  0xe66
    47e4:	8f ee       	ldi	r24, 0xEF	; 239
    47e6:	93 e0       	ldi	r25, 0x03	; 3
    47e8:	0e 94 9a 06 	call	0xd34	;  0xd34
    47ec:	80 ee       	ldi	r24, 0xE0	; 224
    47ee:	93 e0       	ldi	r25, 0x03	; 3
    47f0:	0e 94 9a 06 	call	0xd34	;  0xd34
    47f4:	80 91 07 01 	lds	r24, 0x0107	;  0x800107
    47f8:	1f 92       	push	r1
    47fa:	8f 93       	push	r24
    47fc:	8d ed       	ldi	r24, 0xDD	; 221
    47fe:	93 e0       	ldi	r25, 0x03	; 3
    4800:	9f 93       	push	r25
    4802:	8f 93       	push	r24
    4804:	0e 94 33 07 	call	0xe66	;  0xe66
    4808:	8b ed       	ldi	r24, 0xDB	; 219
    480a:	93 e0       	ldi	r25, 0x03	; 3
    480c:	0e 94 9a 06 	call	0xd34	;  0xd34
    4810:	8a ec       	ldi	r24, 0xCA	; 202
    4812:	93 e0       	ldi	r25, 0x03	; 3
    4814:	0e 94 9a 06 	call	0xd34	;  0xd34
    4818:	80 91 06 01 	lds	r24, 0x0106	;  0x800106
    481c:	1f 92       	push	r1
    481e:	8f 93       	push	r24
    4820:	87 ec       	ldi	r24, 0xC7	; 199
    4822:	93 e0       	ldi	r25, 0x03	; 3
    4824:	9f 93       	push	r25
    4826:	8f 93       	push	r24
    4828:	0e 94 33 07 	call	0xe66	;  0xe66
    482c:	85 ec       	ldi	r24, 0xC5	; 197
    482e:	93 e0       	ldi	r25, 0x03	; 3
    4830:	0e 94 9a 06 	call	0xd34	;  0xd34
    4834:	80 eb       	ldi	r24, 0xB0	; 176
    4836:	93 e0       	ldi	r25, 0x03	; 3
    4838:	0e 94 9a 06 	call	0xd34	;  0xd34
    483c:	80 91 03 01 	lds	r24, 0x0103	;  0x800103
    4840:	1f 92       	push	r1
    4842:	8f 93       	push	r24
    4844:	8d ea       	ldi	r24, 0xAD	; 173
    4846:	93 e0       	ldi	r25, 0x03	; 3
    4848:	9f 93       	push	r25
    484a:	8f 93       	push	r24
    484c:	0e 94 33 07 	call	0xe66	;  0xe66
    4850:	8b ea       	ldi	r24, 0xAB	; 171
    4852:	93 e0       	ldi	r25, 0x03	; 3
    4854:	0e 94 9a 06 	call	0xd34	;  0xd34
    4858:	84 e9       	ldi	r24, 0x94	; 148
    485a:	93 e0       	ldi	r25, 0x03	; 3
    485c:	0e 94 9a 06 	call	0xd34	;  0xd34
    4860:	80 91 02 01 	lds	r24, 0x0102	;  0x800102
    4864:	1f 92       	push	r1
    4866:	8f 93       	push	r24
    4868:	81 e9       	ldi	r24, 0x91	; 145
    486a:	93 e0       	ldi	r25, 0x03	; 3
    486c:	9f 93       	push	r25
    486e:	8f 93       	push	r24
    4870:	0e 94 33 07 	call	0xe66	;  0xe66
    4874:	8f e8       	ldi	r24, 0x8F	; 143
    4876:	93 e0       	ldi	r25, 0x03	; 3
    4878:	0e 94 9a 06 	call	0xd34	;  0xd34
    487c:	8d b7       	in	r24, 0x3d	; 61
    487e:	9e b7       	in	r25, 0x3e	; 62
    4880:	48 96       	adiw	r24, 0x18	; 24
    4882:	0f b6       	in	r0, 0x3f	; 63
    4884:	f8 94       	cli
    4886:	9e bf       	out	0x3e, r25	; 62
    4888:	0f be       	out	0x3f, r0	; 63
    488a:	8d bf       	out	0x3d, r24	; 61
    488c:	62 cf       	rjmp	.-316    	;  0x4752
    488e:	8c 2f       	mov	r24, r28
    4890:	0e 94 27 23 	call	0x464e	;  0x464e
    4894:	80 93 44 02 	sts	0x0244, r24	;  0x800244
    4898:	5c cf       	rjmp	.-328    	;  0x4752
    489a:	61 e0       	ldi	r22, 0x01	; 1
    489c:	80 91 44 02 	lds	r24, 0x0244	;  0x800244
    48a0:	0e 94 7e 1f 	call	0x3efc	;  0x3efc
    48a4:	56 cf       	rjmp	.-340    	;  0x4752
    48a6:	61 e0       	ldi	r22, 0x01	; 1
    48a8:	80 91 44 02 	lds	r24, 0x0244	;  0x800244
    48ac:	0e 94 22 20 	call	0x4044	;  0x4044
    48b0:	50 cf       	rjmp	.-352    	;  0x4752
    48b2:	6a e0       	ldi	r22, 0x0A	; 10
    48b4:	f3 cf       	rjmp	.-26     	;  0x489c
    48b6:	8e e1       	ldi	r24, 0x1E	; 30
    48b8:	80 93 09 01 	sts	0x0109, r24	;  0x800109
    48bc:	82 e3       	ldi	r24, 0x32	; 50
    48be:	80 93 08 01 	sts	0x0108, r24	;  0x800108
    48c2:	8a e0       	ldi	r24, 0x0A	; 10
    48c4:	80 93 07 01 	sts	0x0107, r24	;  0x800107
    48c8:	84 e1       	ldi	r24, 0x14	; 20
    48ca:	80 93 06 01 	sts	0x0106, r24	;  0x800106
    48ce:	88 e0       	ldi	r24, 0x08	; 8
    48d0:	80 93 03 01 	sts	0x0103, r24	;  0x800103
    48d4:	88 e2       	ldi	r24, 0x28	; 40
    48d6:	80 93 02 01 	sts	0x0102, r24	;  0x800102
    48da:	86 e3       	ldi	r24, 0x36	; 54
    48dc:	94 e0       	ldi	r25, 0x04	; 4
    48de:	0e 94 9a 06 	call	0xd34	;  0xd34
    48e2:	37 cf       	rjmp	.-402    	;  0x4752
    48e4:	8b e2       	ldi	r24, 0x2B	; 43
    48e6:	94 e0       	ldi	r25, 0x04	; 4
    48e8:	1c cf       	rjmp	.-456    	;  0x4722
    48ea:	80 91 51 02 	lds	r24, 0x0251	;  0x800251
    48ee:	08 95       	ret
    48f0:	9f b7       	in	r25, 0x3f	; 63
    48f2:	f8 94       	cli
    48f4:	10 92 48 02 	sts	0x0248, r1	;  0x800248
    48f8:	9f bf       	out	0x3f, r25	; 63
    48fa:	90 91 6a 02 	lds	r25, 0x026A	;  0x80026a
    48fe:	94 30       	cpi	r25, 0x04	; 4
    4900:	09 f0       	breq	.+2      	;  0x4904
    4902:	48 c0       	rjmp	.+144    	;  0x4994
    4904:	20 91 e9 00 	lds	r18, 0x00E9	;  0x8000e9
    4908:	2f 70       	andi	r18, 0x0F	; 15
    490a:	30 91 ec 00 	lds	r19, 0x00EC	;  0x8000ec
    490e:	93 2f       	mov	r25, r19
    4910:	91 70       	andi	r25, 0x01	; 1
    4912:	30 fd       	sbrc	r19, 0
    4914:	90 e8       	ldi	r25, 0x80	; 128
    4916:	92 2b       	or	r25, r18
    4918:	23 e0       	ldi	r18, 0x03	; 3
    491a:	20 93 e9 00 	sts	0x00E9, r18	;  0x8000e9
    491e:	20 91 eb 00 	lds	r18, 0x00EB	;  0x8000eb
    4922:	20 ff       	sbrs	r18, 0
    4924:	34 c0       	rjmp	.+104    	;  0x498e
    4926:	20 91 ee 00 	lds	r18, 0x00EE	;  0x8000ee
    492a:	27 ff       	sbrs	r18, 7
    492c:	30 c0       	rjmp	.+96     	;  0x498e
    492e:	20 91 46 02 	lds	r18, 0x0246	;  0x800246
    4932:	22 23       	and	r18, r18
    4934:	21 f0       	breq	.+8      	;  0x493e
    4936:	20 91 e8 00 	lds	r18, 0x00E8	;  0x8000e8
    493a:	25 ff       	sbrs	r18, 5
    493c:	28 c0       	rjmp	.+80     	;  0x498e
    493e:	10 92 46 02 	sts	0x0246, r1	;  0x800246
    4942:	26 e0       	ldi	r18, 0x06	; 6
    4944:	30 91 e8 00 	lds	r19, 0x00E8	;  0x8000e8
    4948:	35 ff       	sbrs	r19, 5
    494a:	14 c0       	rjmp	.+40     	;  0x4974
    494c:	80 93 f1 00 	sts	0x00F1, r24	;  0x8000f1
    4950:	80 91 e8 00 	lds	r24, 0x00E8	;  0x8000e8
    4954:	85 fd       	sbrc	r24, 5
    4956:	27 c0       	rjmp	.+78     	;  0x49a6
    4958:	80 91 e8 00 	lds	r24, 0x00E8	;  0x8000e8
    495c:	80 ff       	sbrs	r24, 0
    495e:	fc cf       	rjmp	.-8      	;  0x4958
    4960:	80 91 e8 00 	lds	r24, 0x00E8	;  0x8000e8
    4964:	8e 77       	andi	r24, 0x7E	; 126
    4966:	80 93 e8 00 	sts	0x00E8, r24	;  0x8000e8
    496a:	9f 70       	andi	r25, 0x0F	; 15
    496c:	90 93 e9 00 	sts	0x00E9, r25	;  0x8000e9
    4970:	80 e0       	ldi	r24, 0x00	; 0
    4972:	08 95       	ret
    4974:	30 91 6a 02 	lds	r19, 0x026A	;  0x80026a
    4978:	34 30       	cpi	r19, 0x04	; 4
    497a:	49 f4       	brne	.+18     	;  0x498e
    497c:	30 91 eb 00 	lds	r19, 0x00EB	;  0x8000eb
    4980:	35 fd       	sbrc	r19, 5
    4982:	05 c0       	rjmp	.+10     	;  0x498e
    4984:	21 50       	subi	r18, 0x01	; 1
    4986:	41 f4       	brne	.+16     	;  0x4998
    4988:	81 e0       	ldi	r24, 0x01	; 1
    498a:	80 93 46 02 	sts	0x0246, r24	;  0x800246
    498e:	9f 70       	andi	r25, 0x0F	; 15
    4990:	90 93 e9 00 	sts	0x00E9, r25	;  0x8000e9
    4994:	8f ef       	ldi	r24, 0xFF	; 255
    4996:	08 95       	ret
    4998:	ef e9       	ldi	r30, 0x9F	; 159
    499a:	ff e0       	ldi	r31, 0x0F	; 15
    499c:	31 97       	sbiw	r30, 0x01	; 1
    499e:	f1 f7       	brne	.-4      	;  0x499c
    49a0:	00 c0       	rjmp	.+0      	;  0x49a2
    49a2:	00 00       	nop
    49a4:	cf cf       	rjmp	.-98     	;  0x4944
    49a6:	8f b7       	in	r24, 0x3f	; 63
    49a8:	f8 94       	cli
    49aa:	21 e0       	ldi	r18, 0x01	; 1
    49ac:	20 93 48 02 	sts	0x0248, r18	;  0x800248
    49b0:	8f bf       	out	0x3f, r24	; 63
    49b2:	db cf       	rjmp	.-74     	;  0x496a
    49b4:	cf 93       	push	r28
    49b6:	df 93       	push	r29
    49b8:	00 d0       	rcall	.+0      	;  0x49ba
    49ba:	0f 92       	push	r0
    49bc:	cd b7       	in	r28, 0x3d	; 61
    49be:	de b7       	in	r29, 0x3e	; 62
    49c0:	90 91 6a 02 	lds	r25, 0x026A	;  0x80026a
    49c4:	94 30       	cpi	r25, 0x04	; 4
    49c6:	19 f5       	brne	.+70     	;  0x4a0e
    49c8:	89 83       	std	Y+1, r24	; 0x01
    49ca:	7b 83       	std	Y+3, r23	; 0x03
    49cc:	6a 83       	std	Y+2, r22	; 0x02
    49ce:	82 e0       	ldi	r24, 0x02	; 2
    49d0:	80 93 e9 00 	sts	0x00E9, r24	;  0x8000e9
    49d4:	8f ef       	ldi	r24, 0xFF	; 255
    49d6:	90 91 e8 00 	lds	r25, 0x00E8	;  0x8000e8
    49da:	81 50       	subi	r24, 0x01	; 1
    49dc:	95 fd       	sbrc	r25, 5
    49de:	06 c0       	rjmp	.+12     	;  0x49ec
    49e0:	95 ed       	ldi	r25, 0xD5	; 213
    49e2:	9a 95       	dec	r25
    49e4:	f1 f7       	brne	.-4      	;  0x49e2
    49e6:	00 00       	nop
    49e8:	81 11       	cpse	r24, r1
    49ea:	f5 cf       	rjmp	.-22     	;  0x49d6
    49ec:	80 91 e8 00 	lds	r24, 0x00E8	;  0x8000e8
    49f0:	85 ff       	sbrs	r24, 5
    49f2:	0d c0       	rjmp	.+26     	;  0x4a0e
    49f4:	50 e0       	ldi	r21, 0x00	; 0
    49f6:	40 e0       	ldi	r20, 0x00	; 0
    49f8:	63 e0       	ldi	r22, 0x03	; 3
    49fa:	70 e0       	ldi	r23, 0x00	; 0
    49fc:	ce 01       	movw	r24, r28
    49fe:	01 96       	adiw	r24, 0x01	; 1
    4a00:	0e 94 7e 27 	call	0x4efc	;  0x4efc
    4a04:	80 91 e8 00 	lds	r24, 0x00E8	;  0x8000e8
    4a08:	8e 77       	andi	r24, 0x7E	; 126
    4a0a:	80 93 e8 00 	sts	0x00E8, r24	;  0x8000e8
    4a0e:	0f 90       	pop	r0
    4a10:	0f 90       	pop	r0
    4a12:	0f 90       	pop	r0
    4a14:	df 91       	pop	r29
    4a16:	cf 91       	pop	r28
    4a18:	08 95       	ret
    4a1a:	cf 93       	push	r28
    4a1c:	df 93       	push	r29
    4a1e:	ec 01       	movw	r28, r24
    4a20:	0e 94 61 27 	call	0x4ec2	;  0x4ec2
    4a24:	82 30       	cpi	r24, 0x02	; 2
    4a26:	11 f0       	breq	.+4      	;  0x4a2c
    4a28:	84 30       	cpi	r24, 0x04	; 4
    4a2a:	31 f4       	brne	.+12     	;  0x4a38
    4a2c:	be 01       	movw	r22, r28
    4a2e:	84 e0       	ldi	r24, 0x04	; 4
    4a30:	df 91       	pop	r29
    4a32:	cf 91       	pop	r28
    4a34:	0c 94 da 24 	jmp	0x49b4	;  0x49b4
    4a38:	df 91       	pop	r29
    4a3a:	cf 91       	pop	r28
    4a3c:	08 95       	ret
    4a3e:	bc 01       	movw	r22, r24
    4a40:	83 e0       	ldi	r24, 0x03	; 3
    4a42:	0c 94 da 24 	jmp	0x49b4	;  0x49b4
    4a46:	cf 93       	push	r28
    4a48:	df 93       	push	r29
    4a4a:	ec 01       	movw	r28, r24
    4a4c:	0e 94 61 27 	call	0x4ec2	;  0x4ec2
    4a50:	82 30       	cpi	r24, 0x02	; 2
    4a52:	11 f0       	breq	.+4      	;  0x4a58
    4a54:	84 30       	cpi	r24, 0x04	; 4
    4a56:	f9 f4       	brne	.+62     	;  0x4a96
    4a58:	82 e0       	ldi	r24, 0x02	; 2
    4a5a:	80 93 e9 00 	sts	0x00E9, r24	;  0x8000e9
    4a5e:	8f ef       	ldi	r24, 0xFF	; 255
    4a60:	90 91 e8 00 	lds	r25, 0x00E8	;  0x8000e8
    4a64:	81 50       	subi	r24, 0x01	; 1
    4a66:	95 fd       	sbrc	r25, 5
    4a68:	06 c0       	rjmp	.+12     	;  0x4a76
    4a6a:	95 ed       	ldi	r25, 0xD5	; 213
    4a6c:	9a 95       	dec	r25
    4a6e:	f1 f7       	brne	.-4      	;  0x4a6c
    4a70:	00 00       	nop
    4a72:	81 11       	cpse	r24, r1
    4a74:	f5 cf       	rjmp	.-22     	;  0x4a60
    4a76:	80 91 e8 00 	lds	r24, 0x00E8	;  0x8000e8
    4a7a:	85 ff       	sbrs	r24, 5
    4a7c:	0c c0       	rjmp	.+24     	;  0x4a96
    4a7e:	50 e0       	ldi	r21, 0x00	; 0
    4a80:	40 e0       	ldi	r20, 0x00	; 0
    4a82:	66 e0       	ldi	r22, 0x06	; 6
    4a84:	70 e0       	ldi	r23, 0x00	; 0
    4a86:	ce 01       	movw	r24, r28
    4a88:	0e 94 7e 27 	call	0x4efc	;  0x4efc
    4a8c:	80 91 e8 00 	lds	r24, 0x00E8	;  0x8000e8
    4a90:	8e 77       	andi	r24, 0x7E	; 126
    4a92:	80 93 e8 00 	sts	0x00E8, r24	;  0x8000e8
    4a96:	df 91       	pop	r29
    4a98:	cf 91       	pop	r28
    4a9a:	08 95       	ret
    4a9c:	cf 93       	push	r28
    4a9e:	df 93       	push	r29
    4aa0:	ec 01       	movw	r28, r24
    4aa2:	0e 94 61 27 	call	0x4ec2	;  0x4ec2
    4aa6:	82 30       	cpi	r24, 0x02	; 2
    4aa8:	11 f0       	breq	.+4      	;  0x4aae
    4aaa:	84 30       	cpi	r24, 0x04	; 4
    4aac:	39 f5       	brne	.+78     	;  0x4afc
    4aae:	81 e0       	ldi	r24, 0x01	; 1
    4ab0:	80 93 e9 00 	sts	0x00E9, r24	;  0x8000e9
    4ab4:	8f ef       	ldi	r24, 0xFF	; 255
    4ab6:	90 91 e8 00 	lds	r25, 0x00E8	;  0x8000e8
    4aba:	81 50       	subi	r24, 0x01	; 1
    4abc:	95 fd       	sbrc	r25, 5
    4abe:	06 c0       	rjmp	.+12     	;  0x4acc
    4ac0:	95 ed       	ldi	r25, 0xD5	; 213
    4ac2:	9a 95       	dec	r25
    4ac4:	f1 f7       	brne	.-4      	;  0x4ac2
    4ac6:	00 00       	nop
    4ac8:	81 11       	cpse	r24, r1
    4aca:	f5 cf       	rjmp	.-22     	;  0x4ab6
    4acc:	80 91 e8 00 	lds	r24, 0x00E8	;  0x8000e8
    4ad0:	85 ff       	sbrs	r24, 5
    4ad2:	14 c0       	rjmp	.+40     	;  0x4afc
    4ad4:	50 e0       	ldi	r21, 0x00	; 0
    4ad6:	40 e0       	ldi	r20, 0x00	; 0
    4ad8:	68 e0       	ldi	r22, 0x08	; 8
    4ada:	70 e0       	ldi	r23, 0x00	; 0
    4adc:	ce 01       	movw	r24, r28
    4ade:	0e 94 7e 27 	call	0x4efc	;  0x4efc
    4ae2:	80 91 e8 00 	lds	r24, 0x00E8	;  0x8000e8
    4ae6:	8e 77       	andi	r24, 0x7E	; 126
    4ae8:	80 93 e8 00 	sts	0x00E8, r24	;  0x8000e8
    4aec:	88 e0       	ldi	r24, 0x08	; 8
    4aee:	fe 01       	movw	r30, r28
    4af0:	a9 e4       	ldi	r26, 0x49	; 73
    4af2:	b2 e0       	ldi	r27, 0x02	; 2
    4af4:	01 90       	ld	r0, Z+
    4af6:	0d 92       	st	X+, r0
    4af8:	8a 95       	dec	r24
    4afa:	e1 f7       	brne	.-8      	;  0x4af4
    4afc:	df 91       	pop	r29
    4afe:	cf 91       	pop	r28
    4b00:	08 95       	ret
    4b02:	89 e0       	ldi	r24, 0x09	; 9
    4b04:	9b e0       	ldi	r25, 0x0B	; 11
    4b06:	0e 94 9a 06 	call	0xd34	;  0xd34
    4b0a:	80 91 69 02 	lds	r24, 0x0269	;  0x800269
    4b0e:	81 11       	cpse	r24, r1
    4b10:	09 c0       	rjmp	.+18     	;  0x4b24
    4b12:	0e 94 0e 29 	call	0x521c	;  0x521c
    4b16:	0e 94 6b 29 	call	0x52d6	;  0x52d6
    4b1a:	80 91 e2 00 	lds	r24, 0x00E2	;  0x8000e2
    4b1e:	84 60       	ori	r24, 0x04	; 4
    4b20:	80 93 e2 00 	sts	0x00E2, r24	;  0x8000e2
    4b24:	08 95       	ret
    4b26:	85 e0       	ldi	r24, 0x05	; 5
    4b28:	9b e0       	ldi	r25, 0x0B	; 11
    4b2a:	0e 94 9a 06 	call	0xd34	;  0xd34
    4b2e:	10 92 69 02 	sts	0x0269, r1	;  0x800269
    4b32:	08 95       	ret
    4b34:	81 e0       	ldi	r24, 0x01	; 1
    4b36:	9b e0       	ldi	r25, 0x0B	; 11
    4b38:	0c 94 9a 06 	jmp	0xd34	;  0xd34
    4b3c:	8d ef       	ldi	r24, 0xFD	; 253
    4b3e:	9a e0       	ldi	r25, 0x0A	; 10
    4b40:	0c 94 9a 06 	jmp	0xd34	;  0xd34
    4b44:	89 ef       	ldi	r24, 0xF9	; 249
    4b46:	9a e0       	ldi	r25, 0x0A	; 10
    4b48:	0e 94 9a 06 	call	0xd34	;  0xd34
    4b4c:	0c 94 88 1b 	jmp	0x3710	;  0x3710
    4b50:	20 91 47 02 	lds	r18, 0x0247	;  0x800247
    4b54:	2f 5f       	subi	r18, 0xFF	; 255
    4b56:	82 2f       	mov	r24, r18
    4b58:	62 e3       	ldi	r22, 0x32	; 50
    4b5a:	0e 94 0e 2c 	call	0x581c	;  0x581c
    4b5e:	99 23       	and	r25, r25
    4b60:	19 f0       	breq	.+6      	;  0x4b68
    4b62:	20 93 47 02 	sts	0x0247, r18	;  0x800247
    4b66:	08 95       	ret
    4b68:	10 92 47 02 	sts	0x0247, r1	;  0x800247
    4b6c:	80 91 48 02 	lds	r24, 0x0248	;  0x800248
    4b70:	88 23       	and	r24, r24
    4b72:	f1 f0       	breq	.+60     	;  0x4bb0
    4b74:	80 91 6a 02 	lds	r24, 0x026A	;  0x80026a
    4b78:	84 30       	cpi	r24, 0x04	; 4
    4b7a:	c1 f4       	brne	.+48     	;  0x4bac
    4b7c:	90 91 e9 00 	lds	r25, 0x00E9	;  0x8000e9
    4b80:	9f 70       	andi	r25, 0x0F	; 15
    4b82:	20 91 ec 00 	lds	r18, 0x00EC	;  0x8000ec
    4b86:	82 2f       	mov	r24, r18
    4b88:	81 70       	andi	r24, 0x01	; 1
    4b8a:	20 fd       	sbrc	r18, 0
    4b8c:	80 e8       	ldi	r24, 0x80	; 128
    4b8e:	89 2b       	or	r24, r25
    4b90:	93 e0       	ldi	r25, 0x03	; 3
    4b92:	90 93 e9 00 	sts	0x00E9, r25	;  0x8000e9
    4b96:	90 91 eb 00 	lds	r25, 0x00EB	;  0x8000eb
    4b9a:	90 ff       	sbrs	r25, 0
    4b9c:	04 c0       	rjmp	.+8      	;  0x4ba6
    4b9e:	90 91 ee 00 	lds	r25, 0x00EE	;  0x8000ee
    4ba2:	97 fd       	sbrc	r25, 7
    4ba4:	08 c0       	rjmp	.+16     	;  0x4bb6
    4ba6:	8f 70       	andi	r24, 0x0F	; 15
    4ba8:	80 93 e9 00 	sts	0x00E9, r24	;  0x8000e9
    4bac:	10 92 48 02 	sts	0x0248, r1	;  0x800248
    4bb0:	08 95       	ret
    4bb2:	10 92 f1 00 	sts	0x00F1, r1	;  0x8000f1
    4bb6:	90 91 e8 00 	lds	r25, 0x00E8	;  0x8000e8
    4bba:	95 fd       	sbrc	r25, 5
    4bbc:	fa cf       	rjmp	.-12     	;  0x4bb2
    4bbe:	90 91 e8 00 	lds	r25, 0x00E8	;  0x8000e8
    4bc2:	90 ff       	sbrs	r25, 0
    4bc4:	f0 cf       	rjmp	.-32     	;  0x4ba6
    4bc6:	90 91 e8 00 	lds	r25, 0x00E8	;  0x8000e8
    4bca:	9e 77       	andi	r25, 0x7E	; 126
    4bcc:	90 93 e8 00 	sts	0x00E8, r25	;  0x8000e8
    4bd0:	ea cf       	rjmp	.-44     	;  0x4ba6
    4bd2:	42 e0       	ldi	r20, 0x02	; 2
    4bd4:	61 ec       	ldi	r22, 0xC1	; 193
    4bd6:	81 e0       	ldi	r24, 0x01	; 1
    4bd8:	0e 94 8a 28 	call	0x5114	;  0x5114
    4bdc:	42 e2       	ldi	r20, 0x22	; 34
    4bde:	61 ec       	ldi	r22, 0xC1	; 193
    4be0:	82 e0       	ldi	r24, 0x02	; 2
    4be2:	0e 94 8a 28 	call	0x5114	;  0x5114
    4be6:	42 e2       	ldi	r20, 0x22	; 34
    4be8:	61 ec       	ldi	r22, 0xC1	; 193
    4bea:	83 e0       	ldi	r24, 0x03	; 3
    4bec:	0c 94 8a 28 	jmp	0x5114	;  0x5114
    4bf0:	80 91 6c 02 	lds	r24, 0x026C	;  0x80026c
    4bf4:	83 30       	cpi	r24, 0x03	; 3
    4bf6:	09 f4       	brne	.+2      	;  0x4bfa
    4bf8:	5f c0       	rjmp	.+190    	;  0x4cb8
    4bfa:	30 f4       	brcc	.+12     	;  0x4c08
    4bfc:	81 30       	cpi	r24, 0x01	; 1
    4bfe:	c1 f1       	breq	.+112    	;  0x4c70
    4c00:	82 30       	cpi	r24, 0x02	; 2
    4c02:	09 f4       	brne	.+2      	;  0x4c06
    4c04:	9b c0       	rjmp	.+310    	;  0x4d3c
    4c06:	08 95       	ret
    4c08:	8a 30       	cpi	r24, 0x0A	; 10
    4c0a:	09 f4       	brne	.+2      	;  0x4c0e
    4c0c:	87 c0       	rjmp	.+270    	;  0x4d1c
    4c0e:	8b 30       	cpi	r24, 0x0B	; 11
    4c10:	09 f4       	brne	.+2      	;  0x4c14
    4c12:	6d c0       	rjmp	.+218    	;  0x4cee
    4c14:	89 30       	cpi	r24, 0x09	; 9
    4c16:	09 f0       	breq	.+2      	;  0x4c1a
    4c18:	4e c0       	rjmp	.+156    	;  0x4cb6
    4c1a:	80 91 6b 02 	lds	r24, 0x026B	;  0x80026b
    4c1e:	81 32       	cpi	r24, 0x21	; 33
    4c20:	09 f0       	breq	.+2      	;  0x4c24
    4c22:	49 c0       	rjmp	.+146    	;  0x4cb6
    4c24:	80 91 6f 02 	lds	r24, 0x026F	;  0x80026f
    4c28:	90 91 70 02 	lds	r25, 0x0270	;  0x800270
    4c2c:	02 97       	sbiw	r24, 0x02	; 2
    4c2e:	08 f0       	brcs	.+2      	;  0x4c32
    4c30:	42 c0       	rjmp	.+132    	;  0x4cb6
    4c32:	80 91 e8 00 	lds	r24, 0x00E8	;  0x8000e8
    4c36:	87 7f       	andi	r24, 0xF7	; 247
    4c38:	80 93 e8 00 	sts	0x00E8, r24	;  0x8000e8
    4c3c:	80 91 e8 00 	lds	r24, 0x00E8	;  0x8000e8
    4c40:	82 ff       	sbrs	r24, 2
    4c42:	35 c0       	rjmp	.+106    	;  0x4cae
    4c44:	90 91 f3 00 	lds	r25, 0x00F3	;  0x8000f3
    4c48:	80 91 f2 00 	lds	r24, 0x00F2	;  0x8000f2
    4c4c:	02 97       	sbiw	r24, 0x02	; 2
    4c4e:	29 f4       	brne	.+10     	;  0x4c5a
    4c50:	80 91 f1 00 	lds	r24, 0x00F1	;  0x8000f1
    4c54:	8b 7f       	andi	r24, 0xFB	; 251
    4c56:	81 30       	cpi	r24, 0x01	; 1
    4c58:	21 f4       	brne	.+8      	;  0x4c62
    4c5a:	80 91 f1 00 	lds	r24, 0x00F1	;  0x8000f1
    4c5e:	80 93 51 02 	sts	0x0251, r24	;  0x800251
    4c62:	80 91 e8 00 	lds	r24, 0x00E8	;  0x8000e8
    4c66:	8b 77       	andi	r24, 0x7B	; 123
    4c68:	80 93 e8 00 	sts	0x00E8, r24	;  0x8000e8
    4c6c:	0c 94 be 28 	jmp	0x517c	;  0x517c
    4c70:	80 91 6b 02 	lds	r24, 0x026B	;  0x80026b
    4c74:	81 3a       	cpi	r24, 0xA1	; 161
    4c76:	f9 f4       	brne	.+62     	;  0x4cb6
    4c78:	80 91 e8 00 	lds	r24, 0x00E8	;  0x8000e8
    4c7c:	87 7f       	andi	r24, 0xF7	; 247
    4c7e:	80 93 e8 00 	sts	0x00E8, r24	;  0x8000e8
    4c82:	80 91 6f 02 	lds	r24, 0x026F	;  0x80026f
    4c86:	90 91 70 02 	lds	r25, 0x0270	;  0x800270
    4c8a:	89 2b       	or	r24, r25
    4c8c:	61 f4       	brne	.+24     	;  0x4ca6
    4c8e:	68 e0       	ldi	r22, 0x08	; 8
    4c90:	89 e4       	ldi	r24, 0x49	; 73
    4c92:	92 e0       	ldi	r25, 0x02	; 2
    4c94:	70 e0       	ldi	r23, 0x00	; 0
    4c96:	0e 94 cd 27 	call	0x4f9a	;  0x4f9a
    4c9a:	80 91 e8 00 	lds	r24, 0x00E8	;  0x8000e8
    4c9e:	8b 77       	andi	r24, 0x7B	; 123
    4ca0:	80 93 e8 00 	sts	0x00E8, r24	;  0x8000e8
    4ca4:	08 95       	ret
    4ca6:	60 e0       	ldi	r22, 0x00	; 0
    4ca8:	90 e0       	ldi	r25, 0x00	; 0
    4caa:	80 e0       	ldi	r24, 0x00	; 0
    4cac:	f3 cf       	rjmp	.-26     	;  0x4c94
    4cae:	80 91 6a 02 	lds	r24, 0x026A	;  0x80026a
    4cb2:	81 11       	cpse	r24, r1
    4cb4:	c3 cf       	rjmp	.-122    	;  0x4c3c
    4cb6:	08 95       	ret
    4cb8:	80 91 6b 02 	lds	r24, 0x026B	;  0x80026b
    4cbc:	81 3a       	cpi	r24, 0xA1	; 161
    4cbe:	d9 f7       	brne	.-10     	;  0x4cb6
    4cc0:	80 91 6f 02 	lds	r24, 0x026F	;  0x80026f
    4cc4:	90 91 70 02 	lds	r25, 0x0270	;  0x800270
    4cc8:	89 2b       	or	r24, r25
    4cca:	a9 f7       	brne	.-22     	;  0x4cb6
    4ccc:	80 91 e8 00 	lds	r24, 0x00E8	;  0x8000e8
    4cd0:	87 7f       	andi	r24, 0xF7	; 247
    4cd2:	80 93 e8 00 	sts	0x00E8, r24	;  0x8000e8
    4cd6:	80 91 e8 00 	lds	r24, 0x00E8	;  0x8000e8
    4cda:	80 ff       	sbrs	r24, 0
    4cdc:	fc cf       	rjmp	.-8      	;  0x4cd6
    4cde:	80 91 14 01 	lds	r24, 0x0114	;  0x800114
    4ce2:	80 93 f1 00 	sts	0x00F1, r24	;  0x8000f1
    4ce6:	80 91 e8 00 	lds	r24, 0x00E8	;  0x8000e8
    4cea:	8e 77       	andi	r24, 0x7E	; 126
    4cec:	bd cf       	rjmp	.-134    	;  0x4c68
    4cee:	80 91 6b 02 	lds	r24, 0x026B	;  0x80026b
    4cf2:	81 32       	cpi	r24, 0x21	; 33
    4cf4:	01 f7       	brne	.-64     	;  0x4cb6
    4cf6:	80 91 6f 02 	lds	r24, 0x026F	;  0x80026f
    4cfa:	90 91 70 02 	lds	r25, 0x0270	;  0x800270
    4cfe:	89 2b       	or	r24, r25
    4d00:	d1 f6       	brne	.-76     	;  0x4cb6
    4d02:	80 91 e8 00 	lds	r24, 0x00E8	;  0x8000e8
    4d06:	87 7f       	andi	r24, 0xF7	; 247
    4d08:	80 93 e8 00 	sts	0x00E8, r24	;  0x8000e8
    4d0c:	0e 94 be 28 	call	0x517c	;  0x517c
    4d10:	80 91 6d 02 	lds	r24, 0x026D	;  0x80026d
    4d14:	80 93 14 01 	sts	0x0114, r24	;  0x800114
    4d18:	0c 94 f5 13 	jmp	0x27ea	;  0x27ea
    4d1c:	80 91 6b 02 	lds	r24, 0x026B	;  0x80026b
    4d20:	81 32       	cpi	r24, 0x21	; 33
    4d22:	49 f6       	brne	.-110    	;  0x4cb6
    4d24:	80 91 e8 00 	lds	r24, 0x00E8	;  0x8000e8
    4d28:	87 7f       	andi	r24, 0xF7	; 247
    4d2a:	80 93 e8 00 	sts	0x00E8, r24	;  0x8000e8
    4d2e:	0e 94 be 28 	call	0x517c	;  0x517c
    4d32:	80 91 6e 02 	lds	r24, 0x026E	;  0x80026e
    4d36:	80 93 52 02 	sts	0x0252, r24	;  0x800252
    4d3a:	08 95       	ret
    4d3c:	80 91 6b 02 	lds	r24, 0x026B	;  0x80026b
    4d40:	81 3a       	cpi	r24, 0xA1	; 161
    4d42:	09 f0       	breq	.+2      	;  0x4d46
    4d44:	b8 cf       	rjmp	.-144    	;  0x4cb6
    4d46:	80 91 e8 00 	lds	r24, 0x00E8	;  0x8000e8
    4d4a:	87 7f       	andi	r24, 0xF7	; 247
    4d4c:	80 93 e8 00 	sts	0x00E8, r24	;  0x8000e8
    4d50:	80 91 e8 00 	lds	r24, 0x00E8	;  0x8000e8
    4d54:	80 ff       	sbrs	r24, 0
    4d56:	fc cf       	rjmp	.-8      	;  0x4d50
    4d58:	80 91 52 02 	lds	r24, 0x0252	;  0x800252
    4d5c:	c2 cf       	rjmp	.-124    	;  0x4ce2
    4d5e:	84 b7       	in	r24, 0x34	; 52
    4d60:	87 7f       	andi	r24, 0xF7	; 247
    4d62:	84 bf       	out	0x34, r24	; 52
    4d64:	0f b6       	in	r0, 0x3f	; 63
    4d66:	f8 94       	cli
    4d68:	a8 95       	wdr
    4d6a:	80 91 60 00 	lds	r24, 0x0060	;  0x800060
    4d6e:	88 61       	ori	r24, 0x18	; 24
    4d70:	80 93 60 00 	sts	0x0060, r24	;  0x800060
    4d74:	10 92 60 00 	sts	0x0060, r1	;  0x800060
    4d78:	0f be       	out	0x3f, r0	; 63
    4d7a:	80 e8       	ldi	r24, 0x80	; 128
    4d7c:	90 e0       	ldi	r25, 0x00	; 0
    4d7e:	0f b6       	in	r0, 0x3f	; 63
    4d80:	f8 94       	cli
    4d82:	80 93 61 00 	sts	0x0061, r24	;  0x800061
    4d86:	90 93 61 00 	sts	0x0061, r25	;  0x800061
    4d8a:	0f be       	out	0x3f, r0	; 63
    4d8c:	0e 94 52 0f 	call	0x1ea4	;  0x1ea4
    4d90:	0e 94 0e 29 	call	0x521c	;  0x521c
    4d94:	0e 94 6b 29 	call	0x52d6	;  0x52d6
    4d98:	80 91 e2 00 	lds	r24, 0x00E2	;  0x8000e2
    4d9c:	84 60       	ori	r24, 0x04	; 4
    4d9e:	80 93 e2 00 	sts	0x00E2, r24	;  0x8000e2
    4da2:	88 e7       	ldi	r24, 0x78	; 120
    4da4:	94 e2       	ldi	r25, 0x24	; 36
    4da6:	0e 94 22 1a 	call	0x3444	;  0x3444
    4daa:	78 94       	sei
    4dac:	0e 94 f3 2b 	call	0x57e6	;  0x57e6
    4db0:	0e 94 5c 0f 	call	0x1eb8	;  0x1eb8
    4db4:	8a e0       	ldi	r24, 0x0A	; 10
    4db6:	91 e0       	ldi	r25, 0x01	; 1
    4db8:	0e 94 ad 0e 	call	0x1d5a	;  0x1d5a
    4dbc:	88 ee       	ldi	r24, 0xE8	; 232
    4dbe:	9a e0       	ldi	r25, 0x0A	; 10
    4dc0:	0e 94 9a 06 	call	0xd34	;  0xd34
    4dc4:	80 91 6a 02 	lds	r24, 0x026A	;  0x80026a
    4dc8:	85 30       	cpi	r24, 0x05	; 5
    4dca:	19 f0       	breq	.+6      	;  0x4dd2
    4dcc:	0e 94 8c 0f 	call	0x1f18	;  0x1f18
    4dd0:	f9 cf       	rjmp	.-14     	;  0x4dc4
    4dd2:	84 ee       	ldi	r24, 0xE4	; 228
    4dd4:	9a e0       	ldi	r25, 0x0A	; 10
    4dd6:	0e 94 9a 06 	call	0xd34	;  0xd34
    4dda:	0e 94 40 1b 	call	0x3680	;  0x3680
    4dde:	80 91 68 02 	lds	r24, 0x0268	;  0x800268
    4de2:	88 23       	and	r24, r24
    4de4:	79 f3       	breq	.-34     	;  0x4dc4
    4de6:	0e 94 71 1b 	call	0x36e2	;  0x36e2
    4dea:	88 23       	and	r24, r24
    4dec:	59 f3       	breq	.-42     	;  0x4dc4
    4dee:	0e 94 68 27 	call	0x4ed0	;  0x4ed0
    4df2:	e8 cf       	rjmp	.-48     	;  0x4dc4
    4df4:	0c 94 fc 26 	jmp	0x4df8	;  0x4df8
    4df8:	29 2f       	mov	r18, r25
    4dfa:	33 27       	eor	r19, r19
    4dfc:	23 30       	cpi	r18, 0x03	; 3
    4dfe:	31 05       	cpc	r19, r1
    4e00:	21 f1       	breq	.+72     	;  0x4e4a
    4e02:	68 f4       	brcc	.+26     	;  0x4e1e
    4e04:	21 30       	cpi	r18, 0x01	; 1
    4e06:	31 05       	cpc	r19, r1
    4e08:	09 f4       	brne	.+2      	;  0x4e0c
    4e0a:	49 c0       	rjmp	.+146    	;  0x4e9e
    4e0c:	22 30       	cpi	r18, 0x02	; 2
    4e0e:	31 05       	cpc	r19, r1
    4e10:	09 f4       	brne	.+2      	;  0x4e14
    4e12:	4a c0       	rjmp	.+148    	;  0x4ea8
    4e14:	90 e0       	ldi	r25, 0x00	; 0
    4e16:	80 e0       	ldi	r24, 0x00	; 0
    4e18:	30 e0       	ldi	r19, 0x00	; 0
    4e1a:	20 e0       	ldi	r18, 0x00	; 0
    4e1c:	29 c0       	rjmp	.+82     	;  0x4e70
    4e1e:	21 32       	cpi	r18, 0x21	; 33
    4e20:	31 05       	cpc	r19, r1
    4e22:	81 f1       	breq	.+96     	;  0x4e84
    4e24:	22 32       	cpi	r18, 0x22	; 34
    4e26:	31 05       	cpc	r19, r1
    4e28:	a9 f7       	brne	.-22     	;  0x4e14
    4e2a:	63 30       	cpi	r22, 0x03	; 3
    4e2c:	71 05       	cpc	r23, r1
    4e2e:	90 f7       	brcc	.-28     	;  0x4e14
    4e30:	fb 01       	movw	r30, r22
    4e32:	ee 0f       	add	r30, r30
    4e34:	ff 1f       	adc	r31, r31
    4e36:	ea 54       	subi	r30, 0x4A	; 74
    4e38:	fe 4f       	sbci	r31, 0xFE	; 254
    4e3a:	20 81       	ld	r18, Z
    4e3c:	31 81       	ldd	r19, Z+1	; 0x01
    4e3e:	6d 54       	subi	r22, 0x4D	; 77
    4e40:	7e 4f       	sbci	r23, 0xFE	; 254
    4e42:	fb 01       	movw	r30, r22
    4e44:	80 81       	ld	r24, Z
    4e46:	90 e0       	ldi	r25, 0x00	; 0
    4e48:	13 c0       	rjmp	.+38     	;  0x4e70
    4e4a:	99 27       	eor	r25, r25
    4e4c:	81 30       	cpi	r24, 0x01	; 1
    4e4e:	91 05       	cpc	r25, r1
    4e50:	99 f0       	breq	.+38     	;  0x4e78
    4e52:	00 97       	sbiw	r24, 0x00	; 0
    4e54:	41 f0       	breq	.+16     	;  0x4e66
    4e56:	82 30       	cpi	r24, 0x02	; 2
    4e58:	91 05       	cpc	r25, r1
    4e5a:	89 f0       	breq	.+34     	;  0x4e7e
    4e5c:	03 97       	sbiw	r24, 0x03	; 3
    4e5e:	d1 f6       	brne	.-76     	;  0x4e14
    4e60:	ed e0       	ldi	r30, 0x0D	; 13
    4e62:	fb e0       	ldi	r31, 0x0B	; 11
    4e64:	02 c0       	rjmp	.+4      	;  0x4e6a
    4e66:	e5 e3       	ldi	r30, 0x35	; 53
    4e68:	fb e0       	ldi	r31, 0x0B	; 11
    4e6a:	84 91       	lpm	r24, Z
    4e6c:	90 e0       	ldi	r25, 0x00	; 0
    4e6e:	9f 01       	movw	r18, r30
    4e70:	fa 01       	movw	r30, r20
    4e72:	31 83       	std	Z+1, r19	; 0x01
    4e74:	20 83       	st	Z, r18
    4e76:	08 95       	ret
    4e78:	e3 e2       	ldi	r30, 0x23	; 35
    4e7a:	fb e0       	ldi	r31, 0x0B	; 11
    4e7c:	f6 cf       	rjmp	.-20     	;  0x4e6a
    4e7e:	e3 e1       	ldi	r30, 0x13	; 19
    4e80:	fb e0       	ldi	r31, 0x0B	; 11
    4e82:	f3 cf       	rjmp	.-26     	;  0x4e6a
    4e84:	63 30       	cpi	r22, 0x03	; 3
    4e86:	71 05       	cpc	r23, r1
    4e88:	28 f6       	brcc	.-118    	;  0x4e14
    4e8a:	66 0f       	add	r22, r22
    4e8c:	77 1f       	adc	r23, r23
    4e8e:	fb 01       	movw	r30, r22
    4e90:	e4 54       	subi	r30, 0x44	; 68
    4e92:	fe 4f       	sbci	r31, 0xFE	; 254
    4e94:	20 81       	ld	r18, Z
    4e96:	31 81       	ldd	r19, Z+1	; 0x01
    4e98:	89 e0       	ldi	r24, 0x09	; 9
    4e9a:	90 e0       	ldi	r25, 0x00	; 0
    4e9c:	e9 cf       	rjmp	.-46     	;  0x4e70
    4e9e:	82 e1       	ldi	r24, 0x12	; 18
    4ea0:	90 e0       	ldi	r25, 0x00	; 0
    4ea2:	24 e9       	ldi	r18, 0x94	; 148
    4ea4:	3b e0       	ldi	r19, 0x0B	; 11
    4ea6:	e4 cf       	rjmp	.-56     	;  0x4e70
    4ea8:	8b e5       	ldi	r24, 0x5B	; 91
    4eaa:	90 e0       	ldi	r25, 0x00	; 0
    4eac:	29 e3       	ldi	r18, 0x39	; 57
    4eae:	3b e0       	ldi	r19, 0x0B	; 11
    4eb0:	df cf       	rjmp	.-66     	;  0x4e70
    4eb2:	80 91 6a 02 	lds	r24, 0x026A	;  0x80026a
    4eb6:	84 30       	cpi	r24, 0x04	; 4
    4eb8:	11 f4       	brne	.+4      	;  0x4ebe
    4eba:	82 e0       	ldi	r24, 0x02	; 2
    4ebc:	08 95       	ret
    4ebe:	81 e0       	ldi	r24, 0x01	; 1
    4ec0:	08 95       	ret
    4ec2:	80 91 53 02 	lds	r24, 0x0253	;  0x800253
    4ec6:	81 11       	cpse	r24, r1
    4ec8:	02 c0       	rjmp	.+4      	;  0x4ece
    4eca:	0c 94 59 27 	jmp	0x4eb2	;  0x4eb2
    4ece:	08 95       	ret
    4ed0:	80 e1       	ldi	r24, 0x10	; 16
    4ed2:	89 bd       	out	0x29, r24	; 41
    4ed4:	82 e1       	ldi	r24, 0x12	; 18
    4ed6:	89 bd       	out	0x29, r24	; 41
    4ed8:	09 b4       	in	r0, 0x29	; 41
    4eda:	00 fe       	sbrs	r0, 0
    4edc:	fd cf       	rjmp	.-6      	;  0x4ed8
    4ede:	80 91 d8 00 	lds	r24, 0x00D8	;  0x8000d8
    4ee2:	8f 7d       	andi	r24, 0xDF	; 223
    4ee4:	80 93 d8 00 	sts	0x00D8, r24	;  0x8000d8
    4ee8:	80 91 e0 00 	lds	r24, 0x00E0	;  0x8000e0
    4eec:	82 60       	ori	r24, 0x02	; 2
    4eee:	80 93 e0 00 	sts	0x00E0, r24	;  0x8000e0
    4ef2:	80 91 e0 00 	lds	r24, 0x00E0	;  0x8000e0
    4ef6:	81 fd       	sbrc	r24, 1
    4ef8:	fc cf       	rjmp	.-8      	;  0x4ef2
    4efa:	08 95       	ret
    4efc:	af 92       	push	r10
    4efe:	bf 92       	push	r11
    4f00:	cf 92       	push	r12
    4f02:	df 92       	push	r13
    4f04:	ff 92       	push	r15
    4f06:	0f 93       	push	r16
    4f08:	1f 93       	push	r17
    4f0a:	cf 93       	push	r28
    4f0c:	df 93       	push	r29
    4f0e:	6c 01       	movw	r12, r24
    4f10:	eb 01       	movw	r28, r22
    4f12:	8a 01       	movw	r16, r20
    4f14:	0e 94 dd 28 	call	0x51ba	;  0x51ba
    4f18:	f8 2e       	mov	r15, r24
    4f1a:	81 11       	cpse	r24, r1
    4f1c:	23 c0       	rjmp	.+70     	;  0x4f64
    4f1e:	01 15       	cp	r16, r1
    4f20:	11 05       	cpc	r17, r1
    4f22:	39 f0       	breq	.+14     	;  0x4f32
    4f24:	f8 01       	movw	r30, r16
    4f26:	80 81       	ld	r24, Z
    4f28:	91 81       	ldd	r25, Z+1	; 0x01
    4f2a:	c8 1b       	sub	r28, r24
    4f2c:	d9 0b       	sbc	r29, r25
    4f2e:	c8 0e       	add	r12, r24
    4f30:	d9 1e       	adc	r13, r25
    4f32:	b1 2c       	mov	r11, r1
    4f34:	a1 2c       	mov	r10, r1
    4f36:	20 97       	sbiw	r28, 0x00	; 0
    4f38:	a9 f0       	breq	.+42     	;  0x4f64
    4f3a:	80 91 e8 00 	lds	r24, 0x00E8	;  0x8000e8
    4f3e:	85 fd       	sbrc	r24, 5
    4f40:	22 c0       	rjmp	.+68     	;  0x4f86
    4f42:	80 91 e8 00 	lds	r24, 0x00E8	;  0x8000e8
    4f46:	8e 77       	andi	r24, 0x7E	; 126
    4f48:	80 93 e8 00 	sts	0x00E8, r24	;  0x8000e8
    4f4c:	01 15       	cp	r16, r1
    4f4e:	11 05       	cpc	r17, r1
    4f50:	a1 f0       	breq	.+40     	;  0x4f7a
    4f52:	f8 01       	movw	r30, r16
    4f54:	80 81       	ld	r24, Z
    4f56:	91 81       	ldd	r25, Z+1	; 0x01
    4f58:	a8 0e       	add	r10, r24
    4f5a:	b9 1e       	adc	r11, r25
    4f5c:	b1 82       	std	Z+1, r11	; 0x01
    4f5e:	a0 82       	st	Z, r10
    4f60:	85 e0       	ldi	r24, 0x05	; 5
    4f62:	f8 2e       	mov	r15, r24
    4f64:	8f 2d       	mov	r24, r15
    4f66:	df 91       	pop	r29
    4f68:	cf 91       	pop	r28
    4f6a:	1f 91       	pop	r17
    4f6c:	0f 91       	pop	r16
    4f6e:	ff 90       	pop	r15
    4f70:	df 90       	pop	r13
    4f72:	cf 90       	pop	r12
    4f74:	bf 90       	pop	r11
    4f76:	af 90       	pop	r10
    4f78:	08 95       	ret
    4f7a:	0e 94 dd 28 	call	0x51ba	;  0x51ba
    4f7e:	88 23       	and	r24, r24
    4f80:	d1 f2       	breq	.-76     	;  0x4f36
    4f82:	f8 2e       	mov	r15, r24
    4f84:	ef cf       	rjmp	.-34     	;  0x4f64
    4f86:	f6 01       	movw	r30, r12
    4f88:	81 91       	ld	r24, Z+
    4f8a:	6f 01       	movw	r12, r30
    4f8c:	80 93 f1 00 	sts	0x00F1, r24	;  0x8000f1
    4f90:	21 97       	sbiw	r28, 0x01	; 1
    4f92:	ff ef       	ldi	r31, 0xFF	; 255
    4f94:	af 1a       	sub	r10, r31
    4f96:	bf 0a       	sbc	r11, r31
    4f98:	ce cf       	rjmp	.-100    	;  0x4f36
    4f9a:	fc 01       	movw	r30, r24
    4f9c:	80 91 71 02 	lds	r24, 0x0271	;  0x800271
    4fa0:	90 91 72 02 	lds	r25, 0x0272	;  0x800272
    4fa4:	86 17       	cp	r24, r22
    4fa6:	97 07       	cpc	r25, r23
    4fa8:	a0 f0       	brcs	.+40     	;  0x4fd2
    4faa:	61 15       	cp	r22, r1
    4fac:	71 05       	cpc	r23, r1
    4fae:	29 f4       	brne	.+10     	;  0x4fba
    4fb0:	90 91 e8 00 	lds	r25, 0x00E8	;  0x8000e8
    4fb4:	9e 77       	andi	r25, 0x7E	; 126
    4fb6:	90 93 e8 00 	sts	0x00E8, r25	;  0x8000e8
    4fba:	90 e0       	ldi	r25, 0x00	; 0
    4fbc:	61 15       	cp	r22, r1
    4fbe:	71 05       	cpc	r23, r1
    4fc0:	51 f4       	brne	.+20     	;  0x4fd6
    4fc2:	91 11       	cpse	r25, r1
    4fc4:	08 c0       	rjmp	.+16     	;  0x4fd6
    4fc6:	80 91 e8 00 	lds	r24, 0x00E8	;  0x8000e8
    4fca:	82 ff       	sbrs	r24, 2
    4fcc:	34 c0       	rjmp	.+104    	;  0x5036
    4fce:	80 e0       	ldi	r24, 0x00	; 0
    4fd0:	08 95       	ret
    4fd2:	bc 01       	movw	r22, r24
    4fd4:	f2 cf       	rjmp	.-28     	;  0x4fba
    4fd6:	80 91 6a 02 	lds	r24, 0x026A	;  0x80026a
    4fda:	88 23       	and	r24, r24
    4fdc:	c1 f1       	breq	.+112    	;  0x504e
    4fde:	85 30       	cpi	r24, 0x05	; 5
    4fe0:	c1 f1       	breq	.+112    	;  0x5052
    4fe2:	80 91 e8 00 	lds	r24, 0x00E8	;  0x8000e8
    4fe6:	83 fd       	sbrc	r24, 3
    4fe8:	30 c0       	rjmp	.+96     	;  0x504a
    4fea:	80 91 e8 00 	lds	r24, 0x00E8	;  0x8000e8
    4fee:	82 fd       	sbrc	r24, 2
    4ff0:	ea cf       	rjmp	.-44     	;  0x4fc6
    4ff2:	80 91 e8 00 	lds	r24, 0x00E8	;  0x8000e8
    4ff6:	80 ff       	sbrs	r24, 0
    4ff8:	e1 cf       	rjmp	.-62     	;  0x4fbc
    4ffa:	80 91 f3 00 	lds	r24, 0x00F3	;  0x8000f3
    4ffe:	20 91 f2 00 	lds	r18, 0x00F2	;  0x8000f2
    5002:	38 2f       	mov	r19, r24
    5004:	61 15       	cp	r22, r1
    5006:	71 05       	cpc	r23, r1
    5008:	19 f0       	breq	.+6      	;  0x5010
    500a:	28 30       	cpi	r18, 0x08	; 8
    500c:	31 05       	cpc	r19, r1
    500e:	58 f0       	brcs	.+22     	;  0x5026
    5010:	91 e0       	ldi	r25, 0x01	; 1
    5012:	28 30       	cpi	r18, 0x08	; 8
    5014:	31 05       	cpc	r19, r1
    5016:	09 f0       	breq	.+2      	;  0x501a
    5018:	90 e0       	ldi	r25, 0x00	; 0
    501a:	20 91 e8 00 	lds	r18, 0x00E8	;  0x8000e8
    501e:	2e 77       	andi	r18, 0x7E	; 126
    5020:	20 93 e8 00 	sts	0x00E8, r18	;  0x8000e8
    5024:	cb cf       	rjmp	.-106    	;  0x4fbc
    5026:	81 91       	ld	r24, Z+
    5028:	80 93 f1 00 	sts	0x00F1, r24	;  0x8000f1
    502c:	61 50       	subi	r22, 0x01	; 1
    502e:	71 09       	sbc	r23, r1
    5030:	2f 5f       	subi	r18, 0xFF	; 255
    5032:	3f 4f       	sbci	r19, 0xFF	; 255
    5034:	e7 cf       	rjmp	.-50     	;  0x5004
    5036:	80 91 6a 02 	lds	r24, 0x026A	;  0x80026a
    503a:	88 23       	and	r24, r24
    503c:	41 f0       	breq	.+16     	;  0x504e
    503e:	85 30       	cpi	r24, 0x05	; 5
    5040:	41 f0       	breq	.+16     	;  0x5052
    5042:	80 91 e8 00 	lds	r24, 0x00E8	;  0x8000e8
    5046:	83 ff       	sbrs	r24, 3
    5048:	be cf       	rjmp	.-132    	;  0x4fc6
    504a:	81 e0       	ldi	r24, 0x01	; 1
    504c:	08 95       	ret
    504e:	82 e0       	ldi	r24, 0x02	; 2
    5050:	08 95       	ret
    5052:	83 e0       	ldi	r24, 0x03	; 3
    5054:	08 95       	ret
    5056:	fc 01       	movw	r30, r24
    5058:	80 91 71 02 	lds	r24, 0x0271	;  0x800271
    505c:	90 91 72 02 	lds	r25, 0x0272	;  0x800272
    5060:	86 17       	cp	r24, r22
    5062:	97 07       	cpc	r25, r23
    5064:	a0 f0       	brcs	.+40     	;  0x508e
    5066:	61 15       	cp	r22, r1
    5068:	71 05       	cpc	r23, r1
    506a:	29 f4       	brne	.+10     	;  0x5076
    506c:	80 91 e8 00 	lds	r24, 0x00E8	;  0x8000e8
    5070:	8e 77       	andi	r24, 0x7E	; 126
    5072:	80 93 e8 00 	sts	0x00E8, r24	;  0x8000e8
    5076:	90 e0       	ldi	r25, 0x00	; 0
    5078:	61 15       	cp	r22, r1
    507a:	71 05       	cpc	r23, r1
    507c:	51 f4       	brne	.+20     	;  0x5092
    507e:	91 11       	cpse	r25, r1
    5080:	08 c0       	rjmp	.+16     	;  0x5092
    5082:	80 91 e8 00 	lds	r24, 0x00E8	;  0x8000e8
    5086:	82 ff       	sbrs	r24, 2
    5088:	35 c0       	rjmp	.+106    	;  0x50f4
    508a:	80 e0       	ldi	r24, 0x00	; 0
    508c:	08 95       	ret
    508e:	bc 01       	movw	r22, r24
    5090:	f2 cf       	rjmp	.-28     	;  0x5076
    5092:	80 91 6a 02 	lds	r24, 0x026A	;  0x80026a
    5096:	88 23       	and	r24, r24
    5098:	c9 f1       	breq	.+114    	;  0x510c
    509a:	85 30       	cpi	r24, 0x05	; 5
    509c:	c9 f1       	breq	.+114    	;  0x5110
    509e:	80 91 e8 00 	lds	r24, 0x00E8	;  0x8000e8
    50a2:	83 fd       	sbrc	r24, 3
    50a4:	31 c0       	rjmp	.+98     	;  0x5108
    50a6:	80 91 e8 00 	lds	r24, 0x00E8	;  0x8000e8
    50aa:	82 fd       	sbrc	r24, 2
    50ac:	ea cf       	rjmp	.-44     	;  0x5082
    50ae:	80 91 e8 00 	lds	r24, 0x00E8	;  0x8000e8
    50b2:	80 ff       	sbrs	r24, 0
    50b4:	e1 cf       	rjmp	.-62     	;  0x5078
    50b6:	80 91 f3 00 	lds	r24, 0x00F3	;  0x8000f3
    50ba:	20 91 f2 00 	lds	r18, 0x00F2	;  0x8000f2
    50be:	38 2f       	mov	r19, r24
    50c0:	61 15       	cp	r22, r1
    50c2:	71 05       	cpc	r23, r1
    50c4:	19 f0       	breq	.+6      	;  0x50cc
    50c6:	28 30       	cpi	r18, 0x08	; 8
    50c8:	31 05       	cpc	r19, r1
    50ca:	58 f0       	brcs	.+22     	;  0x50e2
    50cc:	91 e0       	ldi	r25, 0x01	; 1
    50ce:	28 30       	cpi	r18, 0x08	; 8
    50d0:	31 05       	cpc	r19, r1
    50d2:	09 f0       	breq	.+2      	;  0x50d6
    50d4:	90 e0       	ldi	r25, 0x00	; 0
    50d6:	80 91 e8 00 	lds	r24, 0x00E8	;  0x8000e8
    50da:	8e 77       	andi	r24, 0x7E	; 126
    50dc:	80 93 e8 00 	sts	0x00E8, r24	;  0x8000e8
    50e0:	cb cf       	rjmp	.-106    	;  0x5078
    50e2:	84 91       	lpm	r24, Z
    50e4:	80 93 f1 00 	sts	0x00F1, r24	;  0x8000f1
    50e8:	31 96       	adiw	r30, 0x01	; 1
    50ea:	61 50       	subi	r22, 0x01	; 1
    50ec:	71 09       	sbc	r23, r1
    50ee:	2f 5f       	subi	r18, 0xFF	; 255
    50f0:	3f 4f       	sbci	r19, 0xFF	; 255
    50f2:	e6 cf       	rjmp	.-52     	;  0x50c0
    50f4:	80 91 6a 02 	lds	r24, 0x026A	;  0x80026a
    50f8:	88 23       	and	r24, r24
    50fa:	41 f0       	breq	.+16     	;  0x510c
    50fc:	85 30       	cpi	r24, 0x05	; 5
    50fe:	41 f0       	breq	.+16     	;  0x5110
    5100:	80 91 e8 00 	lds	r24, 0x00E8	;  0x8000e8
    5104:	83 ff       	sbrs	r24, 3
    5106:	bd cf       	rjmp	.-134    	;  0x5082
    5108:	81 e0       	ldi	r24, 0x01	; 1
    510a:	08 95       	ret
    510c:	82 e0       	ldi	r24, 0x02	; 2
    510e:	08 95       	ret
    5110:	83 e0       	ldi	r24, 0x03	; 3
    5112:	08 95       	ret
    5114:	98 2f       	mov	r25, r24
    5116:	97 30       	cpi	r25, 0x07	; 7
    5118:	28 f0       	brcs	.+10     	;  0x5124
    511a:	8f 70       	andi	r24, 0x0F	; 15
    511c:	80 93 e9 00 	sts	0x00E9, r24	;  0x8000e9
    5120:	81 e0       	ldi	r24, 0x01	; 1
    5122:	08 95       	ret
    5124:	90 93 e9 00 	sts	0x00E9, r25	;  0x8000e9
    5128:	24 2f       	mov	r18, r20
    512a:	76 2f       	mov	r23, r22
    512c:	50 e0       	ldi	r21, 0x00	; 0
    512e:	98 17       	cp	r25, r24
    5130:	31 f0       	breq	.+12     	;  0x513e
    5132:	70 91 ec 00 	lds	r23, 0x00EC	;  0x8000ec
    5136:	20 91 ed 00 	lds	r18, 0x00ED	;  0x8000ed
    513a:	50 91 f0 00 	lds	r21, 0x00F0	;  0x8000f0
    513e:	21 fd       	sbrc	r18, 1
    5140:	02 c0       	rjmp	.+4      	;  0x5146
    5142:	9f 5f       	subi	r25, 0xFF	; 255
    5144:	e8 cf       	rjmp	.-48     	;  0x5116
    5146:	30 91 eb 00 	lds	r19, 0x00EB	;  0x8000eb
    514a:	3e 7f       	andi	r19, 0xFE	; 254
    514c:	30 93 eb 00 	sts	0x00EB, r19	;  0x8000eb
    5150:	30 91 ed 00 	lds	r19, 0x00ED	;  0x8000ed
    5154:	3d 7f       	andi	r19, 0xFD	; 253
    5156:	30 93 ed 00 	sts	0x00ED, r19	;  0x8000ed
    515a:	30 91 eb 00 	lds	r19, 0x00EB	;  0x8000eb
    515e:	31 60       	ori	r19, 0x01	; 1
    5160:	30 93 eb 00 	sts	0x00EB, r19	;  0x8000eb
    5164:	70 93 ec 00 	sts	0x00EC, r23	;  0x8000ec
    5168:	20 93 ed 00 	sts	0x00ED, r18	;  0x8000ed
    516c:	50 93 f0 00 	sts	0x00F0, r21	;  0x8000f0
    5170:	20 91 ee 00 	lds	r18, 0x00EE	;  0x8000ee
    5174:	27 fd       	sbrc	r18, 7
    5176:	e5 cf       	rjmp	.-54     	;  0x5142
    5178:	80 e0       	ldi	r24, 0x00	; 0
    517a:	08 95       	ret
    517c:	80 91 6b 02 	lds	r24, 0x026B	;  0x80026b
    5180:	87 ff       	sbrs	r24, 7
    5182:	13 c0       	rjmp	.+38     	;  0x51aa
    5184:	80 91 e8 00 	lds	r24, 0x00E8	;  0x8000e8
    5188:	82 ff       	sbrs	r24, 2
    518a:	06 c0       	rjmp	.+12     	;  0x5198
    518c:	80 91 e8 00 	lds	r24, 0x00E8	;  0x8000e8
    5190:	8b 77       	andi	r24, 0x7B	; 123
    5192:	80 93 e8 00 	sts	0x00E8, r24	;  0x8000e8
    5196:	04 c0       	rjmp	.+8      	;  0x51a0
    5198:	80 91 6a 02 	lds	r24, 0x026A	;  0x80026a
    519c:	81 11       	cpse	r24, r1
    519e:	f2 cf       	rjmp	.-28     	;  0x5184
    51a0:	08 95       	ret
    51a2:	80 91 6a 02 	lds	r24, 0x026A	;  0x80026a
    51a6:	88 23       	and	r24, r24
    51a8:	d9 f3       	breq	.-10     	;  0x51a0
    51aa:	80 91 e8 00 	lds	r24, 0x00E8	;  0x8000e8
    51ae:	80 ff       	sbrs	r24, 0
    51b0:	f8 cf       	rjmp	.-16     	;  0x51a2
    51b2:	80 91 e8 00 	lds	r24, 0x00E8	;  0x8000e8
    51b6:	8e 77       	andi	r24, 0x7E	; 126
    51b8:	ec cf       	rjmp	.-40     	;  0x5192
    51ba:	20 91 e4 00 	lds	r18, 0x00E4	;  0x8000e4
    51be:	30 91 e5 00 	lds	r19, 0x00E5	;  0x8000e5
    51c2:	95 e6       	ldi	r25, 0x65	; 101
    51c4:	a9 01       	movw	r20, r18
    51c6:	20 91 ec 00 	lds	r18, 0x00EC	;  0x8000ec
    51ca:	82 2f       	mov	r24, r18
    51cc:	81 70       	andi	r24, 0x01	; 1
    51ce:	20 ff       	sbrs	r18, 0
    51d0:	06 c0       	rjmp	.+12     	;  0x51de
    51d2:	80 91 e8 00 	lds	r24, 0x00E8	;  0x8000e8
    51d6:	80 ff       	sbrs	r24, 0
    51d8:	06 c0       	rjmp	.+12     	;  0x51e6
    51da:	80 e0       	ldi	r24, 0x00	; 0
    51dc:	08 95       	ret
    51de:	20 91 e8 00 	lds	r18, 0x00E8	;  0x8000e8
    51e2:	22 fd       	sbrc	r18, 2
    51e4:	1a c0       	rjmp	.+52     	;  0x521a
    51e6:	80 91 6a 02 	lds	r24, 0x026A	;  0x80026a
    51ea:	88 23       	and	r24, r24
    51ec:	89 f0       	breq	.+34     	;  0x5210
    51ee:	85 30       	cpi	r24, 0x05	; 5
    51f0:	89 f0       	breq	.+34     	;  0x5214
    51f2:	80 91 eb 00 	lds	r24, 0x00EB	;  0x8000eb
    51f6:	85 fd       	sbrc	r24, 5
    51f8:	0f c0       	rjmp	.+30     	;  0x5218
    51fa:	20 91 e4 00 	lds	r18, 0x00E4	;  0x8000e4
    51fe:	30 91 e5 00 	lds	r19, 0x00E5	;  0x8000e5
    5202:	42 17       	cp	r20, r18
    5204:	53 07       	cpc	r21, r19
    5206:	f9 f2       	breq	.-66     	;  0x51c6
    5208:	91 50       	subi	r25, 0x01	; 1
    520a:	e1 f6       	brne	.-72     	;  0x51c4
    520c:	84 e0       	ldi	r24, 0x04	; 4
    520e:	08 95       	ret
    5210:	82 e0       	ldi	r24, 0x02	; 2
    5212:	08 95       	ret
    5214:	83 e0       	ldi	r24, 0x03	; 3
    5216:	08 95       	ret
    5218:	81 e0       	ldi	r24, 0x01	; 1
    521a:	08 95       	ret
    521c:	0e 94 7c 29 	call	0x52f8	;  0x52f8
    5220:	0e 94 84 29 	call	0x5308	;  0x5308
    5224:	e0 ee       	ldi	r30, 0xE0	; 224
    5226:	f0 e0       	ldi	r31, 0x00	; 0
    5228:	80 81       	ld	r24, Z
    522a:	81 60       	ori	r24, 0x01	; 1
    522c:	80 83       	st	Z, r24
    522e:	e8 ed       	ldi	r30, 0xD8	; 216
    5230:	f0 e0       	ldi	r31, 0x00	; 0
    5232:	80 81       	ld	r24, Z
    5234:	8f 77       	andi	r24, 0x7F	; 127
    5236:	80 83       	st	Z, r24
    5238:	19 bc       	out	0x29, r1	; 41
    523a:	a7 ed       	ldi	r26, 0xD7	; 215
    523c:	b0 e0       	ldi	r27, 0x00	; 0
    523e:	8c 91       	ld	r24, X
    5240:	8e 7f       	andi	r24, 0xFE	; 254
    5242:	8c 93       	st	X, r24
    5244:	80 81       	ld	r24, Z
    5246:	8f 7e       	andi	r24, 0xEF	; 239
    5248:	80 83       	st	Z, r24
    524a:	10 92 69 02 	sts	0x0269, r1	;  0x800269
    524e:	08 95       	ret
    5250:	0f 93       	push	r16
    5252:	1f 93       	push	r17
    5254:	cf 93       	push	r28
    5256:	df 93       	push	r29
    5258:	0e 94 7c 29 	call	0x52f8	;  0x52f8
    525c:	0e 94 84 29 	call	0x5308	;  0x5308
    5260:	c8 ed       	ldi	r28, 0xD8	; 216
    5262:	d0 e0       	ldi	r29, 0x00	; 0
    5264:	88 81       	ld	r24, Y
    5266:	8f 77       	andi	r24, 0x7F	; 127
    5268:	88 83       	st	Y, r24
    526a:	88 81       	ld	r24, Y
    526c:	80 68       	ori	r24, 0x80	; 128
    526e:	88 83       	st	Y, r24
    5270:	88 81       	ld	r24, Y
    5272:	8f 7d       	andi	r24, 0xDF	; 223
    5274:	88 83       	st	Y, r24
    5276:	19 bc       	out	0x29, r1	; 41
    5278:	10 92 6a 02 	sts	0x026A, r1	;  0x80026a
    527c:	10 92 66 02 	sts	0x0266, r1	;  0x800266
    5280:	10 92 68 02 	sts	0x0268, r1	;  0x800268
    5284:	10 92 67 02 	sts	0x0267, r1	;  0x800267
    5288:	00 ee       	ldi	r16, 0xE0	; 224
    528a:	10 e0       	ldi	r17, 0x00	; 0
    528c:	f8 01       	movw	r30, r16
    528e:	80 81       	ld	r24, Z
    5290:	8b 7f       	andi	r24, 0xFB	; 251
    5292:	80 83       	st	Z, r24
    5294:	88 81       	ld	r24, Y
    5296:	81 60       	ori	r24, 0x01	; 1
    5298:	88 83       	st	Y, r24
    529a:	42 e0       	ldi	r20, 0x02	; 2
    529c:	60 e0       	ldi	r22, 0x00	; 0
    529e:	80 e0       	ldi	r24, 0x00	; 0
    52a0:	0e 94 8a 28 	call	0x5114	;  0x5114
    52a4:	e1 ee       	ldi	r30, 0xE1	; 225
    52a6:	f0 e0       	ldi	r31, 0x00	; 0
    52a8:	80 81       	ld	r24, Z
    52aa:	8e 7f       	andi	r24, 0xFE	; 254
    52ac:	80 83       	st	Z, r24
    52ae:	e2 ee       	ldi	r30, 0xE2	; 226
    52b0:	f0 e0       	ldi	r31, 0x00	; 0
    52b2:	80 81       	ld	r24, Z
    52b4:	81 60       	ori	r24, 0x01	; 1
    52b6:	80 83       	st	Z, r24
    52b8:	80 81       	ld	r24, Z
    52ba:	88 60       	ori	r24, 0x08	; 8
    52bc:	80 83       	st	Z, r24
    52be:	f8 01       	movw	r30, r16
    52c0:	80 81       	ld	r24, Z
    52c2:	8e 7f       	andi	r24, 0xFE	; 254
    52c4:	80 83       	st	Z, r24
    52c6:	88 81       	ld	r24, Y
    52c8:	80 61       	ori	r24, 0x10	; 16
    52ca:	88 83       	st	Y, r24
    52cc:	df 91       	pop	r29
    52ce:	cf 91       	pop	r28
    52d0:	1f 91       	pop	r17
    52d2:	0f 91       	pop	r16
    52d4:	08 95       	ret
    52d6:	e8 ed       	ldi	r30, 0xD8	; 216
    52d8:	f0 e0       	ldi	r31, 0x00	; 0
    52da:	80 81       	ld	r24, Z
    52dc:	8f 7e       	andi	r24, 0xEF	; 239
    52de:	80 83       	st	Z, r24
    52e0:	e7 ed       	ldi	r30, 0xD7	; 215
    52e2:	f0 e0       	ldi	r31, 0x00	; 0
    52e4:	80 81       	ld	r24, Z
    52e6:	81 60       	ori	r24, 0x01	; 1
    52e8:	80 83       	st	Z, r24
    52ea:	84 e0       	ldi	r24, 0x04	; 4
    52ec:	82 bf       	out	0x32, r24	; 50
    52ee:	81 e0       	ldi	r24, 0x01	; 1
    52f0:	80 93 69 02 	sts	0x0269, r24	;  0x800269
    52f4:	0c 94 28 29 	jmp	0x5250	;  0x5250
    52f8:	e8 ed       	ldi	r30, 0xD8	; 216
    52fa:	f0 e0       	ldi	r31, 0x00	; 0
    52fc:	80 81       	ld	r24, Z
    52fe:	8e 7f       	andi	r24, 0xFE	; 254
    5300:	80 83       	st	Z, r24
    5302:	10 92 e2 00 	sts	0x00E2, r1	;  0x8000e2
    5306:	08 95       	ret
    5308:	10 92 da 00 	sts	0x00DA, r1	;  0x8000da
    530c:	10 92 e1 00 	sts	0x00E1, r1	;  0x8000e1
    5310:	08 95       	ret
    5312:	1f 92       	push	r1
    5314:	0f 92       	push	r0
    5316:	0f b6       	in	r0, 0x3f	; 63
    5318:	0f 92       	push	r0
    531a:	11 24       	eor	r1, r1
    531c:	2f 93       	push	r18
    531e:	3f 93       	push	r19
    5320:	4f 93       	push	r20
    5322:	5f 93       	push	r21
    5324:	6f 93       	push	r22
    5326:	7f 93       	push	r23
    5328:	8f 93       	push	r24
    532a:	9f 93       	push	r25
    532c:	af 93       	push	r26
    532e:	bf 93       	push	r27
    5330:	ef 93       	push	r30
    5332:	ff 93       	push	r31
    5334:	80 91 e1 00 	lds	r24, 0x00E1	;  0x8000e1
    5338:	82 ff       	sbrs	r24, 2
    533a:	0b c0       	rjmp	.+22     	;  0x5352
    533c:	80 91 e2 00 	lds	r24, 0x00E2	;  0x8000e2
    5340:	82 ff       	sbrs	r24, 2
    5342:	07 c0       	rjmp	.+14     	;  0x5352
    5344:	80 91 e1 00 	lds	r24, 0x00E1	;  0x8000e1
    5348:	8b 7f       	andi	r24, 0xFB	; 251
    534a:	80 93 e1 00 	sts	0x00E1, r24	;  0x8000e1
    534e:	0e 94 a8 25 	call	0x4b50	;  0x4b50
    5352:	80 91 da 00 	lds	r24, 0x00DA	;  0x8000da
    5356:	80 ff       	sbrs	r24, 0
    5358:	19 c0       	rjmp	.+50     	;  0x538c
    535a:	80 91 d8 00 	lds	r24, 0x00D8	;  0x8000d8
    535e:	80 ff       	sbrs	r24, 0
    5360:	15 c0       	rjmp	.+42     	;  0x538c
    5362:	80 91 da 00 	lds	r24, 0x00DA	;  0x8000da
    5366:	8e 7f       	andi	r24, 0xFE	; 254
    5368:	80 93 da 00 	sts	0x00DA, r24	;  0x8000da
    536c:	80 91 d9 00 	lds	r24, 0x00D9	;  0x8000d9
    5370:	80 ff       	sbrs	r24, 0
    5372:	96 c0       	rjmp	.+300    	;  0x54a0
    5374:	80 e1       	ldi	r24, 0x10	; 16
    5376:	89 bd       	out	0x29, r24	; 41
    5378:	82 e1       	ldi	r24, 0x12	; 18
    537a:	89 bd       	out	0x29, r24	; 41
    537c:	09 b4       	in	r0, 0x29	; 41
    537e:	00 fe       	sbrs	r0, 0
    5380:	fd cf       	rjmp	.-6      	;  0x537c
    5382:	81 e0       	ldi	r24, 0x01	; 1
    5384:	80 93 6a 02 	sts	0x026A, r24	;  0x80026a
    5388:	0e 94 81 25 	call	0x4b02	;  0x4b02
    538c:	80 91 e1 00 	lds	r24, 0x00E1	;  0x8000e1
    5390:	80 ff       	sbrs	r24, 0
    5392:	19 c0       	rjmp	.+50     	;  0x53c6
    5394:	80 91 e2 00 	lds	r24, 0x00E2	;  0x8000e2
    5398:	80 ff       	sbrs	r24, 0
    539a:	15 c0       	rjmp	.+42     	;  0x53c6
    539c:	80 91 e2 00 	lds	r24, 0x00E2	;  0x8000e2
    53a0:	8e 7f       	andi	r24, 0xFE	; 254
    53a2:	80 93 e2 00 	sts	0x00E2, r24	;  0x8000e2
    53a6:	80 91 e2 00 	lds	r24, 0x00E2	;  0x8000e2
    53aa:	80 61       	ori	r24, 0x10	; 16
    53ac:	80 93 e2 00 	sts	0x00E2, r24	;  0x8000e2
    53b0:	80 91 d8 00 	lds	r24, 0x00D8	;  0x8000d8
    53b4:	80 62       	ori	r24, 0x20	; 32
    53b6:	80 93 d8 00 	sts	0x00D8, r24	;  0x8000d8
    53ba:	19 bc       	out	0x29, r1	; 41
    53bc:	85 e0       	ldi	r24, 0x05	; 5
    53be:	80 93 6a 02 	sts	0x026A, r24	;  0x80026a
    53c2:	0e 94 9e 25 	call	0x4b3c	;  0x4b3c
    53c6:	80 91 e1 00 	lds	r24, 0x00E1	;  0x8000e1
    53ca:	84 ff       	sbrs	r24, 4
    53cc:	2b c0       	rjmp	.+86     	;  0x5424
    53ce:	80 91 e2 00 	lds	r24, 0x00E2	;  0x8000e2
    53d2:	84 ff       	sbrs	r24, 4
    53d4:	27 c0       	rjmp	.+78     	;  0x5424
    53d6:	80 e1       	ldi	r24, 0x10	; 16
    53d8:	89 bd       	out	0x29, r24	; 41
    53da:	82 e1       	ldi	r24, 0x12	; 18
    53dc:	89 bd       	out	0x29, r24	; 41
    53de:	89 b5       	in	r24, 0x29	; 41
    53e0:	98 2f       	mov	r25, r24
    53e2:	91 70       	andi	r25, 0x01	; 1
    53e4:	80 ff       	sbrs	r24, 0
    53e6:	fb cf       	rjmp	.-10     	;  0x53de
    53e8:	80 91 d8 00 	lds	r24, 0x00D8	;  0x8000d8
    53ec:	8f 7d       	andi	r24, 0xDF	; 223
    53ee:	80 93 d8 00 	sts	0x00D8, r24	;  0x8000d8
    53f2:	80 91 e1 00 	lds	r24, 0x00E1	;  0x8000e1
    53f6:	8f 7e       	andi	r24, 0xEF	; 239
    53f8:	80 93 e1 00 	sts	0x00E1, r24	;  0x8000e1
    53fc:	80 91 e2 00 	lds	r24, 0x00E2	;  0x8000e2
    5400:	8f 7e       	andi	r24, 0xEF	; 239
    5402:	80 93 e2 00 	sts	0x00E2, r24	;  0x8000e2
    5406:	80 91 e2 00 	lds	r24, 0x00E2	;  0x8000e2
    540a:	81 60       	ori	r24, 0x01	; 1
    540c:	80 93 e2 00 	sts	0x00E2, r24	;  0x8000e2
    5410:	80 91 66 02 	lds	r24, 0x0266	;  0x800266
    5414:	88 23       	and	r24, r24
    5416:	09 f4       	brne	.+2      	;  0x541a
    5418:	49 c0       	rjmp	.+146    	;  0x54ac
    541a:	84 e0       	ldi	r24, 0x04	; 4
    541c:	80 93 6a 02 	sts	0x026A, r24	;  0x80026a
    5420:	0e 94 a2 25 	call	0x4b44	;  0x4b44
    5424:	80 91 e1 00 	lds	r24, 0x00E1	;  0x8000e1
    5428:	83 ff       	sbrs	r24, 3
    542a:	29 c0       	rjmp	.+82     	;  0x547e
    542c:	80 91 e2 00 	lds	r24, 0x00E2	;  0x8000e2
    5430:	83 ff       	sbrs	r24, 3
    5432:	25 c0       	rjmp	.+74     	;  0x547e
    5434:	80 91 e1 00 	lds	r24, 0x00E1	;  0x8000e1
    5438:	87 7f       	andi	r24, 0xF7	; 247
    543a:	80 93 e1 00 	sts	0x00E1, r24	;  0x8000e1
    543e:	82 e0       	ldi	r24, 0x02	; 2
    5440:	80 93 6a 02 	sts	0x026A, r24	;  0x80026a
    5444:	10 92 66 02 	sts	0x0266, r1	;  0x800266
    5448:	80 91 e1 00 	lds	r24, 0x00E1	;  0x8000e1
    544c:	8e 7f       	andi	r24, 0xFE	; 254
    544e:	80 93 e1 00 	sts	0x00E1, r24	;  0x8000e1
    5452:	80 91 e2 00 	lds	r24, 0x00E2	;  0x8000e2
    5456:	8e 7f       	andi	r24, 0xFE	; 254
    5458:	80 93 e2 00 	sts	0x00E2, r24	;  0x8000e2
    545c:	80 91 e2 00 	lds	r24, 0x00E2	;  0x8000e2
    5460:	80 61       	ori	r24, 0x10	; 16
    5462:	80 93 e2 00 	sts	0x00E2, r24	;  0x8000e2
    5466:	42 e0       	ldi	r20, 0x02	; 2
    5468:	60 e0       	ldi	r22, 0x00	; 0
    546a:	80 e0       	ldi	r24, 0x00	; 0
    546c:	0e 94 8a 28 	call	0x5114	;  0x5114
    5470:	80 91 f0 00 	lds	r24, 0x00F0	;  0x8000f0
    5474:	88 60       	ori	r24, 0x08	; 8
    5476:	80 93 f0 00 	sts	0x00F0, r24	;  0x8000f0
    547a:	0e 94 9a 25 	call	0x4b34	;  0x4b34
    547e:	ff 91       	pop	r31
    5480:	ef 91       	pop	r30
    5482:	bf 91       	pop	r27
    5484:	af 91       	pop	r26
    5486:	9f 91       	pop	r25
    5488:	8f 91       	pop	r24
    548a:	7f 91       	pop	r23
    548c:	6f 91       	pop	r22
    548e:	5f 91       	pop	r21
    5490:	4f 91       	pop	r20
    5492:	3f 91       	pop	r19
    5494:	2f 91       	pop	r18
    5496:	0f 90       	pop	r0
    5498:	0f be       	out	0x3f, r0	; 63
    549a:	0f 90       	pop	r0
    549c:	1f 90       	pop	r1
    549e:	18 95       	reti
    54a0:	19 bc       	out	0x29, r1	; 41
    54a2:	10 92 6a 02 	sts	0x026A, r1	;  0x80026a
    54a6:	0e 94 93 25 	call	0x4b26	;  0x4b26
    54aa:	70 cf       	rjmp	.-288    	;  0x538c
    54ac:	80 91 e3 00 	lds	r24, 0x00E3	;  0x8000e3
    54b0:	87 fd       	sbrc	r24, 7
    54b2:	93 e0       	ldi	r25, 0x03	; 3
    54b4:	90 93 6a 02 	sts	0x026A, r25	;  0x80026a
    54b8:	b3 cf       	rjmp	.-154    	;  0x5420
    54ba:	1f 92       	push	r1
    54bc:	0f 92       	push	r0
    54be:	0f b6       	in	r0, 0x3f	; 63
    54c0:	0f 92       	push	r0
    54c2:	11 24       	eor	r1, r1
    54c4:	2f 93       	push	r18
    54c6:	3f 93       	push	r19
    54c8:	4f 93       	push	r20
    54ca:	5f 93       	push	r21
    54cc:	6f 93       	push	r22
    54ce:	7f 93       	push	r23
    54d0:	8f 93       	push	r24
    54d2:	9f 93       	push	r25
    54d4:	af 93       	push	r26
    54d6:	bf 93       	push	r27
    54d8:	cf 93       	push	r28
    54da:	df 93       	push	r29
    54dc:	ef 93       	push	r30
    54de:	ff 93       	push	r31
    54e0:	d0 91 e9 00 	lds	r29, 0x00E9	;  0x8000e9
    54e4:	df 70       	andi	r29, 0x0F	; 15
    54e6:	80 91 ec 00 	lds	r24, 0x00EC	;  0x8000ec
    54ea:	c8 2f       	mov	r28, r24
    54ec:	c1 70       	andi	r28, 0x01	; 1
    54ee:	80 fd       	sbrc	r24, 0
    54f0:	c0 e8       	ldi	r28, 0x80	; 128
    54f2:	10 92 e9 00 	sts	0x00E9, r1	;  0x8000e9
    54f6:	80 91 f0 00 	lds	r24, 0x00F0	;  0x8000f0
    54fa:	87 7f       	andi	r24, 0xF7	; 247
    54fc:	80 93 f0 00 	sts	0x00F0, r24	;  0x8000f0
    5500:	78 94       	sei
    5502:	0e 94 a1 2a 	call	0x5542	;  0x5542
    5506:	10 92 e9 00 	sts	0x00E9, r1	;  0x8000e9
    550a:	80 91 f0 00 	lds	r24, 0x00F0	;  0x8000f0
    550e:	88 60       	ori	r24, 0x08	; 8
    5510:	80 93 f0 00 	sts	0x00F0, r24	;  0x8000f0
    5514:	cd 2b       	or	r28, r29
    5516:	cf 70       	andi	r28, 0x0F	; 15
    5518:	c0 93 e9 00 	sts	0x00E9, r28	;  0x8000e9
    551c:	ff 91       	pop	r31
    551e:	ef 91       	pop	r30
    5520:	df 91       	pop	r29
    5522:	cf 91       	pop	r28
    5524:	bf 91       	pop	r27
    5526:	af 91       	pop	r26
    5528:	9f 91       	pop	r25
    552a:	8f 91       	pop	r24
    552c:	7f 91       	pop	r23
    552e:	6f 91       	pop	r22
    5530:	5f 91       	pop	r21
    5532:	4f 91       	pop	r20
    5534:	3f 91       	pop	r19
    5536:	2f 91       	pop	r18
    5538:	0f 90       	pop	r0
    553a:	0f be       	out	0x3f, r0	; 63
    553c:	0f 90       	pop	r0
    553e:	1f 90       	pop	r1
    5540:	18 95       	reti
    5542:	1f 93       	push	r17
    5544:	cf 93       	push	r28
    5546:	df 93       	push	r29
    5548:	cd b7       	in	r28, 0x3d	; 61
    554a:	de b7       	in	r29, 0x3e	; 62
    554c:	aa 97       	sbiw	r28, 0x2a	; 42
    554e:	0f b6       	in	r0, 0x3f	; 63
    5550:	f8 94       	cli
    5552:	de bf       	out	0x3e, r29	; 62
    5554:	0f be       	out	0x3f, r0	; 63
    5556:	cd bf       	out	0x3d, r28	; 61
    5558:	8b e6       	ldi	r24, 0x6B	; 107
    555a:	92 e0       	ldi	r25, 0x02	; 2
    555c:	20 91 f1 00 	lds	r18, 0x00F1	;  0x8000f1
    5560:	fc 01       	movw	r30, r24
    5562:	21 93       	st	Z+, r18
    5564:	cf 01       	movw	r24, r30
    5566:	f2 e0       	ldi	r31, 0x02	; 2
    5568:	83 37       	cpi	r24, 0x73	; 115
    556a:	9f 07       	cpc	r25, r31
    556c:	b9 f7       	brne	.-18     	;  0x555c
    556e:	0e 94 f8 25 	call	0x4bf0	;  0x4bf0
    5572:	80 91 e8 00 	lds	r24, 0x00E8	;  0x8000e8
    5576:	83 ff       	sbrs	r24, 3
    5578:	1e c1       	rjmp	.+572    	;  0x57b6
    557a:	80 91 6b 02 	lds	r24, 0x026B	;  0x80026b
    557e:	90 91 6c 02 	lds	r25, 0x026C	;  0x80026c
    5582:	9a 30       	cpi	r25, 0x0A	; 10
    5584:	08 f0       	brcs	.+2      	;  0x5588
    5586:	17 c1       	rjmp	.+558    	;  0x57b6
    5588:	e9 2f       	mov	r30, r25
    558a:	f0 e0       	ldi	r31, 0x00	; 0
    558c:	e4 54       	subi	r30, 0x44	; 68
    558e:	f3 4d       	sbci	r31, 0xD3	; 211
    5590:	0c 94 2e 2c 	jmp	0x585c	;  0x585c
    5594:	80 38       	cpi	r24, 0x80	; 128
    5596:	99 f0       	breq	.+38     	;  0x55be
    5598:	82 38       	cpi	r24, 0x82	; 130
    559a:	09 f0       	breq	.+2      	;  0x559e
    559c:	0c c1       	rjmp	.+536    	;  0x57b6
    559e:	80 91 6f 02 	lds	r24, 0x026F	;  0x80026f
    55a2:	8f 70       	andi	r24, 0x0F	; 15
    55a4:	87 30       	cpi	r24, 0x07	; 7
    55a6:	08 f0       	brcs	.+2      	;  0x55aa
    55a8:	06 c1       	rjmp	.+524    	;  0x57b6
    55aa:	80 93 e9 00 	sts	0x00E9, r24	;  0x8000e9
    55ae:	80 91 eb 00 	lds	r24, 0x00EB	;  0x8000eb
    55b2:	85 fb       	bst	r24, 5
    55b4:	88 27       	eor	r24, r24
    55b6:	80 f9       	bld	r24, 0
    55b8:	10 92 e9 00 	sts	0x00E9, r1	;  0x8000e9
    55bc:	06 c0       	rjmp	.+12     	;  0x55ca
    55be:	80 91 67 02 	lds	r24, 0x0267	;  0x800267
    55c2:	90 91 68 02 	lds	r25, 0x0268	;  0x800268
    55c6:	91 11       	cpse	r25, r1
    55c8:	82 60       	ori	r24, 0x02	; 2
    55ca:	90 91 e8 00 	lds	r25, 0x00E8	;  0x8000e8
    55ce:	97 7f       	andi	r25, 0xF7	; 247
    55d0:	90 93 e8 00 	sts	0x00E8, r25	;  0x8000e8
    55d4:	80 93 f1 00 	sts	0x00F1, r24	;  0x8000f1
    55d8:	10 92 f1 00 	sts	0x00F1, r1	;  0x8000f1
    55dc:	80 91 e8 00 	lds	r24, 0x00E8	;  0x8000e8
    55e0:	8e 77       	andi	r24, 0x7E	; 126
    55e2:	e5 c0       	rjmp	.+458    	;  0x57ae
    55e4:	88 23       	and	r24, r24
    55e6:	09 f4       	brne	.+2      	;  0x55ea
    55e8:	d3 c0       	rjmp	.+422    	;  0x5790
    55ea:	82 30       	cpi	r24, 0x02	; 2
    55ec:	09 f0       	breq	.+2      	;  0x55f0
    55ee:	e3 c0       	rjmp	.+454    	;  0x57b6
    55f0:	80 91 6d 02 	lds	r24, 0x026D	;  0x80026d
    55f4:	81 11       	cpse	r24, r1
    55f6:	d6 c0       	rjmp	.+428    	;  0x57a4
    55f8:	80 91 6f 02 	lds	r24, 0x026F	;  0x80026f
    55fc:	8f 70       	andi	r24, 0x0F	; 15
    55fe:	2f ef       	ldi	r18, 0xFF	; 255
    5600:	28 0f       	add	r18, r24
    5602:	26 30       	cpi	r18, 0x06	; 6
    5604:	08 f0       	brcs	.+2      	;  0x5608
    5606:	d7 c0       	rjmp	.+430    	;  0x57b6
    5608:	80 93 e9 00 	sts	0x00E9, r24	;  0x8000e9
    560c:	20 91 eb 00 	lds	r18, 0x00EB	;  0x8000eb
    5610:	20 ff       	sbrs	r18, 0
    5612:	c8 c0       	rjmp	.+400    	;  0x57a4
    5614:	93 30       	cpi	r25, 0x03	; 3
    5616:	31 f4       	brne	.+12     	;  0x5624
    5618:	80 91 eb 00 	lds	r24, 0x00EB	;  0x8000eb
    561c:	80 62       	ori	r24, 0x20	; 32
    561e:	80 93 eb 00 	sts	0x00EB, r24	;  0x8000eb
    5622:	c0 c0       	rjmp	.+384    	;  0x57a4
    5624:	90 91 eb 00 	lds	r25, 0x00EB	;  0x8000eb
    5628:	90 61       	ori	r25, 0x10	; 16
    562a:	90 93 eb 00 	sts	0x00EB, r25	;  0x8000eb
    562e:	21 e0       	ldi	r18, 0x01	; 1
    5630:	30 e0       	ldi	r19, 0x00	; 0
    5632:	01 c0       	rjmp	.+2      	;  0x5636
    5634:	22 0f       	add	r18, r18
    5636:	8a 95       	dec	r24
    5638:	ea f7       	brpl	.-6      	;  0x5634
    563a:	20 93 ea 00 	sts	0x00EA, r18	;  0x8000ea
    563e:	10 92 ea 00 	sts	0x00EA, r1	;  0x8000ea
    5642:	80 91 eb 00 	lds	r24, 0x00EB	;  0x8000eb
    5646:	88 60       	ori	r24, 0x08	; 8
    5648:	ea cf       	rjmp	.-44     	;  0x561e
    564a:	81 11       	cpse	r24, r1
    564c:	b4 c0       	rjmp	.+360    	;  0x57b6
    564e:	10 91 6d 02 	lds	r17, 0x026D	;  0x80026d
    5652:	1f 77       	andi	r17, 0x7F	; 127
    5654:	80 91 e3 00 	lds	r24, 0x00E3	;  0x8000e3
    5658:	80 78       	andi	r24, 0x80	; 128
    565a:	81 2b       	or	r24, r17
    565c:	80 93 e3 00 	sts	0x00E3, r24	;  0x8000e3
    5660:	80 91 e8 00 	lds	r24, 0x00E8	;  0x8000e8
    5664:	87 7f       	andi	r24, 0xF7	; 247
    5666:	80 93 e8 00 	sts	0x00E8, r24	;  0x8000e8
    566a:	0e 94 be 28 	call	0x517c	;  0x517c
    566e:	80 91 e8 00 	lds	r24, 0x00E8	;  0x8000e8
    5672:	80 ff       	sbrs	r24, 0
    5674:	fc cf       	rjmp	.-8      	;  0x566e
    5676:	80 91 e3 00 	lds	r24, 0x00E3	;  0x8000e3
    567a:	80 68       	ori	r24, 0x80	; 128
    567c:	80 93 e3 00 	sts	0x00E3, r24	;  0x8000e3
    5680:	82 e0       	ldi	r24, 0x02	; 2
    5682:	11 11       	cpse	r17, r1
    5684:	83 e0       	ldi	r24, 0x03	; 3
    5686:	80 93 6a 02 	sts	0x026A, r24	;  0x80026a
    568a:	95 c0       	rjmp	.+298    	;  0x57b6
    568c:	80 58       	subi	r24, 0x80	; 128
    568e:	82 30       	cpi	r24, 0x02	; 2
    5690:	08 f0       	brcs	.+2      	;  0x5694
    5692:	91 c0       	rjmp	.+290    	;  0x57b6
    5694:	80 91 6d 02 	lds	r24, 0x026D	;  0x80026d
    5698:	90 91 6e 02 	lds	r25, 0x026E	;  0x80026e
    569c:	8c 3d       	cpi	r24, 0xDC	; 220
    569e:	23 e0       	ldi	r18, 0x03	; 3
    56a0:	92 07       	cpc	r25, r18
    56a2:	a1 f5       	brne	.+104    	;  0x570c
    56a4:	83 e0       	ldi	r24, 0x03	; 3
    56a6:	8a 83       	std	Y+2, r24	; 0x02
    56a8:	8a e2       	ldi	r24, 0x2A	; 42
    56aa:	89 83       	std	Y+1, r24	; 0x01
    56ac:	4f b7       	in	r20, 0x3f	; 63
    56ae:	f8 94       	cli
    56b0:	de 01       	movw	r26, r28
    56b2:	13 96       	adiw	r26, 0x03	; 3
    56b4:	20 e0       	ldi	r18, 0x00	; 0
    56b6:	3e e0       	ldi	r19, 0x0E	; 14
    56b8:	51 e2       	ldi	r21, 0x21	; 33
    56ba:	e3 2f       	mov	r30, r19
    56bc:	f0 e0       	ldi	r31, 0x00	; 0
    56be:	50 93 57 00 	sts	0x0057, r21	;  0x800057
    56c2:	e4 91       	lpm	r30, Z
    56c4:	20 ff       	sbrs	r18, 0
    56c6:	03 c0       	rjmp	.+6      	;  0x56ce
    56c8:	e2 95       	swap	r30
    56ca:	ef 70       	andi	r30, 0x0F	; 15
    56cc:	3f 5f       	subi	r19, 0xFF	; 255
    56ce:	ef 70       	andi	r30, 0x0F	; 15
    56d0:	8e 2f       	mov	r24, r30
    56d2:	90 e0       	ldi	r25, 0x00	; 0
    56d4:	ea 30       	cpi	r30, 0x0A	; 10
    56d6:	c0 f0       	brcs	.+48     	;  0x5708
    56d8:	c7 96       	adiw	r24, 0x37	; 55
    56da:	8d 93       	st	X+, r24
    56dc:	9d 93       	st	X+, r25
    56de:	2f 5f       	subi	r18, 0xFF	; 255
    56e0:	24 31       	cpi	r18, 0x14	; 20
    56e2:	59 f7       	brne	.-42     	;  0x56ba
    56e4:	4f bf       	out	0x3f, r20	; 63
    56e6:	80 91 e8 00 	lds	r24, 0x00E8	;  0x8000e8
    56ea:	87 7f       	andi	r24, 0xF7	; 247
    56ec:	80 93 e8 00 	sts	0x00E8, r24	;  0x8000e8
    56f0:	6a e2       	ldi	r22, 0x2A	; 42
    56f2:	70 e0       	ldi	r23, 0x00	; 0
    56f4:	ce 01       	movw	r24, r28
    56f6:	01 96       	adiw	r24, 0x01	; 1
    56f8:	0e 94 cd 27 	call	0x4f9a	;  0x4f9a
    56fc:	80 91 e8 00 	lds	r24, 0x00E8	;  0x8000e8
    5700:	8b 77       	andi	r24, 0x7B	; 123
    5702:	80 93 e8 00 	sts	0x00E8, r24	;  0x8000e8
    5706:	57 c0       	rjmp	.+174    	;  0x57b6
    5708:	c0 96       	adiw	r24, 0x30	; 48
    570a:	e7 cf       	rjmp	.-50     	;  0x56da
    570c:	60 91 6f 02 	lds	r22, 0x026F	;  0x80026f
    5710:	70 91 70 02 	lds	r23, 0x0270	;  0x800270
    5714:	ae 01       	movw	r20, r28
    5716:	4f 5f       	subi	r20, 0xFF	; 255
    5718:	5f 4f       	sbci	r21, 0xFF	; 255
    571a:	0e 94 fa 26 	call	0x4df4	;  0x4df4
    571e:	bc 01       	movw	r22, r24
    5720:	89 2b       	or	r24, r25
    5722:	09 f4       	brne	.+2      	;  0x5726
    5724:	48 c0       	rjmp	.+144    	;  0x57b6
    5726:	90 91 e8 00 	lds	r25, 0x00E8	;  0x8000e8
    572a:	97 7f       	andi	r25, 0xF7	; 247
    572c:	90 93 e8 00 	sts	0x00E8, r25	;  0x8000e8
    5730:	89 81       	ldd	r24, Y+1	; 0x01
    5732:	9a 81       	ldd	r25, Y+2	; 0x02
    5734:	0e 94 2b 28 	call	0x5056	;  0x5056
    5738:	e1 cf       	rjmp	.-62     	;  0x56fc
    573a:	80 38       	cpi	r24, 0x80	; 128
    573c:	e1 f5       	brne	.+120    	;  0x57b6
    573e:	80 91 e8 00 	lds	r24, 0x00E8	;  0x8000e8
    5742:	87 7f       	andi	r24, 0xF7	; 247
    5744:	80 93 e8 00 	sts	0x00E8, r24	;  0x8000e8
    5748:	80 91 66 02 	lds	r24, 0x0266	;  0x800266
    574c:	80 93 f1 00 	sts	0x00F1, r24	;  0x8000f1
    5750:	45 cf       	rjmp	.-374    	;  0x55dc
    5752:	81 11       	cpse	r24, r1
    5754:	30 c0       	rjmp	.+96     	;  0x57b6
    5756:	90 91 6d 02 	lds	r25, 0x026D	;  0x80026d
    575a:	92 30       	cpi	r25, 0x02	; 2
    575c:	60 f5       	brcc	.+88     	;  0x57b6
    575e:	80 91 e8 00 	lds	r24, 0x00E8	;  0x8000e8
    5762:	87 7f       	andi	r24, 0xF7	; 247
    5764:	80 93 e8 00 	sts	0x00E8, r24	;  0x8000e8
    5768:	90 93 66 02 	sts	0x0266, r25	;  0x800266
    576c:	0e 94 be 28 	call	0x517c	;  0x517c
    5770:	80 91 66 02 	lds	r24, 0x0266	;  0x800266
    5774:	88 23       	and	r24, r24
    5776:	11 f0       	breq	.+4      	;  0x577c
    5778:	84 e0       	ldi	r24, 0x04	; 4
    577a:	05 c0       	rjmp	.+10     	;  0x5786
    577c:	80 91 e3 00 	lds	r24, 0x00E3	;  0x8000e3
    5780:	87 fd       	sbrc	r24, 7
    5782:	fa cf       	rjmp	.-12     	;  0x5778
    5784:	81 e0       	ldi	r24, 0x01	; 1
    5786:	80 93 6a 02 	sts	0x026A, r24	;  0x80026a
    578a:	0e 94 e9 25 	call	0x4bd2	;  0x4bd2
    578e:	13 c0       	rjmp	.+38     	;  0x57b6
    5790:	80 91 6d 02 	lds	r24, 0x026D	;  0x80026d
    5794:	81 30       	cpi	r24, 0x01	; 1
    5796:	79 f4       	brne	.+30     	;  0x57b6
    5798:	81 e0       	ldi	r24, 0x01	; 1
    579a:	93 30       	cpi	r25, 0x03	; 3
    579c:	09 f0       	breq	.+2      	;  0x57a0
    579e:	80 e0       	ldi	r24, 0x00	; 0
    57a0:	80 93 68 02 	sts	0x0268, r24	;  0x800268
    57a4:	10 92 e9 00 	sts	0x00E9, r1	;  0x8000e9
    57a8:	80 91 e8 00 	lds	r24, 0x00E8	;  0x8000e8
    57ac:	87 7f       	andi	r24, 0xF7	; 247
    57ae:	80 93 e8 00 	sts	0x00E8, r24	;  0x8000e8
    57b2:	0e 94 be 28 	call	0x517c	;  0x517c
    57b6:	80 91 e8 00 	lds	r24, 0x00E8	;  0x8000e8
    57ba:	83 ff       	sbrs	r24, 3
    57bc:	0a c0       	rjmp	.+20     	;  0x57d2
    57be:	80 91 e8 00 	lds	r24, 0x00E8	;  0x8000e8
    57c2:	87 7f       	andi	r24, 0xF7	; 247
    57c4:	80 93 e8 00 	sts	0x00E8, r24	;  0x8000e8
    57c8:	80 91 eb 00 	lds	r24, 0x00EB	;  0x8000eb
    57cc:	80 62       	ori	r24, 0x20	; 32
    57ce:	80 93 eb 00 	sts	0x00EB, r24	;  0x8000eb
    57d2:	aa 96       	adiw	r28, 0x2a	; 42
    57d4:	0f b6       	in	r0, 0x3f	; 63
    57d6:	f8 94       	cli
    57d8:	de bf       	out	0x3e, r29	; 62
    57da:	0f be       	out	0x3f, r0	; 63
    57dc:	cd bf       	out	0x3d, r28	; 61
    57de:	df 91       	pop	r29
    57e0:	cf 91       	pop	r28
    57e2:	1f 91       	pop	r17
    57e4:	08 95       	ret
    57e6:	cf 93       	push	r28
    57e8:	80 91 6a 02 	lds	r24, 0x026A	;  0x80026a
    57ec:	88 23       	and	r24, r24
    57ee:	a1 f0       	breq	.+40     	;  0x5818
    57f0:	c0 91 e9 00 	lds	r28, 0x00E9	;  0x8000e9
    57f4:	cf 70       	andi	r28, 0x0F	; 15
    57f6:	90 91 ec 00 	lds	r25, 0x00EC	;  0x8000ec
    57fa:	89 2f       	mov	r24, r25
    57fc:	81 70       	andi	r24, 0x01	; 1
    57fe:	90 fd       	sbrc	r25, 0
    5800:	80 e8       	ldi	r24, 0x80	; 128
    5802:	c8 2b       	or	r28, r24
    5804:	10 92 e9 00 	sts	0x00E9, r1	;  0x8000e9
    5808:	80 91 e8 00 	lds	r24, 0x00E8	;  0x8000e8
    580c:	83 fd       	sbrc	r24, 3
    580e:	0e 94 a1 2a 	call	0x5542	;  0x5542
    5812:	cf 70       	andi	r28, 0x0F	; 15
    5814:	c0 93 e9 00 	sts	0x00E9, r28	;  0x8000e9
    5818:	cf 91       	pop	r28
    581a:	08 95       	ret
    581c:	99 1b       	sub	r25, r25
    581e:	79 e0       	ldi	r23, 0x09	; 9
    5820:	04 c0       	rjmp	.+8      	;  0x582a
    5822:	99 1f       	adc	r25, r25
    5824:	96 17       	cp	r25, r22
    5826:	08 f0       	brcs	.+2      	;  0x582a
    5828:	96 1b       	sub	r25, r22
    582a:	88 1f       	adc	r24, r24
    582c:	7a 95       	dec	r23
    582e:	c9 f7       	brne	.-14     	;  0x5822
    5830:	80 95       	com	r24
    5832:	08 95       	ret
    5834:	97 fb       	bst	r25, 7
    5836:	07 2e       	mov	r0, r23
    5838:	16 f4       	brtc	.+4      	;  0x583e
    583a:	00 94       	com	r0
    583c:	07 d0       	rcall	.+14     	;  0x584c
    583e:	77 fd       	sbrc	r23, 7
    5840:	09 d0       	rcall	.+18     	;  0x5854
    5842:	0e 94 34 2c 	call	0x5868	;  0x5868
    5846:	07 fc       	sbrc	r0, 7
    5848:	05 d0       	rcall	.+10     	;  0x5854
    584a:	3e f4       	brtc	.+14     	;  0x585a
    584c:	90 95       	com	r25
    584e:	81 95       	neg	r24
    5850:	9f 4f       	sbci	r25, 0xFF	; 255
    5852:	08 95       	ret
    5854:	70 95       	com	r23
    5856:	61 95       	neg	r22
    5858:	7f 4f       	sbci	r23, 0xFF	; 255
    585a:	08 95       	ret
    585c:	ee 0f       	add	r30, r30
    585e:	ff 1f       	adc	r31, r31
    5860:	05 90       	lpm	r0, Z+
    5862:	f4 91       	lpm	r31, Z
    5864:	e0 2d       	mov	r30, r0
    5866:	09 94       	ijmp
    5868:	aa 1b       	sub	r26, r26
    586a:	bb 1b       	sub	r27, r27
    586c:	51 e1       	ldi	r21, 0x11	; 17
    586e:	07 c0       	rjmp	.+14     	;  0x587e
    5870:	aa 1f       	adc	r26, r26
    5872:	bb 1f       	adc	r27, r27
    5874:	a6 17       	cp	r26, r22
    5876:	b7 07       	cpc	r27, r23
    5878:	10 f0       	brcs	.+4      	;  0x587e
    587a:	a6 1b       	sub	r26, r22
    587c:	b7 0b       	sbc	r27, r23
    587e:	88 1f       	adc	r24, r24
    5880:	99 1f       	adc	r25, r25
    5882:	5a 95       	dec	r21
    5884:	a9 f7       	brne	.-22     	;  0x5870
    5886:	80 95       	com	r24
    5888:	90 95       	com	r25
    588a:	bc 01       	movw	r22, r24
    588c:	cd 01       	movw	r24, r26
    588e:	08 95       	ret
    5890:	fb 01       	movw	r30, r22
    5892:	dc 01       	movw	r26, r24
    5894:	0d 90       	ld	r0, X+
    5896:	00 20       	and	r0, r0
    5898:	e9 f7       	brne	.-6      	;  0x5894
    589a:	11 97       	sbiw	r26, 0x01	; 1
    589c:	01 90       	ld	r0, Z+
    589e:	0d 92       	st	X+, r0
    58a0:	00 20       	and	r0, r0
    58a2:	e1 f7       	brne	.-8      	;  0x589c
    58a4:	08 95       	ret
    58a6:	fb 01       	movw	r30, r22
    58a8:	dc 01       	movw	r26, r24
    58aa:	01 90       	ld	r0, Z+
    58ac:	0d 92       	st	X+, r0
    58ae:	00 20       	and	r0, r0
    58b0:	e1 f7       	brne	.-8      	;  0x58aa
    58b2:	08 95       	ret
    58b4:	f9 99       	sbic	0x1f, 1	; 31
    58b6:	fe cf       	rjmp	.-4      	;  0x58b4
    58b8:	92 bd       	out	0x22, r25	; 34
    58ba:	81 bd       	out	0x21, r24	; 33
    58bc:	f8 9a       	sbi	0x1f, 0	; 31
    58be:	99 27       	eor	r25, r25
    58c0:	80 b5       	in	r24, 0x20	; 32
    58c2:	08 95       	ret
    58c4:	a8 e1       	ldi	r26, 0x18	; 24
    58c6:	b0 e0       	ldi	r27, 0x00	; 0
    58c8:	42 e0       	ldi	r20, 0x02	; 2
    58ca:	50 e0       	ldi	r21, 0x00	; 0
    58cc:	0c 94 8e 2c 	jmp	0x591c	;  0x591c
    58d0:	26 2f       	mov	r18, r22
    58d2:	f9 99       	sbic	0x1f, 1	; 31
    58d4:	fe cf       	rjmp	.-4      	;  0x58d2
    58d6:	92 bd       	out	0x22, r25	; 34
    58d8:	81 bd       	out	0x21, r24	; 33
    58da:	f8 9a       	sbi	0x1f, 0	; 31
    58dc:	01 97       	sbiw	r24, 0x01	; 1
    58de:	00 b4       	in	r0, 0x20	; 32
    58e0:	02 16       	cp	r0, r18
    58e2:	39 f0       	breq	.+14     	;  0x58f2
    58e4:	1f ba       	out	0x1f, r1	; 31
    58e6:	20 bd       	out	0x20, r18	; 32
    58e8:	0f b6       	in	r0, 0x3f	; 63
    58ea:	f8 94       	cli
    58ec:	fa 9a       	sbi	0x1f, 2	; 31
    58ee:	f9 9a       	sbi	0x1f, 1	; 31
    58f0:	0f be       	out	0x3f, r0	; 63
    58f2:	08 95       	ret
    58f4:	03 96       	adiw	r24, 0x03	; 3
    58f6:	27 2f       	mov	r18, r23
    58f8:	0e 94 69 2c 	call	0x58d2	;  0x58d2
    58fc:	0e 94 68 2c 	call	0x58d0	;  0x58d0
    5900:	25 2f       	mov	r18, r21
    5902:	0e 94 69 2c 	call	0x58d2	;  0x58d2
    5906:	24 2f       	mov	r18, r20
    5908:	0c 94 69 2c 	jmp	0x58d2	;  0x58d2
    590c:	01 96       	adiw	r24, 0x01	; 1
    590e:	27 2f       	mov	r18, r23
    5910:	0e 94 69 2c 	call	0x58d2	;  0x58d2
    5914:	0c 94 68 2c 	jmp	0x58d0	;  0x58d0
    5918:	dc 01       	movw	r26, r24
    591a:	cb 01       	movw	r24, r22
    591c:	fc 01       	movw	r30, r24
    591e:	f9 99       	sbic	0x1f, 1	; 31
    5920:	fe cf       	rjmp	.-4      	;  0x591e
    5922:	06 c0       	rjmp	.+12     	;  0x5930
    5924:	f2 bd       	out	0x22, r31	; 34
    5926:	e1 bd       	out	0x21, r30	; 33
    5928:	f8 9a       	sbi	0x1f, 0	; 31
    592a:	31 96       	adiw	r30, 0x01	; 1
    592c:	00 b4       	in	r0, 0x20	; 32
    592e:	0d 92       	st	X+, r0
    5930:	41 50       	subi	r20, 0x01	; 1
    5932:	50 40       	sbci	r21, 0x00	; 0
    5934:	b8 f7       	brcc	.-18     	;  0x5924
    5936:	08 95       	ret
    5938:	f8 94       	cli
    593a:	ff cf       	rjmp	.-2      	;  0x593a
    593c:	93 11       	cpse	r25, r3
    593e:	93 11       	cpse	r25, r3
    5940:	eb 11       	cpse	r30, r11
    5942:	eb 11       	cpse	r30, r11
    5944:	3d 12       	cpse	r3, r29
    5946:	59 12       	cpse	r5, r25
    5948:	c0 11       	cpse	r28, r0
    594a:	c0 11       	cpse	r28, r0
    594c:	9b 12       	cpse	r9, r27
    594e:	27 13       	cpse	r18, r23
    5950:	36 13       	cpse	r19, r22
    5952:	36 13       	cpse	r19, r22
    5954:	92 13       	cpse	r25, r18
    5956:	c0 11       	cpse	r28, r0
    5958:	c0 11       	cpse	r28, r0
    595a:	9b 13       	cpse	r25, r27
    595c:	04 14       	cp	r0, r4
    595e:	04 14       	cp	r0, r4
    5960:	0d 14       	cp	r0, r13
    5962:	0d 14       	cp	r0, r13
    5964:	0f 14       	cp	r0, r15
    5966:	0d 14       	cp	r0, r13
    5968:	0d 14       	cp	r0, r13
    596a:	0d 14       	cp	r0, r13
    596c:	04 14       	cp	r0, r4
    596e:	04 14       	cp	r0, r4
    5970:	14 14       	cp	r1, r4
    5972:	0d 14       	cp	r0, r13
    5974:	0d 14       	cp	r0, r13
    5976:	14 14       	cp	r1, r4
    5978:	ca 2a       	or	r12, r26
    597a:	f2 2a       	or	r15, r18
    597c:	db 2b       	or	r29, r27
    597e:	f2 2a       	or	r15, r18
    5980:	db 2b       	or	r29, r27
    5982:	25 2b       	or	r18, r21
    5984:	46 2b       	or	r20, r22
    5986:	db 2b       	or	r29, r27
    5988:	9d 2b       	or	r25, r29
    598a:	a9 2b       	or	r26, r25
    598c:	29 02       	muls	r18, r25
    598e:	28 08       	sbc	r2, r8
    5990:	64 1e       	adc	r6, r20
    5992:	14 0a       	sbc	r1, r20
    5994:	32 1e       	adc	r3, r18
    5996:	75 24       	eor	r7, r5
    5998:	4e 25       	eor	r20, r14
    599a:	23 25       	eor	r18, r3
    599c:	1f 25       	eor	r17, r15
    599e:	0d 25       	eor	r16, r13
    59a0:	01 66       	ori	r16, 0x61	; 97
    59a2:	6c 61       	ori	r22, 0x1C	; 28
    59a4:	67 7b       	andi	r22, 0xB7	; 183
    59a6:	00 64       	ori	r16, 0x40	; 64
    59a8:	34 74       	andi	r19, 0x44	; 68
    59aa:	34 5f       	subi	r19, 0xF4	; 244
    59ac:	00 33       	cpi	r16, 0x30	; 48
    59ae:	78 66       	ori	r23, 0x68	; 104
    59b0:	31 6c       	ori	r19, 0xC1	; 193
    59b2:	5f 00       	.word	0x005f	; ????
    59b4:	72 33       	cpi	r23, 0x32	; 50
    59b6:	76 33       	cpi	r23, 0x36	; 54
    59b8:	72 73       	andi	r23, 0x32	; 50
    59ba:	33 5f       	subi	r19, 0xF3	; 243
    59bc:	00 33       	cpi	r16, 0x30	; 48
    59be:	6e 67       	ori	r22, 0x7E	; 126
    59c0:	31 6e       	ori	r19, 0xE1	; 225
    59c2:	33 33       	cpi	r19, 0x33	; 51
    59c4:	72 31       	cpi	r23, 0x12	; 18
    59c6:	6e 67       	ori	r22, 0x7E	; 126
    59c8:	7d 00       	.word	0x007d	; ????
    59ca:	e2 00       	.word	0x00e2	; ????
    59cc:	e9 00       	.word	0x00e9	; ????
    59ce:	ea 00       	.word	0x00ea	; ????
    59d0:	b5 00       	.word	0x00b5	; ????
    59d2:	b6 00       	.word	0x00b6	; ????
    59d4:	b7 00       	.word	0x00b7	; ????
    59d6:	cd 00       	.word	0x00cd	; ????
    59d8:	83 01       	movw	r16, r6
    59da:	cc 00       	.word	0x00cc	; ????
    59dc:	8a 01       	movw	r16, r20
    59de:	92 01       	movw	r18, r4
    59e0:	94 01       	movw	r18, r8
    59e2:	21 02       	muls	r18, r17
    59e4:	23 02       	muls	r18, r19
    59e6:	24 02       	muls	r18, r20
    59e8:	25 02       	muls	r18, r21
    59ea:	26 02       	muls	r18, r22
    59ec:	27 02       	muls	r18, r23
    59ee:	2a 02       	muls	r18, r26
    59f0:	b3 00       	.word	0x00b3	; ????
    59f2:	b4 00       	.word	0x00b4	; ????
    59f4:	6f 00       	.word	0x006f	; ????
    59f6:	70 00       	.word	0x0070	; ????
    59f8:	81 82       	std	Z+1, r8	; 0x01
    59fa:	83 f6       	brvc	.-96     	;  0x599c
    59fc:	f7 31       	cpi	r31, 0x17	; 23
    59fe:	33 66       	ori	r19, 0x63	; 99
    5a00:	97 c6       	rjmp	.+3374   	;  0x6730
    5a02:	34 35       	cpi	r19, 0x54	; 84
    5a04:	e2 00       	.word	0x00e2	; ????
    5a06:	e9 00       	.word	0x00e9	; ????
    5a08:	ea 00       	.word	0x00ea	; ????
    5a0a:	b5 00       	.word	0x00b5	; ????
    5a0c:	b6 00       	.word	0x00b6	; ????
    5a0e:	b7 00       	.word	0x00b7	; ????
    5a10:	cd 00       	.word	0x00cd	; ????
    5a12:	83 01       	movw	r16, r6
    5a14:	cc 00       	.word	0x00cc	; ????
    5a16:	8a 01       	movw	r16, r20
    5a18:	92 01       	movw	r18, r4
    5a1a:	94 01       	movw	r18, r8
    5a1c:	21 02       	muls	r18, r17
    5a1e:	23 02       	muls	r18, r19
    5a20:	24 02       	muls	r18, r20
    5a22:	25 02       	muls	r18, r21
    5a24:	26 02       	muls	r18, r22
    5a26:	27 02       	muls	r18, r23
    5a28:	2a 02       	muls	r18, r26
    5a2a:	b3 00       	.word	0x00b3	; ????
    5a2c:	b4 00       	.word	0x00b4	; ????
    5a2e:	6f 00       	.word	0x006f	; ????
    5a30:	70 00       	.word	0x0070	; ????
    5a32:	81 82       	std	Z+1, r8	; 0x01
    5a34:	83 01       	movw	r16, r6
    5a36:	02 03       	mulsu	r16, r18
    5a38:	04 05       	cpc	r16, r4
    5a3a:	06 07       	cpc	r16, r22
    5a3c:	08 09       	sbc	r16, r8
    5a3e:	00 40       	sbci	r16, 0x00	; 0
    5a40:	81 22       	and	r8, r17
    5a42:	49 0c       	add	r4, r9
    5a44:	c8 0b       	sbc	r28, r24
    5a46:	a6 0b       	sbc	r26, r22
    5a48:	4b 0b       	sbc	r20, r27
    5a4a:	64 0b       	sbc	r22, r20
    5a4c:	7d 0b       	sbc	r23, r29
    5a4e:	ff ff       	.word	0xffff	; ????
    5a50:	ff ff       	.word	0xffff	; ????
    5a52:	ff ff       	.word	0xffff	; ????
    5a54:	ff ff       	.word	0xffff	; ????
    5a56:	ff ff       	.word	0xffff	; ????
    5a58:	ff ff       	.word	0xffff	; ????
    5a5a:	ff ff       	.word	0xffff	; ????
    5a5c:	ff ff       	.word	0xffff	; ????
    5a5e:	ff ff       	.word	0xffff	; ????
    5a60:	ff ff       	.word	0xffff	; ????
    5a62:	ff ff       	.word	0xffff	; ????
    5a64:	ff ff       	.word	0xffff	; ????
    5a66:	ff ff       	.word	0xffff	; ????
    5a68:	ff ff       	.word	0xffff	; ????
    5a6a:	ff ff       	.word	0xffff	; ????
    5a6c:	ff ff       	.word	0xffff	; ????
    5a6e:	ff ff       	.word	0xffff	; ????
    5a70:	ff ff       	.word	0xffff	; ????
    5a72:	ff ff       	.word	0xffff	; ????
    5a74:	ff ff       	.word	0xffff	; ????
    5a76:	ff ff       	.word	0xffff	; ????
    5a78:	ff ff       	.word	0xffff	; ????
    5a7a:	ff ff       	.word	0xffff	; ????
    5a7c:	ff ff       	.word	0xffff	; ????
    5a7e:	ff ff       	.word	0xffff	; ????
    5a80:	ff ff       	.word	0xffff	; ????
    5a82:	ff ff       	.word	0xffff	; ????
    5a84:	ff ff       	.word	0xffff	; ????
    5a86:	ff ff       	.word	0xffff	; ????
    5a88:	ff ff       	.word	0xffff	; ????
    5a8a:	ff ff       	.word	0xffff	; ????
    5a8c:	ff ff       	.word	0xffff	; ????
    5a8e:	ff ff       	.word	0xffff	; ????
    5a90:	ff ff       	.word	0xffff	; ????
    5a92:	ff ff       	.word	0xffff	; ????
    5a94:	ff ff       	.word	0xffff	; ????
    5a96:	ff ff       	.word	0xffff	; ????
    5a98:	ff ff       	.word	0xffff	; ????
    5a9a:	ff ff       	.word	0xffff	; ????
    5a9c:	ff ff       	.word	0xffff	; ????
    5a9e:	ff ff       	.word	0xffff	; ????
    5aa0:	ff ff       	.word	0xffff	; ????
    5aa2:	ff ff       	.word	0xffff	; ????
    5aa4:	ff ff       	.word	0xffff	; ????
    5aa6:	ff ff       	.word	0xffff	; ????
    5aa8:	ff ff       	.word	0xffff	; ????
    5aaa:	ff ff       	.word	0xffff	; ????
    5aac:	ff ff       	.word	0xffff	; ????
    5aae:	ff ff       	.word	0xffff	; ????
    5ab0:	ff ff       	.word	0xffff	; ????
    5ab2:	ff ff       	.word	0xffff	; ????
    5ab4:	ff ff       	.word	0xffff	; ????
    5ab6:	ff ff       	.word	0xffff	; ????
    5ab8:	ff ff       	.word	0xffff	; ????
    5aba:	ff ff       	.word	0xffff	; ????
    5abc:	ff ff       	.word	0xffff	; ????
    5abe:	ff ff       	.word	0xffff	; ????
    5ac0:	ff ff       	.word	0xffff	; ????
    5ac2:	ff ff       	.word	0xffff	; ????
    5ac4:	ff ff       	.word	0xffff	; ????
    5ac6:	ff ff       	.word	0xffff	; ????
    5ac8:	ff ff       	.word	0xffff	; ????
    5aca:	ff ff       	.word	0xffff	; ????
    5acc:	ff ff       	.word	0xffff	; ????
    5ace:	ff ff       	.word	0xffff	; ????
    5ad0:	ff ff       	.word	0xffff	; ????
    5ad2:	ff ff       	.word	0xffff	; ????
    5ad4:	ff ff       	.word	0xffff	; ????
    5ad6:	ff ff       	.word	0xffff	; ????
    5ad8:	ff ff       	.word	0xffff	; ????
    5ada:	ff ff       	.word	0xffff	; ????
    5adc:	ff ff       	.word	0xffff	; ????
    5ade:	ff ff       	.word	0xffff	; ????
    5ae0:	ff ff       	.word	0xffff	; ????
    5ae2:	ff ff       	.word	0xffff	; ????
    5ae4:	ff ff       	.word	0xffff	; ????
    5ae6:	ff ff       	.word	0xffff	; ????
    5ae8:	ff ff       	.word	0xffff	; ????
    5aea:	ff ff       	.word	0xffff	; ????
    5aec:	ff ff       	.word	0xffff	; ????
    5aee:	ff ff       	.word	0xffff	; ????
    5af0:	ff ff       	.word	0xffff	; ????
    5af2:	ff ff       	.word	0xffff	; ????
    5af4:	ff ff       	.word	0xffff	; ????
    5af6:	ff ff       	.word	0xffff	; ????
    5af8:	ff ff       	.word	0xffff	; ????
    5afa:	ff ff       	.word	0xffff	; ????
    5afc:	ff ff       	.word	0xffff	; ????
    5afe:	ff ff       	.word	0xffff	; ????
    5b00:	ff ff       	.word	0xffff	; ????
    5b02:	ff ff       	.word	0xffff	; ????
    5b04:	ff ff       	.word	0xffff	; ????
    5b06:	ff ff       	.word	0xffff	; ????
    5b08:	ff ff       	.word	0xffff	; ????
    5b0a:	ff ff       	.word	0xffff	; ????
    5b0c:	ff ff       	.word	0xffff	; ????
    5b0e:	ff ff       	.word	0xffff	; ????
    5b10:	ff ff       	.word	0xffff	; ????
    5b12:	ff ff       	.word	0xffff	; ????
    5b14:	ff ff       	.word	0xffff	; ????
    5b16:	ff ff       	.word	0xffff	; ????
    5b18:	ff ff       	.word	0xffff	; ????
    5b1a:	ff ff       	.word	0xffff	; ????
    5b1c:	ff ff       	.word	0xffff	; ????
    5b1e:	ff ff       	.word	0xffff	; ????
    5b20:	ff ff       	.word	0xffff	; ????
    5b22:	ff ff       	.word	0xffff	; ????
    5b24:	ff ff       	.word	0xffff	; ????
    5b26:	ff ff       	.word	0xffff	; ????
    5b28:	ff ff       	.word	0xffff	; ????
    5b2a:	ff ff       	.word	0xffff	; ????
    5b2c:	ff ff       	.word	0xffff	; ????
    5b2e:	ff ff       	.word	0xffff	; ????
    5b30:	ff ff       	.word	0xffff	; ????
    5b32:	ff ff       	.word	0xffff	; ????
    5b34:	ff ff       	.word	0xffff	; ????
    5b36:	ff ff       	.word	0xffff	; ????
    5b38:	ff ff       	.word	0xffff	; ????
    5b3a:	ff ff       	.word	0xffff	; ????
    5b3c:	ff ff       	.word	0xffff	; ????
    5b3e:	ff ff       	.word	0xffff	; ????
    5b40:	ff ff       	.word	0xffff	; ????
    5b42:	ff ff       	.word	0xffff	; ????
    5b44:	ff ff       	.word	0xffff	; ????
    5b46:	ff ff       	.word	0xffff	; ????
    5b48:	ff ff       	.word	0xffff	; ????
    5b4a:	ff ff       	.word	0xffff	; ????
    5b4c:	ff ff       	.word	0xffff	; ????
    5b4e:	ff ff       	.word	0xffff	; ????
    5b50:	ff ff       	.word	0xffff	; ????
    5b52:	ff ff       	.word	0xffff	; ????
    5b54:	ff ff       	.word	0xffff	; ????
    5b56:	ff ff       	.word	0xffff	; ????
    5b58:	ff ff       	.word	0xffff	; ????
    5b5a:	ff ff       	.word	0xffff	; ????
    5b5c:	ff ff       	.word	0xffff	; ????
    5b5e:	ff ff       	.word	0xffff	; ????
    5b60:	ff ff       	.word	0xffff	; ????
    5b62:	ff ff       	.word	0xffff	; ????
    5b64:	ff ff       	.word	0xffff	; ????
    5b66:	ff ff       	.word	0xffff	; ????
    5b68:	ff ff       	.word	0xffff	; ????
    5b6a:	ff ff       	.word	0xffff	; ????
    5b6c:	ff ff       	.word	0xffff	; ????
    5b6e:	ff ff       	.word	0xffff	; ????
    5b70:	ff ff       	.word	0xffff	; ????
    5b72:	ff ff       	.word	0xffff	; ????
    5b74:	ff ff       	.word	0xffff	; ????
    5b76:	ff ff       	.word	0xffff	; ????
    5b78:	ff ff       	.word	0xffff	; ????
    5b7a:	ff ff       	.word	0xffff	; ????
    5b7c:	ff ff       	.word	0xffff	; ????
    5b7e:	ff ff       	.word	0xffff	; ????
    5b80:	ff ff       	.word	0xffff	; ????
    5b82:	ff ff       	.word	0xffff	; ????
    5b84:	ff ff       	.word	0xffff	; ????
    5b86:	ff ff       	.word	0xffff	; ????
    5b88:	ff ff       	.word	0xffff	; ????
    5b8a:	ff ff       	.word	0xffff	; ????
    5b8c:	ff ff       	.word	0xffff	; ????
    5b8e:	ff ff       	.word	0xffff	; ????
    5b90:	ff ff       	.word	0xffff	; ????
    5b92:	ff ff       	.word	0xffff	; ????
    5b94:	ff ff       	.word	0xffff	; ????
    5b96:	ff ff       	.word	0xffff	; ????
    5b98:	ff ff       	.word	0xffff	; ????
    5b9a:	ff ff       	.word	0xffff	; ????
    5b9c:	ff ff       	.word	0xffff	; ????
    5b9e:	ff ff       	.word	0xffff	; ????
    5ba0:	ff ff       	.word	0xffff	; ????
    5ba2:	ff ff       	.word	0xffff	; ????
    5ba4:	ff ff       	.word	0xffff	; ????
    5ba6:	ff ff       	.word	0xffff	; ????
    5ba8:	ff ff       	.word	0xffff	; ????
    5baa:	ff ff       	.word	0xffff	; ????
    5bac:	ff ff       	.word	0xffff	; ????
    5bae:	ff ff       	.word	0xffff	; ????
    5bb0:	ff ff       	.word	0xffff	; ????
    5bb2:	ff ff       	.word	0xffff	; ????
    5bb4:	ff ff       	.word	0xffff	; ????
    5bb6:	ff ff       	.word	0xffff	; ????
    5bb8:	ff ff       	.word	0xffff	; ????
    5bba:	ff ff       	.word	0xffff	; ????
    5bbc:	ff ff       	.word	0xffff	; ????
    5bbe:	ff ff       	.word	0xffff	; ????
    5bc0:	ff ff       	.word	0xffff	; ????
    5bc2:	ff ff       	.word	0xffff	; ????
    5bc4:	ff ff       	.word	0xffff	; ????
    5bc6:	ff ff       	.word	0xffff	; ????
    5bc8:	ff ff       	.word	0xffff	; ????
    5bca:	ff ff       	.word	0xffff	; ????
    5bcc:	ff ff       	.word	0xffff	; ????
    5bce:	ff ff       	.word	0xffff	; ????
    5bd0:	ff ff       	.word	0xffff	; ????
    5bd2:	ff ff       	.word	0xffff	; ????
    5bd4:	ff ff       	.word	0xffff	; ????
    5bd6:	ff ff       	.word	0xffff	; ????
    5bd8:	ff ff       	.word	0xffff	; ????
    5bda:	ff ff       	.word	0xffff	; ????
    5bdc:	ff ff       	.word	0xffff	; ????
    5bde:	ff ff       	.word	0xffff	; ????
    5be0:	ff ff       	.word	0xffff	; ????
    5be2:	ff ff       	.word	0xffff	; ????
    5be4:	ff ff       	.word	0xffff	; ????
    5be6:	ff ff       	.word	0xffff	; ????
    5be8:	ff ff       	.word	0xffff	; ????
    5bea:	ff ff       	.word	0xffff	; ????
    5bec:	ff ff       	.word	0xffff	; ????
    5bee:	ff ff       	.word	0xffff	; ????
    5bf0:	ff ff       	.word	0xffff	; ????
    5bf2:	ff ff       	.word	0xffff	; ????
    5bf4:	ff ff       	.word	0xffff	; ????
    5bf6:	ff ff       	.word	0xffff	; ????
    5bf8:	ff ff       	.word	0xffff	; ????
    5bfa:	ff ff       	.word	0xffff	; ????
    5bfc:	ff ff       	.word	0xffff	; ????
    5bfe:	ff ff       	.word	0xffff	; ????
    5c00:	ff ff       	.word	0xffff	; ????
    5c02:	ff ff       	.word	0xffff	; ????
    5c04:	ff ff       	.word	0xffff	; ????
    5c06:	ff ff       	.word	0xffff	; ????
    5c08:	ff ff       	.word	0xffff	; ????
    5c0a:	ff ff       	.word	0xffff	; ????
    5c0c:	ff ff       	.word	0xffff	; ????
    5c0e:	ff ff       	.word	0xffff	; ????
    5c10:	ff ff       	.word	0xffff	; ????
    5c12:	ff ff       	.word	0xffff	; ????
    5c14:	ff ff       	.word	0xffff	; ????
    5c16:	ff ff       	.word	0xffff	; ????
    5c18:	ff ff       	.word	0xffff	; ????
    5c1a:	ff ff       	.word	0xffff	; ????
    5c1c:	ff ff       	.word	0xffff	; ????
    5c1e:	ff ff       	.word	0xffff	; ????
    5c20:	ff ff       	.word	0xffff	; ????
    5c22:	ff ff       	.word	0xffff	; ????
    5c24:	ff ff       	.word	0xffff	; ????
    5c26:	ff ff       	.word	0xffff	; ????
    5c28:	ff ff       	.word	0xffff	; ????
    5c2a:	ff ff       	.word	0xffff	; ????
    5c2c:	ff ff       	.word	0xffff	; ????
    5c2e:	ff ff       	.word	0xffff	; ????
    5c30:	ff ff       	.word	0xffff	; ????
    5c32:	ff ff       	.word	0xffff	; ????
    5c34:	ff ff       	.word	0xffff	; ????
    5c36:	ff ff       	.word	0xffff	; ????
    5c38:	ff ff       	.word	0xffff	; ????
    5c3a:	ff ff       	.word	0xffff	; ????
    5c3c:	ff ff       	.word	0xffff	; ????
    5c3e:	ff ff       	.word	0xffff	; ????
    5c40:	ff ff       	.word	0xffff	; ????
    5c42:	ff ff       	.word	0xffff	; ????
    5c44:	ff ff       	.word	0xffff	; ????
    5c46:	ff ff       	.word	0xffff	; ????
    5c48:	ff ff       	.word	0xffff	; ????
    5c4a:	ff ff       	.word	0xffff	; ????
    5c4c:	ff ff       	.word	0xffff	; ????
    5c4e:	ff ff       	.word	0xffff	; ????
    5c50:	ff ff       	.word	0xffff	; ????
    5c52:	ff ff       	.word	0xffff	; ????
    5c54:	ff ff       	.word	0xffff	; ????
    5c56:	ff ff       	.word	0xffff	; ????
    5c58:	ff ff       	.word	0xffff	; ????
    5c5a:	ff ff       	.word	0xffff	; ????
    5c5c:	ff ff       	.word	0xffff	; ????
    5c5e:	ff ff       	.word	0xffff	; ????
    5c60:	ff ff       	.word	0xffff	; ????
    5c62:	ff ff       	.word	0xffff	; ????
    5c64:	ff ff       	.word	0xffff	; ????
    5c66:	ff ff       	.word	0xffff	; ????
    5c68:	ff ff       	.word	0xffff	; ????
    5c6a:	ff ff       	.word	0xffff	; ????
    5c6c:	ff ff       	.word	0xffff	; ????
    5c6e:	ff ff       	.word	0xffff	; ????
    5c70:	ff ff       	.word	0xffff	; ????
    5c72:	ff ff       	.word	0xffff	; ????
    5c74:	ff ff       	.word	0xffff	; ????
    5c76:	ff ff       	.word	0xffff	; ????
    5c78:	ff ff       	.word	0xffff	; ????
    5c7a:	ff ff       	.word	0xffff	; ????
    5c7c:	ff ff       	.word	0xffff	; ????
    5c7e:	ff ff       	.word	0xffff	; ????
    5c80:	ff ff       	.word	0xffff	; ????
    5c82:	ff ff       	.word	0xffff	; ????
    5c84:	ff ff       	.word	0xffff	; ????
    5c86:	ff ff       	.word	0xffff	; ????
    5c88:	ff ff       	.word	0xffff	; ????
    5c8a:	ff ff       	.word	0xffff	; ????
    5c8c:	ff ff       	.word	0xffff	; ????
    5c8e:	ff ff       	.word	0xffff	; ????
    5c90:	ff ff       	.word	0xffff	; ????
    5c92:	ff ff       	.word	0xffff	; ????
    5c94:	ff ff       	.word	0xffff	; ????
    5c96:	ff ff       	.word	0xffff	; ????
    5c98:	ff ff       	.word	0xffff	; ????
    5c9a:	ff ff       	.word	0xffff	; ????
    5c9c:	ff ff       	.word	0xffff	; ????
    5c9e:	ff ff       	.word	0xffff	; ????
    5ca0:	ff ff       	.word	0xffff	; ????
    5ca2:	ff ff       	.word	0xffff	; ????
    5ca4:	ff ff       	.word	0xffff	; ????
    5ca6:	ff ff       	.word	0xffff	; ????
    5ca8:	ff ff       	.word	0xffff	; ????
    5caa:	ff ff       	.word	0xffff	; ????
    5cac:	ff ff       	.word	0xffff	; ????
    5cae:	ff ff       	.word	0xffff	; ????
    5cb0:	ff ff       	.word	0xffff	; ????
    5cb2:	ff ff       	.word	0xffff	; ????
    5cb4:	ff ff       	.word	0xffff	; ????
    5cb6:	ff ff       	.word	0xffff	; ????
    5cb8:	ff ff       	.word	0xffff	; ????
    5cba:	ff ff       	.word	0xffff	; ????
    5cbc:	ff ff       	.word	0xffff	; ????
    5cbe:	ff ff       	.word	0xffff	; ????
    5cc0:	ff ff       	.word	0xffff	; ????
    5cc2:	ff ff       	.word	0xffff	; ????
    5cc4:	ff ff       	.word	0xffff	; ????
    5cc6:	ff ff       	.word	0xffff	; ????
    5cc8:	ff ff       	.word	0xffff	; ????
    5cca:	ff ff       	.word	0xffff	; ????
    5ccc:	ff ff       	.word	0xffff	; ????
    5cce:	ff ff       	.word	0xffff	; ????
    5cd0:	ff ff       	.word	0xffff	; ????
    5cd2:	ff ff       	.word	0xffff	; ????
    5cd4:	ff ff       	.word	0xffff	; ????
    5cd6:	ff ff       	.word	0xffff	; ????
    5cd8:	ff ff       	.word	0xffff	; ????
    5cda:	ff ff       	.word	0xffff	; ????
    5cdc:	ff ff       	.word	0xffff	; ????
    5cde:	ff ff       	.word	0xffff	; ????
    5ce0:	ff ff       	.word	0xffff	; ????
    5ce2:	ff ff       	.word	0xffff	; ????
    5ce4:	ff ff       	.word	0xffff	; ????
    5ce6:	ff ff       	.word	0xffff	; ????
    5ce8:	ff ff       	.word	0xffff	; ????
    5cea:	ff ff       	.word	0xffff	; ????
    5cec:	ff ff       	.word	0xffff	; ????
    5cee:	ff ff       	.word	0xffff	; ????
    5cf0:	ff ff       	.word	0xffff	; ????
    5cf2:	ff ff       	.word	0xffff	; ????
    5cf4:	ff ff       	.word	0xffff	; ????
    5cf6:	ff ff       	.word	0xffff	; ????
    5cf8:	ff ff       	.word	0xffff	; ????
    5cfa:	ff ff       	.word	0xffff	; ????
    5cfc:	ff ff       	.word	0xffff	; ????
    5cfe:	ff ff       	.word	0xffff	; ????
    5d00:	ff ff       	.word	0xffff	; ????
    5d02:	ff ff       	.word	0xffff	; ????
    5d04:	ff ff       	.word	0xffff	; ????
    5d06:	ff ff       	.word	0xffff	; ????
    5d08:	ff ff       	.word	0xffff	; ????
    5d0a:	ff ff       	.word	0xffff	; ????
    5d0c:	ff ff       	.word	0xffff	; ????
    5d0e:	ff ff       	.word	0xffff	; ????
    5d10:	ff ff       	.word	0xffff	; ????
    5d12:	ff ff       	.word	0xffff	; ????
    5d14:	ff ff       	.word	0xffff	; ????
    5d16:	ff ff       	.word	0xffff	; ????
    5d18:	ff ff       	.word	0xffff	; ????
    5d1a:	ff ff       	.word	0xffff	; ????
    5d1c:	ff ff       	.word	0xffff	; ????
    5d1e:	ff ff       	.word	0xffff	; ????
    5d20:	ff ff       	.word	0xffff	; ????
    5d22:	ff ff       	.word	0xffff	; ????
    5d24:	ff ff       	.word	0xffff	; ????
    5d26:	ff ff       	.word	0xffff	; ????
    5d28:	ff ff       	.word	0xffff	; ????
    5d2a:	ff ff       	.word	0xffff	; ????
    5d2c:	ff ff       	.word	0xffff	; ????
    5d2e:	ff ff       	.word	0xffff	; ????
    5d30:	ff ff       	.word	0xffff	; ????
    5d32:	ff ff       	.word	0xffff	; ????
    5d34:	ff ff       	.word	0xffff	; ????
    5d36:	ff ff       	.word	0xffff	; ????
    5d38:	ff ff       	.word	0xffff	; ????
    5d3a:	ff ff       	.word	0xffff	; ????
    5d3c:	ff ff       	.word	0xffff	; ????
    5d3e:	ff ff       	.word	0xffff	; ????
    5d40:	ff ff       	.word	0xffff	; ????
    5d42:	ff ff       	.word	0xffff	; ????
    5d44:	ff ff       	.word	0xffff	; ????
    5d46:	ff ff       	.word	0xffff	; ????
    5d48:	ff ff       	.word	0xffff	; ????
    5d4a:	ff ff       	.word	0xffff	; ????
    5d4c:	ff ff       	.word	0xffff	; ????
    5d4e:	ff ff       	.word	0xffff	; ????
    5d50:	ff ff       	.word	0xffff	; ????
    5d52:	ff ff       	.word	0xffff	; ????
    5d54:	ff ff       	.word	0xffff	; ????
    5d56:	ff ff       	.word	0xffff	; ????
    5d58:	ff ff       	.word	0xffff	; ????
    5d5a:	ff ff       	.word	0xffff	; ????
    5d5c:	ff ff       	.word	0xffff	; ????
    5d5e:	ff ff       	.word	0xffff	; ????
    5d60:	ff ff       	.word	0xffff	; ????
    5d62:	ff ff       	.word	0xffff	; ????
    5d64:	ff ff       	.word	0xffff	; ????
    5d66:	ff ff       	.word	0xffff	; ????
    5d68:	ff ff       	.word	0xffff	; ????
    5d6a:	ff ff       	.word	0xffff	; ????
    5d6c:	ff ff       	.word	0xffff	; ????
    5d6e:	ff ff       	.word	0xffff	; ????
    5d70:	ff ff       	.word	0xffff	; ????
    5d72:	ff ff       	.word	0xffff	; ????
    5d74:	ff ff       	.word	0xffff	; ????
    5d76:	ff ff       	.word	0xffff	; ????
    5d78:	ff ff       	.word	0xffff	; ????
    5d7a:	ff ff       	.word	0xffff	; ????
    5d7c:	ff ff       	.word	0xffff	; ????
    5d7e:	ff ff       	.word	0xffff	; ????
    5d80:	ff ff       	.word	0xffff	; ????
    5d82:	ff ff       	.word	0xffff	; ????
    5d84:	ff ff       	.word	0xffff	; ????
    5d86:	ff ff       	.word	0xffff	; ????
    5d88:	ff ff       	.word	0xffff	; ????
    5d8a:	ff ff       	.word	0xffff	; ????
    5d8c:	ff ff       	.word	0xffff	; ????
    5d8e:	ff ff       	.word	0xffff	; ????
    5d90:	ff ff       	.word	0xffff	; ????
    5d92:	ff ff       	.word	0xffff	; ????
    5d94:	ff ff       	.word	0xffff	; ????
    5d96:	ff ff       	.word	0xffff	; ????
    5d98:	ff ff       	.word	0xffff	; ????
    5d9a:	ff ff       	.word	0xffff	; ????
    5d9c:	ff ff       	.word	0xffff	; ????
    5d9e:	ff ff       	.word	0xffff	; ????
    5da0:	ff ff       	.word	0xffff	; ????
    5da2:	ff ff       	.word	0xffff	; ????
    5da4:	ff ff       	.word	0xffff	; ????
    5da6:	ff ff       	.word	0xffff	; ????
    5da8:	ff ff       	.word	0xffff	; ????
    5daa:	ff ff       	.word	0xffff	; ????
    5dac:	ff ff       	.word	0xffff	; ????
    5dae:	ff ff       	.word	0xffff	; ????
    5db0:	ff ff       	.word	0xffff	; ????
    5db2:	ff ff       	.word	0xffff	; ????
    5db4:	ff ff       	.word	0xffff	; ????
    5db6:	ff ff       	.word	0xffff	; ????
    5db8:	ff ff       	.word	0xffff	; ????
    5dba:	ff ff       	.word	0xffff	; ????
    5dbc:	ff ff       	.word	0xffff	; ????
    5dbe:	ff ff       	.word	0xffff	; ????
    5dc0:	ff ff       	.word	0xffff	; ????
    5dc2:	ff ff       	.word	0xffff	; ????
    5dc4:	ff ff       	.word	0xffff	; ????
    5dc6:	ff ff       	.word	0xffff	; ????
    5dc8:	ff ff       	.word	0xffff	; ????
    5dca:	ff ff       	.word	0xffff	; ????
    5dcc:	ff ff       	.word	0xffff	; ????
    5dce:	ff ff       	.word	0xffff	; ????
    5dd0:	ff ff       	.word	0xffff	; ????
    5dd2:	ff ff       	.word	0xffff	; ????
    5dd4:	ff ff       	.word	0xffff	; ????
    5dd6:	ff ff       	.word	0xffff	; ????
    5dd8:	ff ff       	.word	0xffff	; ????
    5dda:	ff ff       	.word	0xffff	; ????
    5ddc:	ff ff       	.word	0xffff	; ????
    5dde:	ff ff       	.word	0xffff	; ????
    5de0:	ff ff       	.word	0xffff	; ????
    5de2:	ff ff       	.word	0xffff	; ????
    5de4:	ff ff       	.word	0xffff	; ????
    5de6:	ff ff       	.word	0xffff	; ????
    5de8:	ff ff       	.word	0xffff	; ????
    5dea:	ff ff       	.word	0xffff	; ????
    5dec:	ff ff       	.word	0xffff	; ????
    5dee:	ff ff       	.word	0xffff	; ????
    5df0:	ff ff       	.word	0xffff	; ????
    5df2:	ff ff       	.word	0xffff	; ????
    5df4:	ff ff       	.word	0xffff	; ????
    5df6:	ff ff       	.word	0xffff	; ????
    5df8:	ff ff       	.word	0xffff	; ????
    5dfa:	ff ff       	.word	0xffff	; ????
    5dfc:	ff ff       	.word	0xffff	; ????
    5dfe:	ff ff       	.word	0xffff	; ????
    5e00:	ff ff       	.word	0xffff	; ????
    5e02:	ff ff       	.word	0xffff	; ????
    5e04:	ff ff       	.word	0xffff	; ????
    5e06:	ff ff       	.word	0xffff	; ????
    5e08:	ff ff       	.word	0xffff	; ????
    5e0a:	ff ff       	.word	0xffff	; ????
    5e0c:	ff ff       	.word	0xffff	; ????
    5e0e:	ff ff       	.word	0xffff	; ????
    5e10:	ff ff       	.word	0xffff	; ????
    5e12:	ff ff       	.word	0xffff	; ????
    5e14:	ff ff       	.word	0xffff	; ????
    5e16:	ff ff       	.word	0xffff	; ????
    5e18:	ff ff       	.word	0xffff	; ????
    5e1a:	ff ff       	.word	0xffff	; ????
    5e1c:	ff ff       	.word	0xffff	; ????
    5e1e:	ff ff       	.word	0xffff	; ????
    5e20:	ff ff       	.word	0xffff	; ????
    5e22:	ff ff       	.word	0xffff	; ????
    5e24:	ff ff       	.word	0xffff	; ????
    5e26:	ff ff       	.word	0xffff	; ????
    5e28:	ff ff       	.word	0xffff	; ????
    5e2a:	ff ff       	.word	0xffff	; ????
    5e2c:	ff ff       	.word	0xffff	; ????
    5e2e:	ff ff       	.word	0xffff	; ????
    5e30:	ff ff       	.word	0xffff	; ????
    5e32:	ff ff       	.word	0xffff	; ????
    5e34:	ff ff       	.word	0xffff	; ????
    5e36:	ff ff       	.word	0xffff	; ????
    5e38:	ff ff       	.word	0xffff	; ????
    5e3a:	ff ff       	.word	0xffff	; ????
    5e3c:	ff ff       	.word	0xffff	; ????
    5e3e:	ff ff       	.word	0xffff	; ????
    5e40:	ff ff       	.word	0xffff	; ????
    5e42:	ff ff       	.word	0xffff	; ????
    5e44:	ff ff       	.word	0xffff	; ????
    5e46:	ff ff       	.word	0xffff	; ????
    5e48:	ff ff       	.word	0xffff	; ????
    5e4a:	ff ff       	.word	0xffff	; ????
    5e4c:	ff ff       	.word	0xffff	; ????
    5e4e:	ff ff       	.word	0xffff	; ????
    5e50:	ff ff       	.word	0xffff	; ????
    5e52:	ff ff       	.word	0xffff	; ????
    5e54:	ff ff       	.word	0xffff	; ????
    5e56:	ff ff       	.word	0xffff	; ????
    5e58:	ff ff       	.word	0xffff	; ????
    5e5a:	ff ff       	.word	0xffff	; ????
    5e5c:	ff ff       	.word	0xffff	; ????
    5e5e:	ff ff       	.word	0xffff	; ????
    5e60:	ff ff       	.word	0xffff	; ????
    5e62:	ff ff       	.word	0xffff	; ????
    5e64:	ff ff       	.word	0xffff	; ????
    5e66:	ff ff       	.word	0xffff	; ????
    5e68:	ff ff       	.word	0xffff	; ????
    5e6a:	ff ff       	.word	0xffff	; ????
    5e6c:	ff ff       	.word	0xffff	; ????
    5e6e:	ff ff       	.word	0xffff	; ????
    5e70:	ff ff       	.word	0xffff	; ????
    5e72:	ff ff       	.word	0xffff	; ????
    5e74:	ff ff       	.word	0xffff	; ????
    5e76:	ff ff       	.word	0xffff	; ????
    5e78:	ff ff       	.word	0xffff	; ????
    5e7a:	ff ff       	.word	0xffff	; ????
    5e7c:	ff ff       	.word	0xffff	; ????
    5e7e:	ff ff       	.word	0xffff	; ????
    5e80:	ff ff       	.word	0xffff	; ????
    5e82:	ff ff       	.word	0xffff	; ????
    5e84:	ff ff       	.word	0xffff	; ????
    5e86:	ff ff       	.word	0xffff	; ????
    5e88:	ff ff       	.word	0xffff	; ????
    5e8a:	ff ff       	.word	0xffff	; ????
    5e8c:	ff ff       	.word	0xffff	; ????
    5e8e:	ff ff       	.word	0xffff	; ????
    5e90:	ff ff       	.word	0xffff	; ????
    5e92:	ff ff       	.word	0xffff	; ????
    5e94:	ff ff       	.word	0xffff	; ????
    5e96:	ff ff       	.word	0xffff	; ????
    5e98:	ff ff       	.word	0xffff	; ????
    5e9a:	ff ff       	.word	0xffff	; ????
    5e9c:	ff ff       	.word	0xffff	; ????
    5e9e:	ff ff       	.word	0xffff	; ????
    5ea0:	ff ff       	.word	0xffff	; ????
    5ea2:	ff ff       	.word	0xffff	; ????
    5ea4:	ff ff       	.word	0xffff	; ????
    5ea6:	ff ff       	.word	0xffff	; ????
    5ea8:	ff ff       	.word	0xffff	; ????
    5eaa:	ff ff       	.word	0xffff	; ????
    5eac:	ff ff       	.word	0xffff	; ????
    5eae:	ff ff       	.word	0xffff	; ????
    5eb0:	ff ff       	.word	0xffff	; ????
    5eb2:	ff ff       	.word	0xffff	; ????
    5eb4:	ff ff       	.word	0xffff	; ????
    5eb6:	ff ff       	.word	0xffff	; ????
    5eb8:	ff ff       	.word	0xffff	; ????
    5eba:	ff ff       	.word	0xffff	; ????
    5ebc:	ff ff       	.word	0xffff	; ????
    5ebe:	ff ff       	.word	0xffff	; ????
    5ec0:	ff ff       	.word	0xffff	; ????
    5ec2:	ff ff       	.word	0xffff	; ????
    5ec4:	ff ff       	.word	0xffff	; ????
    5ec6:	ff ff       	.word	0xffff	; ????
    5ec8:	ff ff       	.word	0xffff	; ????
    5eca:	ff ff       	.word	0xffff	; ????
    5ecc:	ff ff       	.word	0xffff	; ????
    5ece:	ff ff       	.word	0xffff	; ????
    5ed0:	ff ff       	.word	0xffff	; ????
    5ed2:	ff ff       	.word	0xffff	; ????
    5ed4:	ff ff       	.word	0xffff	; ????
    5ed6:	ff ff       	.word	0xffff	; ????
    5ed8:	ff ff       	.word	0xffff	; ????
    5eda:	ff ff       	.word	0xffff	; ????
    5edc:	ff ff       	.word	0xffff	; ????
    5ede:	ff ff       	.word	0xffff	; ????
    5ee0:	ff ff       	.word	0xffff	; ????
    5ee2:	ff ff       	.word	0xffff	; ????
    5ee4:	ff ff       	.word	0xffff	; ????
    5ee6:	ff ff       	.word	0xffff	; ????
    5ee8:	ff ff       	.word	0xffff	; ????
    5eea:	ff ff       	.word	0xffff	; ????
    5eec:	ff ff       	.word	0xffff	; ????
    5eee:	ff ff       	.word	0xffff	; ????
    5ef0:	ff ff       	.word	0xffff	; ????
    5ef2:	ff ff       	.word	0xffff	; ????
    5ef4:	ff ff       	.word	0xffff	; ????
    5ef6:	ff ff       	.word	0xffff	; ????
    5ef8:	ff ff       	.word	0xffff	; ????
    5efa:	ff ff       	.word	0xffff	; ????
    5efc:	ff ff       	.word	0xffff	; ????
    5efe:	ff ff       	.word	0xffff	; ????
    5f00:	ff ff       	.word	0xffff	; ????
    5f02:	ff ff       	.word	0xffff	; ????
    5f04:	ff ff       	.word	0xffff	; ????
    5f06:	ff ff       	.word	0xffff	; ????
    5f08:	ff ff       	.word	0xffff	; ????
    5f0a:	ff ff       	.word	0xffff	; ????
    5f0c:	ff ff       	.word	0xffff	; ????
    5f0e:	ff ff       	.word	0xffff	; ????
    5f10:	ff ff       	.word	0xffff	; ????
    5f12:	ff ff       	.word	0xffff	; ????
    5f14:	ff ff       	.word	0xffff	; ????
    5f16:	ff ff       	.word	0xffff	; ????
    5f18:	ff ff       	.word	0xffff	; ????
    5f1a:	ff ff       	.word	0xffff	; ????
    5f1c:	ff ff       	.word	0xffff	; ????
    5f1e:	ff ff       	.word	0xffff	; ????
    5f20:	ff ff       	.word	0xffff	; ????
    5f22:	ff ff       	.word	0xffff	; ????
    5f24:	ff ff       	.word	0xffff	; ????
    5f26:	ff ff       	.word	0xffff	; ????
    5f28:	ff ff       	.word	0xffff	; ????
    5f2a:	ff ff       	.word	0xffff	; ????
    5f2c:	ff ff       	.word	0xffff	; ????
    5f2e:	ff ff       	.word	0xffff	; ????
    5f30:	ff ff       	.word	0xffff	; ????
    5f32:	ff ff       	.word	0xffff	; ????
    5f34:	ff ff       	.word	0xffff	; ????
    5f36:	ff ff       	.word	0xffff	; ????
    5f38:	ff ff       	.word	0xffff	; ????
    5f3a:	ff ff       	.word	0xffff	; ????
    5f3c:	ff ff       	.word	0xffff	; ????
    5f3e:	ff ff       	.word	0xffff	; ????
    5f40:	ff ff       	.word	0xffff	; ????
    5f42:	ff ff       	.word	0xffff	; ????
    5f44:	ff ff       	.word	0xffff	; ????
    5f46:	ff ff       	.word	0xffff	; ????
    5f48:	ff ff       	.word	0xffff	; ????
    5f4a:	ff ff       	.word	0xffff	; ????
    5f4c:	ff ff       	.word	0xffff	; ????
    5f4e:	ff ff       	.word	0xffff	; ????
    5f50:	ff ff       	.word	0xffff	; ????
    5f52:	ff ff       	.word	0xffff	; ????
    5f54:	ff ff       	.word	0xffff	; ????
    5f56:	ff ff       	.word	0xffff	; ????
    5f58:	ff ff       	.word	0xffff	; ????
    5f5a:	ff ff       	.word	0xffff	; ????
    5f5c:	ff ff       	.word	0xffff	; ????
    5f5e:	ff ff       	.word	0xffff	; ????
    5f60:	ff ff       	.word	0xffff	; ????
    5f62:	ff ff       	.word	0xffff	; ????
    5f64:	ff ff       	.word	0xffff	; ????
    5f66:	ff ff       	.word	0xffff	; ????
    5f68:	ff ff       	.word	0xffff	; ????
    5f6a:	ff ff       	.word	0xffff	; ????
    5f6c:	ff ff       	.word	0xffff	; ????
    5f6e:	ff ff       	.word	0xffff	; ????
    5f70:	ff ff       	.word	0xffff	; ????
    5f72:	ff ff       	.word	0xffff	; ????
    5f74:	ff ff       	.word	0xffff	; ????
    5f76:	ff ff       	.word	0xffff	; ????
    5f78:	ff ff       	.word	0xffff	; ????
    5f7a:	ff ff       	.word	0xffff	; ????
    5f7c:	ff ff       	.word	0xffff	; ????
    5f7e:	ff ff       	.word	0xffff	; ????
    5f80:	ff ff       	.word	0xffff	; ????
    5f82:	ff ff       	.word	0xffff	; ????
    5f84:	ff ff       	.word	0xffff	; ????
    5f86:	ff ff       	.word	0xffff	; ????
    5f88:	ff ff       	.word	0xffff	; ????
    5f8a:	ff ff       	.word	0xffff	; ????
    5f8c:	ff ff       	.word	0xffff	; ????
    5f8e:	ff ff       	.word	0xffff	; ????
    5f90:	ff ff       	.word	0xffff	; ????
    5f92:	ff ff       	.word	0xffff	; ????
    5f94:	ff ff       	.word	0xffff	; ????
    5f96:	ff ff       	.word	0xffff	; ????
    5f98:	ff ff       	.word	0xffff	; ????
    5f9a:	ff ff       	.word	0xffff	; ????
    5f9c:	ff ff       	.word	0xffff	; ????
    5f9e:	ff ff       	.word	0xffff	; ????
    5fa0:	ff ff       	.word	0xffff	; ????
    5fa2:	ff ff       	.word	0xffff	; ????
    5fa4:	ff ff       	.word	0xffff	; ????
    5fa6:	ff ff       	.word	0xffff	; ????
    5fa8:	ff ff       	.word	0xffff	; ????
    5faa:	ff ff       	.word	0xffff	; ????
    5fac:	ff ff       	.word	0xffff	; ????
    5fae:	ff ff       	.word	0xffff	; ????
    5fb0:	ff ff       	.word	0xffff	; ????
    5fb2:	ff ff       	.word	0xffff	; ????
    5fb4:	ff ff       	.word	0xffff	; ????
    5fb6:	ff ff       	.word	0xffff	; ????
    5fb8:	ff ff       	.word	0xffff	; ????
    5fba:	ff ff       	.word	0xffff	; ????
    5fbc:	ff ff       	.word	0xffff	; ????
    5fbe:	ff ff       	.word	0xffff	; ????
    5fc0:	ff ff       	.word	0xffff	; ????
    5fc2:	ff ff       	.word	0xffff	; ????
    5fc4:	ff ff       	.word	0xffff	; ????
    5fc6:	ff ff       	.word	0xffff	; ????
    5fc8:	ff ff       	.word	0xffff	; ????
    5fca:	ff ff       	.word	0xffff	; ????
    5fcc:	ff ff       	.word	0xffff	; ????
    5fce:	ff ff       	.word	0xffff	; ????
    5fd0:	ff ff       	.word	0xffff	; ????
    5fd2:	ff ff       	.word	0xffff	; ????
    5fd4:	ff ff       	.word	0xffff	; ????
    5fd6:	ff ff       	.word	0xffff	; ????
    5fd8:	ff ff       	.word	0xffff	; ????
    5fda:	ff ff       	.word	0xffff	; ????
    5fdc:	ff ff       	.word	0xffff	; ????
    5fde:	ff ff       	.word	0xffff	; ????
    5fe0:	ff ff       	.word	0xffff	; ????
    5fe2:	ff ff       	.word	0xffff	; ????
    5fe4:	ff ff       	.word	0xffff	; ????
    5fe6:	ff ff       	.word	0xffff	; ????
    5fe8:	ff ff       	.word	0xffff	; ????
    5fea:	ff ff       	.word	0xffff	; ????
    5fec:	ff ff       	.word	0xffff	; ????
    5fee:	ff ff       	.word	0xffff	; ????
    5ff0:	ff ff       	.word	0xffff	; ????
    5ff2:	ff ff       	.word	0xffff	; ????
    5ff4:	ff ff       	.word	0xffff	; ????
    5ff6:	ff ff       	.word	0xffff	; ????
    5ff8:	ff ff       	.word	0xffff	; ????
    5ffa:	ff ff       	.word	0xffff	; ????
    5ffc:	ff ff       	.word	0xffff	; ????
    5ffe:	ff ff       	.word	0xffff	; ????
    6000:	ff ff       	.word	0xffff	; ????
    6002:	ff ff       	.word	0xffff	; ????
    6004:	ff ff       	.word	0xffff	; ????
    6006:	ff ff       	.word	0xffff	; ????
    6008:	ff ff       	.word	0xffff	; ????
    600a:	ff ff       	.word	0xffff	; ????
    600c:	ff ff       	.word	0xffff	; ????
    600e:	ff ff       	.word	0xffff	; ????
    6010:	ff ff       	.word	0xffff	; ????
    6012:	ff ff       	.word	0xffff	; ????
    6014:	ff ff       	.word	0xffff	; ????
    6016:	ff ff       	.word	0xffff	; ????
    6018:	ff ff       	.word	0xffff	; ????
    601a:	ff ff       	.word	0xffff	; ????
    601c:	ff ff       	.word	0xffff	; ????
    601e:	ff ff       	.word	0xffff	; ????
    6020:	ff ff       	.word	0xffff	; ????
    6022:	ff ff       	.word	0xffff	; ????
    6024:	ff ff       	.word	0xffff	; ????
    6026:	ff ff       	.word	0xffff	; ????
    6028:	ff ff       	.word	0xffff	; ????
    602a:	ff ff       	.word	0xffff	; ????
    602c:	ff ff       	.word	0xffff	; ????
    602e:	ff ff       	.word	0xffff	; ????
    6030:	ff ff       	.word	0xffff	; ????
    6032:	ff ff       	.word	0xffff	; ????
    6034:	ff ff       	.word	0xffff	; ????
    6036:	ff ff       	.word	0xffff	; ????
    6038:	ff ff       	.word	0xffff	; ????
    603a:	ff ff       	.word	0xffff	; ????
    603c:	ff ff       	.word	0xffff	; ????
    603e:	ff ff       	.word	0xffff	; ????
    6040:	ff ff       	.word	0xffff	; ????
    6042:	ff ff       	.word	0xffff	; ????
    6044:	ff ff       	.word	0xffff	; ????
    6046:	ff ff       	.word	0xffff	; ????
    6048:	ff ff       	.word	0xffff	; ????
    604a:	ff ff       	.word	0xffff	; ????
    604c:	ff ff       	.word	0xffff	; ????
    604e:	ff ff       	.word	0xffff	; ????
    6050:	ff ff       	.word	0xffff	; ????
    6052:	ff ff       	.word	0xffff	; ????
    6054:	ff ff       	.word	0xffff	; ????
    6056:	ff ff       	.word	0xffff	; ????
    6058:	ff ff       	.word	0xffff	; ????
    605a:	ff ff       	.word	0xffff	; ????
    605c:	ff ff       	.word	0xffff	; ????
    605e:	ff ff       	.word	0xffff	; ????
    6060:	ff ff       	.word	0xffff	; ????
    6062:	ff ff       	.word	0xffff	; ????
    6064:	ff ff       	.word	0xffff	; ????
    6066:	ff ff       	.word	0xffff	; ????
    6068:	ff ff       	.word	0xffff	; ????
    606a:	ff ff       	.word	0xffff	; ????
    606c:	ff ff       	.word	0xffff	; ????
    606e:	ff ff       	.word	0xffff	; ????
    6070:	ff ff       	.word	0xffff	; ????
    6072:	ff ff       	.word	0xffff	; ????
    6074:	ff ff       	.word	0xffff	; ????
    6076:	ff ff       	.word	0xffff	; ????
    6078:	ff ff       	.word	0xffff	; ????
    607a:	ff ff       	.word	0xffff	; ????
    607c:	ff ff       	.word	0xffff	; ????
    607e:	ff ff       	.word	0xffff	; ????
    6080:	ff ff       	.word	0xffff	; ????
    6082:	ff ff       	.word	0xffff	; ????
    6084:	ff ff       	.word	0xffff	; ????
    6086:	ff ff       	.word	0xffff	; ????
    6088:	ff ff       	.word	0xffff	; ????
    608a:	ff ff       	.word	0xffff	; ????
    608c:	ff ff       	.word	0xffff	; ????
    608e:	ff ff       	.word	0xffff	; ????
    6090:	ff ff       	.word	0xffff	; ????
    6092:	ff ff       	.word	0xffff	; ????
    6094:	ff ff       	.word	0xffff	; ????
    6096:	ff ff       	.word	0xffff	; ????
    6098:	ff ff       	.word	0xffff	; ????
    609a:	ff ff       	.word	0xffff	; ????
    609c:	ff ff       	.word	0xffff	; ????
    609e:	ff ff       	.word	0xffff	; ????
    60a0:	ff ff       	.word	0xffff	; ????
    60a2:	ff ff       	.word	0xffff	; ????
    60a4:	ff ff       	.word	0xffff	; ????
    60a6:	ff ff       	.word	0xffff	; ????
    60a8:	ff ff       	.word	0xffff	; ????
    60aa:	ff ff       	.word	0xffff	; ????
    60ac:	ff ff       	.word	0xffff	; ????
    60ae:	ff ff       	.word	0xffff	; ????
    60b0:	ff ff       	.word	0xffff	; ????
    60b2:	ff ff       	.word	0xffff	; ????
    60b4:	ff ff       	.word	0xffff	; ????
    60b6:	ff ff       	.word	0xffff	; ????
    60b8:	ff ff       	.word	0xffff	; ????
    60ba:	ff ff       	.word	0xffff	; ????
    60bc:	ff ff       	.word	0xffff	; ????
    60be:	ff ff       	.word	0xffff	; ????
    60c0:	ff ff       	.word	0xffff	; ????
    60c2:	ff ff       	.word	0xffff	; ????
    60c4:	ff ff       	.word	0xffff	; ????
    60c6:	ff ff       	.word	0xffff	; ????
    60c8:	ff ff       	.word	0xffff	; ????
    60ca:	ff ff       	.word	0xffff	; ????
    60cc:	ff ff       	.word	0xffff	; ????
    60ce:	ff ff       	.word	0xffff	; ????
    60d0:	ff ff       	.word	0xffff	; ????
    60d2:	ff ff       	.word	0xffff	; ????
    60d4:	ff ff       	.word	0xffff	; ????
    60d6:	ff ff       	.word	0xffff	; ????
    60d8:	ff ff       	.word	0xffff	; ????
    60da:	ff ff       	.word	0xffff	; ????
    60dc:	ff ff       	.word	0xffff	; ????
    60de:	ff ff       	.word	0xffff	; ????
    60e0:	ff ff       	.word	0xffff	; ????
    60e2:	ff ff       	.word	0xffff	; ????
    60e4:	ff ff       	.word	0xffff	; ????
    60e6:	ff ff       	.word	0xffff	; ????
    60e8:	ff ff       	.word	0xffff	; ????
    60ea:	ff ff       	.word	0xffff	; ????
    60ec:	ff ff       	.word	0xffff	; ????
    60ee:	ff ff       	.word	0xffff	; ????
    60f0:	ff ff       	.word	0xffff	; ????
    60f2:	ff ff       	.word	0xffff	; ????
    60f4:	ff ff       	.word	0xffff	; ????
    60f6:	ff ff       	.word	0xffff	; ????
    60f8:	ff ff       	.word	0xffff	; ????
    60fa:	ff ff       	.word	0xffff	; ????
    60fc:	ff ff       	.word	0xffff	; ????
    60fe:	ff ff       	.word	0xffff	; ????
    6100:	ff ff       	.word	0xffff	; ????
    6102:	ff ff       	.word	0xffff	; ????
    6104:	ff ff       	.word	0xffff	; ????
    6106:	ff ff       	.word	0xffff	; ????
    6108:	ff ff       	.word	0xffff	; ????
    610a:	ff ff       	.word	0xffff	; ????
    610c:	ff ff       	.word	0xffff	; ????
    610e:	ff ff       	.word	0xffff	; ????
    6110:	ff ff       	.word	0xffff	; ????
    6112:	ff ff       	.word	0xffff	; ????
    6114:	ff ff       	.word	0xffff	; ????
    6116:	ff ff       	.word	0xffff	; ????
    6118:	ff ff       	.word	0xffff	; ????
    611a:	ff ff       	.word	0xffff	; ????
    611c:	ff ff       	.word	0xffff	; ????
    611e:	ff ff       	.word	0xffff	; ????
    6120:	ff ff       	.word	0xffff	; ????
    6122:	ff ff       	.word	0xffff	; ????
    6124:	ff ff       	.word	0xffff	; ????
    6126:	ff ff       	.word	0xffff	; ????
    6128:	ff ff       	.word	0xffff	; ????
    612a:	ff ff       	.word	0xffff	; ????
    612c:	ff ff       	.word	0xffff	; ????
    612e:	ff ff       	.word	0xffff	; ????
    6130:	ff ff       	.word	0xffff	; ????
    6132:	ff ff       	.word	0xffff	; ????
    6134:	ff ff       	.word	0xffff	; ????
    6136:	ff ff       	.word	0xffff	; ????
    6138:	ff ff       	.word	0xffff	; ????
    613a:	ff ff       	.word	0xffff	; ????
    613c:	ff ff       	.word	0xffff	; ????
    613e:	ff ff       	.word	0xffff	; ????
    6140:	ff ff       	.word	0xffff	; ????
    6142:	ff ff       	.word	0xffff	; ????
    6144:	ff ff       	.word	0xffff	; ????
    6146:	ff ff       	.word	0xffff	; ????
    6148:	ff ff       	.word	0xffff	; ????
    614a:	ff ff       	.word	0xffff	; ????
    614c:	ff ff       	.word	0xffff	; ????
    614e:	ff ff       	.word	0xffff	; ????
    6150:	ff ff       	.word	0xffff	; ????
    6152:	ff ff       	.word	0xffff	; ????
    6154:	ff ff       	.word	0xffff	; ????
    6156:	ff ff       	.word	0xffff	; ????
    6158:	ff ff       	.word	0xffff	; ????
    615a:	ff ff       	.word	0xffff	; ????
    615c:	ff ff       	.word	0xffff	; ????
    615e:	ff ff       	.word	0xffff	; ????
    6160:	ff ff       	.word	0xffff	; ????
    6162:	ff ff       	.word	0xffff	; ????
    6164:	ff ff       	.word	0xffff	; ????
    6166:	ff ff       	.word	0xffff	; ????
    6168:	ff ff       	.word	0xffff	; ????
    616a:	ff ff       	.word	0xffff	; ????
    616c:	ff ff       	.word	0xffff	; ????
    616e:	ff ff       	.word	0xffff	; ????
    6170:	ff ff       	.word	0xffff	; ????
    6172:	ff ff       	.word	0xffff	; ????
    6174:	ff ff       	.word	0xffff	; ????
    6176:	ff ff       	.word	0xffff	; ????
    6178:	ff ff       	.word	0xffff	; ????
    617a:	ff ff       	.word	0xffff	; ????
    617c:	ff ff       	.word	0xffff	; ????
    617e:	ff ff       	.word	0xffff	; ????
    6180:	ff ff       	.word	0xffff	; ????
    6182:	ff ff       	.word	0xffff	; ????
    6184:	ff ff       	.word	0xffff	; ????
    6186:	ff ff       	.word	0xffff	; ????
    6188:	ff ff       	.word	0xffff	; ????
    618a:	ff ff       	.word	0xffff	; ????
    618c:	ff ff       	.word	0xffff	; ????
    618e:	ff ff       	.word	0xffff	; ????
    6190:	ff ff       	.word	0xffff	; ????
    6192:	ff ff       	.word	0xffff	; ????
    6194:	ff ff       	.word	0xffff	; ????
    6196:	ff ff       	.word	0xffff	; ????
    6198:	ff ff       	.word	0xffff	; ????
    619a:	ff ff       	.word	0xffff	; ????
    619c:	ff ff       	.word	0xffff	; ????
    619e:	ff ff       	.word	0xffff	; ????
    61a0:	ff ff       	.word	0xffff	; ????
    61a2:	ff ff       	.word	0xffff	; ????
    61a4:	ff ff       	.word	0xffff	; ????
    61a6:	ff ff       	.word	0xffff	; ????
    61a8:	ff ff       	.word	0xffff	; ????
    61aa:	ff ff       	.word	0xffff	; ????
    61ac:	ff ff       	.word	0xffff	; ????
    61ae:	ff ff       	.word	0xffff	; ????
    61b0:	ff ff       	.word	0xffff	; ????
    61b2:	ff ff       	.word	0xffff	; ????
    61b4:	ff ff       	.word	0xffff	; ????
    61b6:	ff ff       	.word	0xffff	; ????
    61b8:	ff ff       	.word	0xffff	; ????
    61ba:	ff ff       	.word	0xffff	; ????
    61bc:	ff ff       	.word	0xffff	; ????
    61be:	ff ff       	.word	0xffff	; ????
    61c0:	ff ff       	.word	0xffff	; ????
    61c2:	ff ff       	.word	0xffff	; ????
    61c4:	ff ff       	.word	0xffff	; ????
    61c6:	ff ff       	.word	0xffff	; ????
    61c8:	ff ff       	.word	0xffff	; ????
    61ca:	ff ff       	.word	0xffff	; ????
    61cc:	ff ff       	.word	0xffff	; ????
    61ce:	ff ff       	.word	0xffff	; ????
    61d0:	ff ff       	.word	0xffff	; ????
    61d2:	ff ff       	.word	0xffff	; ????
    61d4:	ff ff       	.word	0xffff	; ????
    61d6:	ff ff       	.word	0xffff	; ????
    61d8:	ff ff       	.word	0xffff	; ????
    61da:	ff ff       	.word	0xffff	; ????
    61dc:	ff ff       	.word	0xffff	; ????
    61de:	ff ff       	.word	0xffff	; ????
    61e0:	ff ff       	.word	0xffff	; ????
    61e2:	ff ff       	.word	0xffff	; ????
    61e4:	ff ff       	.word	0xffff	; ????
    61e6:	ff ff       	.word	0xffff	; ????
    61e8:	ff ff       	.word	0xffff	; ????
    61ea:	ff ff       	.word	0xffff	; ????
    61ec:	ff ff       	.word	0xffff	; ????
    61ee:	ff ff       	.word	0xffff	; ????
    61f0:	ff ff       	.word	0xffff	; ????
    61f2:	ff ff       	.word	0xffff	; ????
    61f4:	ff ff       	.word	0xffff	; ????
    61f6:	ff ff       	.word	0xffff	; ????
    61f8:	ff ff       	.word	0xffff	; ????
    61fa:	ff ff       	.word	0xffff	; ????
    61fc:	ff ff       	.word	0xffff	; ????
    61fe:	ff ff       	.word	0xffff	; ????
    6200:	ff ff       	.word	0xffff	; ????
    6202:	ff ff       	.word	0xffff	; ????
    6204:	ff ff       	.word	0xffff	; ????
    6206:	ff ff       	.word	0xffff	; ????
    6208:	ff ff       	.word	0xffff	; ????
    620a:	ff ff       	.word	0xffff	; ????
    620c:	ff ff       	.word	0xffff	; ????
    620e:	ff ff       	.word	0xffff	; ????
    6210:	ff ff       	.word	0xffff	; ????
    6212:	ff ff       	.word	0xffff	; ????
    6214:	ff ff       	.word	0xffff	; ????
    6216:	ff ff       	.word	0xffff	; ????
    6218:	ff ff       	.word	0xffff	; ????
    621a:	ff ff       	.word	0xffff	; ????
    621c:	ff ff       	.word	0xffff	; ????
    621e:	ff ff       	.word	0xffff	; ????
    6220:	ff ff       	.word	0xffff	; ????
    6222:	ff ff       	.word	0xffff	; ????
    6224:	ff ff       	.word	0xffff	; ????
    6226:	ff ff       	.word	0xffff	; ????
    6228:	ff ff       	.word	0xffff	; ????
    622a:	ff ff       	.word	0xffff	; ????
    622c:	ff ff       	.word	0xffff	; ????
    622e:	ff ff       	.word	0xffff	; ????
    6230:	ff ff       	.word	0xffff	; ????
    6232:	ff ff       	.word	0xffff	; ????
    6234:	ff ff       	.word	0xffff	; ????
    6236:	ff ff       	.word	0xffff	; ????
    6238:	ff ff       	.word	0xffff	; ????
    623a:	ff ff       	.word	0xffff	; ????
    623c:	ff ff       	.word	0xffff	; ????
    623e:	ff ff       	.word	0xffff	; ????
    6240:	ff ff       	.word	0xffff	; ????
    6242:	ff ff       	.word	0xffff	; ????
    6244:	ff ff       	.word	0xffff	; ????
    6246:	ff ff       	.word	0xffff	; ????
    6248:	ff ff       	.word	0xffff	; ????
    624a:	ff ff       	.word	0xffff	; ????
    624c:	ff ff       	.word	0xffff	; ????
    624e:	ff ff       	.word	0xffff	; ????
    6250:	ff ff       	.word	0xffff	; ????
    6252:	ff ff       	.word	0xffff	; ????
    6254:	ff ff       	.word	0xffff	; ????
    6256:	ff ff       	.word	0xffff	; ????
    6258:	ff ff       	.word	0xffff	; ????
    625a:	ff ff       	.word	0xffff	; ????
    625c:	ff ff       	.word	0xffff	; ????
    625e:	ff ff       	.word	0xffff	; ????
    6260:	ff ff       	.word	0xffff	; ????
    6262:	ff ff       	.word	0xffff	; ????
    6264:	ff ff       	.word	0xffff	; ????
    6266:	ff ff       	.word	0xffff	; ????
    6268:	ff ff       	.word	0xffff	; ????
    626a:	ff ff       	.word	0xffff	; ????
    626c:	ff ff       	.word	0xffff	; ????
    626e:	ff ff       	.word	0xffff	; ????
    6270:	ff ff       	.word	0xffff	; ????
    6272:	ff ff       	.word	0xffff	; ????
    6274:	ff ff       	.word	0xffff	; ????
    6276:	ff ff       	.word	0xffff	; ????
    6278:	ff ff       	.word	0xffff	; ????
    627a:	ff ff       	.word	0xffff	; ????
    627c:	ff ff       	.word	0xffff	; ????
    627e:	ff ff       	.word	0xffff	; ????
    6280:	ff ff       	.word	0xffff	; ????
    6282:	ff ff       	.word	0xffff	; ????
    6284:	ff ff       	.word	0xffff	; ????
    6286:	ff ff       	.word	0xffff	; ????
    6288:	ff ff       	.word	0xffff	; ????
    628a:	ff ff       	.word	0xffff	; ????
    628c:	ff ff       	.word	0xffff	; ????
    628e:	ff ff       	.word	0xffff	; ????
    6290:	ff ff       	.word	0xffff	; ????
    6292:	ff ff       	.word	0xffff	; ????
    6294:	ff ff       	.word	0xffff	; ????
    6296:	ff ff       	.word	0xffff	; ????
    6298:	ff ff       	.word	0xffff	; ????
    629a:	ff ff       	.word	0xffff	; ????
    629c:	ff ff       	.word	0xffff	; ????
    629e:	ff ff       	.word	0xffff	; ????
    62a0:	ff ff       	.word	0xffff	; ????
    62a2:	ff ff       	.word	0xffff	; ????
    62a4:	ff ff       	.word	0xffff	; ????
    62a6:	ff ff       	.word	0xffff	; ????
    62a8:	ff ff       	.word	0xffff	; ????
    62aa:	ff ff       	.word	0xffff	; ????
    62ac:	ff ff       	.word	0xffff	; ????
    62ae:	ff ff       	.word	0xffff	; ????
    62b0:	ff ff       	.word	0xffff	; ????
    62b2:	ff ff       	.word	0xffff	; ????
    62b4:	ff ff       	.word	0xffff	; ????
    62b6:	ff ff       	.word	0xffff	; ????
    62b8:	ff ff       	.word	0xffff	; ????
    62ba:	ff ff       	.word	0xffff	; ????
    62bc:	ff ff       	.word	0xffff	; ????
    62be:	ff ff       	.word	0xffff	; ????
    62c0:	ff ff       	.word	0xffff	; ????
    62c2:	ff ff       	.word	0xffff	; ????
    62c4:	ff ff       	.word	0xffff	; ????
    62c6:	ff ff       	.word	0xffff	; ????
    62c8:	ff ff       	.word	0xffff	; ????
    62ca:	ff ff       	.word	0xffff	; ????
    62cc:	ff ff       	.word	0xffff	; ????
    62ce:	ff ff       	.word	0xffff	; ????
    62d0:	ff ff       	.word	0xffff	; ????
    62d2:	ff ff       	.word	0xffff	; ????
    62d4:	ff ff       	.word	0xffff	; ????
    62d6:	ff ff       	.word	0xffff	; ????
    62d8:	ff ff       	.word	0xffff	; ????
    62da:	ff ff       	.word	0xffff	; ????
    62dc:	ff ff       	.word	0xffff	; ????
    62de:	ff ff       	.word	0xffff	; ????
    62e0:	ff ff       	.word	0xffff	; ????
    62e2:	ff ff       	.word	0xffff	; ????
    62e4:	ff ff       	.word	0xffff	; ????
    62e6:	ff ff       	.word	0xffff	; ????
    62e8:	ff ff       	.word	0xffff	; ????
    62ea:	ff ff       	.word	0xffff	; ????
    62ec:	ff ff       	.word	0xffff	; ????
    62ee:	ff ff       	.word	0xffff	; ????
    62f0:	ff ff       	.word	0xffff	; ????
    62f2:	ff ff       	.word	0xffff	; ????
    62f4:	ff ff       	.word	0xffff	; ????
    62f6:	ff ff       	.word	0xffff	; ????
    62f8:	ff ff       	.word	0xffff	; ????
    62fa:	ff ff       	.word	0xffff	; ????
    62fc:	ff ff       	.word	0xffff	; ????
    62fe:	ff ff       	.word	0xffff	; ????
    6300:	ff ff       	.word	0xffff	; ????
    6302:	ff ff       	.word	0xffff	; ????
    6304:	ff ff       	.word	0xffff	; ????
    6306:	ff ff       	.word	0xffff	; ????
    6308:	ff ff       	.word	0xffff	; ????
    630a:	ff ff       	.word	0xffff	; ????
    630c:	ff ff       	.word	0xffff	; ????
    630e:	ff ff       	.word	0xffff	; ????
    6310:	ff ff       	.word	0xffff	; ????
    6312:	ff ff       	.word	0xffff	; ????
    6314:	ff ff       	.word	0xffff	; ????
    6316:	ff ff       	.word	0xffff	; ????
    6318:	ff ff       	.word	0xffff	; ????
    631a:	ff ff       	.word	0xffff	; ????
    631c:	ff ff       	.word	0xffff	; ????
    631e:	ff ff       	.word	0xffff	; ????
    6320:	ff ff       	.word	0xffff	; ????
    6322:	ff ff       	.word	0xffff	; ????
    6324:	ff ff       	.word	0xffff	; ????
    6326:	ff ff       	.word	0xffff	; ????
    6328:	ff ff       	.word	0xffff	; ????
    632a:	ff ff       	.word	0xffff	; ????
    632c:	ff ff       	.word	0xffff	; ????
    632e:	ff ff       	.word	0xffff	; ????
    6330:	ff ff       	.word	0xffff	; ????
    6332:	ff ff       	.word	0xffff	; ????
    6334:	ff ff       	.word	0xffff	; ????
    6336:	ff ff       	.word	0xffff	; ????
    6338:	ff ff       	.word	0xffff	; ????
    633a:	ff ff       	.word	0xffff	; ????
    633c:	ff ff       	.word	0xffff	; ????
    633e:	ff ff       	.word	0xffff	; ????
    6340:	ff ff       	.word	0xffff	; ????
    6342:	ff ff       	.word	0xffff	; ????
    6344:	ff ff       	.word	0xffff	; ????
    6346:	ff ff       	.word	0xffff	; ????
    6348:	ff ff       	.word	0xffff	; ????
    634a:	ff ff       	.word	0xffff	; ????
    634c:	ff ff       	.word	0xffff	; ????
    634e:	ff ff       	.word	0xffff	; ????
    6350:	ff ff       	.word	0xffff	; ????
    6352:	ff ff       	.word	0xffff	; ????
    6354:	ff ff       	.word	0xffff	; ????
    6356:	ff ff       	.word	0xffff	; ????
    6358:	ff ff       	.word	0xffff	; ????
    635a:	ff ff       	.word	0xffff	; ????
    635c:	ff ff       	.word	0xffff	; ????
    635e:	ff ff       	.word	0xffff	; ????
    6360:	ff ff       	.word	0xffff	; ????
    6362:	ff ff       	.word	0xffff	; ????
    6364:	ff ff       	.word	0xffff	; ????
    6366:	ff ff       	.word	0xffff	; ????
    6368:	ff ff       	.word	0xffff	; ????
    636a:	ff ff       	.word	0xffff	; ????
    636c:	ff ff       	.word	0xffff	; ????
    636e:	ff ff       	.word	0xffff	; ????
    6370:	ff ff       	.word	0xffff	; ????
    6372:	ff ff       	.word	0xffff	; ????
    6374:	ff ff       	.word	0xffff	; ????
    6376:	ff ff       	.word	0xffff	; ????
    6378:	ff ff       	.word	0xffff	; ????
    637a:	ff ff       	.word	0xffff	; ????
    637c:	ff ff       	.word	0xffff	; ????
    637e:	ff ff       	.word	0xffff	; ????
    6380:	ff ff       	.word	0xffff	; ????
    6382:	ff ff       	.word	0xffff	; ????
    6384:	ff ff       	.word	0xffff	; ????
    6386:	ff ff       	.word	0xffff	; ????
    6388:	ff ff       	.word	0xffff	; ????
    638a:	ff ff       	.word	0xffff	; ????
    638c:	ff ff       	.word	0xffff	; ????
    638e:	ff ff       	.word	0xffff	; ????
    6390:	ff ff       	.word	0xffff	; ????
    6392:	ff ff       	.word	0xffff	; ????
    6394:	ff ff       	.word	0xffff	; ????
    6396:	ff ff       	.word	0xffff	; ????
    6398:	ff ff       	.word	0xffff	; ????
    639a:	ff ff       	.word	0xffff	; ????
    639c:	ff ff       	.word	0xffff	; ????
    639e:	ff ff       	.word	0xffff	; ????
    63a0:	ff ff       	.word	0xffff	; ????
    63a2:	ff ff       	.word	0xffff	; ????
    63a4:	ff ff       	.word	0xffff	; ????
    63a6:	ff ff       	.word	0xffff	; ????
    63a8:	ff ff       	.word	0xffff	; ????
    63aa:	ff ff       	.word	0xffff	; ????
    63ac:	ff ff       	.word	0xffff	; ????
    63ae:	ff ff       	.word	0xffff	; ????
    63b0:	ff ff       	.word	0xffff	; ????
    63b2:	ff ff       	.word	0xffff	; ????
    63b4:	ff ff       	.word	0xffff	; ????
    63b6:	ff ff       	.word	0xffff	; ????
    63b8:	ff ff       	.word	0xffff	; ????
    63ba:	ff ff       	.word	0xffff	; ????
    63bc:	ff ff       	.word	0xffff	; ????
    63be:	ff ff       	.word	0xffff	; ????
    63c0:	ff ff       	.word	0xffff	; ????
    63c2:	ff ff       	.word	0xffff	; ????
    63c4:	ff ff       	.word	0xffff	; ????
    63c6:	ff ff       	.word	0xffff	; ????
    63c8:	ff ff       	.word	0xffff	; ????
    63ca:	ff ff       	.word	0xffff	; ????
    63cc:	ff ff       	.word	0xffff	; ????
    63ce:	ff ff       	.word	0xffff	; ????
    63d0:	ff ff       	.word	0xffff	; ????
    63d2:	ff ff       	.word	0xffff	; ????
    63d4:	ff ff       	.word	0xffff	; ????
    63d6:	ff ff       	.word	0xffff	; ????
    63d8:	ff ff       	.word	0xffff	; ????
    63da:	ff ff       	.word	0xffff	; ????
    63dc:	ff ff       	.word	0xffff	; ????
    63de:	ff ff       	.word	0xffff	; ????
    63e0:	ff ff       	.word	0xffff	; ????
    63e2:	ff ff       	.word	0xffff	; ????
    63e4:	ff ff       	.word	0xffff	; ????
    63e6:	ff ff       	.word	0xffff	; ????
    63e8:	ff ff       	.word	0xffff	; ????
    63ea:	ff ff       	.word	0xffff	; ????
    63ec:	ff ff       	.word	0xffff	; ????
    63ee:	ff ff       	.word	0xffff	; ????
    63f0:	ff ff       	.word	0xffff	; ????
    63f2:	ff ff       	.word	0xffff	; ????
    63f4:	ff ff       	.word	0xffff	; ????
    63f6:	ff ff       	.word	0xffff	; ????
    63f8:	ff ff       	.word	0xffff	; ????
    63fa:	ff ff       	.word	0xffff	; ????
    63fc:	ff ff       	.word	0xffff	; ????
    63fe:	ff ff       	.word	0xffff	; ????
    6400:	ff ff       	.word	0xffff	; ????
    6402:	ff ff       	.word	0xffff	; ????
    6404:	ff ff       	.word	0xffff	; ????
    6406:	ff ff       	.word	0xffff	; ????
    6408:	ff ff       	.word	0xffff	; ????
    640a:	ff ff       	.word	0xffff	; ????
    640c:	ff ff       	.word	0xffff	; ????
    640e:	ff ff       	.word	0xffff	; ????
    6410:	ff ff       	.word	0xffff	; ????
    6412:	ff ff       	.word	0xffff	; ????
    6414:	ff ff       	.word	0xffff	; ????
    6416:	ff ff       	.word	0xffff	; ????
    6418:	ff ff       	.word	0xffff	; ????
    641a:	ff ff       	.word	0xffff	; ????
    641c:	ff ff       	.word	0xffff	; ????
    641e:	ff ff       	.word	0xffff	; ????
    6420:	ff ff       	.word	0xffff	; ????
    6422:	ff ff       	.word	0xffff	; ????
    6424:	ff ff       	.word	0xffff	; ????
    6426:	ff ff       	.word	0xffff	; ????
    6428:	ff ff       	.word	0xffff	; ????
    642a:	ff ff       	.word	0xffff	; ????
    642c:	ff ff       	.word	0xffff	; ????
    642e:	ff ff       	.word	0xffff	; ????
    6430:	ff ff       	.word	0xffff	; ????
    6432:	ff ff       	.word	0xffff	; ????
    6434:	ff ff       	.word	0xffff	; ????
    6436:	ff ff       	.word	0xffff	; ????
    6438:	ff ff       	.word	0xffff	; ????
    643a:	ff ff       	.word	0xffff	; ????
    643c:	ff ff       	.word	0xffff	; ????
    643e:	ff ff       	.word	0xffff	; ????
    6440:	ff ff       	.word	0xffff	; ????
    6442:	ff ff       	.word	0xffff	; ????
    6444:	ff ff       	.word	0xffff	; ????
    6446:	ff ff       	.word	0xffff	; ????
    6448:	ff ff       	.word	0xffff	; ????
    644a:	ff ff       	.word	0xffff	; ????
    644c:	ff ff       	.word	0xffff	; ????
    644e:	ff ff       	.word	0xffff	; ????
    6450:	ff ff       	.word	0xffff	; ????
    6452:	ff ff       	.word	0xffff	; ????
    6454:	ff ff       	.word	0xffff	; ????
    6456:	ff ff       	.word	0xffff	; ????
    6458:	ff ff       	.word	0xffff	; ????
    645a:	ff ff       	.word	0xffff	; ????
    645c:	ff ff       	.word	0xffff	; ????
    645e:	ff ff       	.word	0xffff	; ????
    6460:	ff ff       	.word	0xffff	; ????
    6462:	ff ff       	.word	0xffff	; ????
    6464:	ff ff       	.word	0xffff	; ????
    6466:	ff ff       	.word	0xffff	; ????
    6468:	ff ff       	.word	0xffff	; ????
    646a:	ff ff       	.word	0xffff	; ????
    646c:	ff ff       	.word	0xffff	; ????
    646e:	ff ff       	.word	0xffff	; ????
    6470:	ff ff       	.word	0xffff	; ????
    6472:	ff ff       	.word	0xffff	; ????
    6474:	ff ff       	.word	0xffff	; ????
    6476:	ff ff       	.word	0xffff	; ????
    6478:	ff ff       	.word	0xffff	; ????
    647a:	ff ff       	.word	0xffff	; ????
    647c:	ff ff       	.word	0xffff	; ????
    647e:	ff ff       	.word	0xffff	; ????
    6480:	ff ff       	.word	0xffff	; ????
    6482:	ff ff       	.word	0xffff	; ????
    6484:	ff ff       	.word	0xffff	; ????
    6486:	ff ff       	.word	0xffff	; ????
    6488:	ff ff       	.word	0xffff	; ????
    648a:	ff ff       	.word	0xffff	; ????
    648c:	ff ff       	.word	0xffff	; ????
    648e:	ff ff       	.word	0xffff	; ????
    6490:	ff ff       	.word	0xffff	; ????
    6492:	ff ff       	.word	0xffff	; ????
    6494:	ff ff       	.word	0xffff	; ????
    6496:	ff ff       	.word	0xffff	; ????
    6498:	ff ff       	.word	0xffff	; ????
    649a:	ff ff       	.word	0xffff	; ????
    649c:	ff ff       	.word	0xffff	; ????
    649e:	ff ff       	.word	0xffff	; ????
    64a0:	ff ff       	.word	0xffff	; ????
    64a2:	ff ff       	.word	0xffff	; ????
    64a4:	ff ff       	.word	0xffff	; ????
    64a6:	ff ff       	.word	0xffff	; ????
    64a8:	ff ff       	.word	0xffff	; ????
    64aa:	ff ff       	.word	0xffff	; ????
    64ac:	ff ff       	.word	0xffff	; ????
    64ae:	ff ff       	.word	0xffff	; ????
    64b0:	ff ff       	.word	0xffff	; ????
    64b2:	ff ff       	.word	0xffff	; ????
    64b4:	ff ff       	.word	0xffff	; ????
    64b6:	ff ff       	.word	0xffff	; ????
    64b8:	ff ff       	.word	0xffff	; ????
    64ba:	ff ff       	.word	0xffff	; ????
    64bc:	ff ff       	.word	0xffff	; ????
    64be:	ff ff       	.word	0xffff	; ????
    64c0:	ff ff       	.word	0xffff	; ????
    64c2:	ff ff       	.word	0xffff	; ????
    64c4:	ff ff       	.word	0xffff	; ????
    64c6:	ff ff       	.word	0xffff	; ????
    64c8:	ff ff       	.word	0xffff	; ????
    64ca:	ff ff       	.word	0xffff	; ????
    64cc:	ff ff       	.word	0xffff	; ????
    64ce:	ff ff       	.word	0xffff	; ????
    64d0:	ff ff       	.word	0xffff	; ????
    64d2:	ff ff       	.word	0xffff	; ????
    64d4:	ff ff       	.word	0xffff	; ????
    64d6:	ff ff       	.word	0xffff	; ????
    64d8:	ff ff       	.word	0xffff	; ????
    64da:	ff ff       	.word	0xffff	; ????
    64dc:	ff ff       	.word	0xffff	; ????
    64de:	ff ff       	.word	0xffff	; ????
    64e0:	ff ff       	.word	0xffff	; ????
    64e2:	ff ff       	.word	0xffff	; ????
    64e4:	ff ff       	.word	0xffff	; ????
    64e6:	ff ff       	.word	0xffff	; ????
    64e8:	ff ff       	.word	0xffff	; ????
    64ea:	ff ff       	.word	0xffff	; ????
    64ec:	ff ff       	.word	0xffff	; ????
    64ee:	ff ff       	.word	0xffff	; ????
    64f0:	ff ff       	.word	0xffff	; ????
    64f2:	ff ff       	.word	0xffff	; ????
    64f4:	ff ff       	.word	0xffff	; ????
    64f6:	ff ff       	.word	0xffff	; ????
    64f8:	ff ff       	.word	0xffff	; ????
    64fa:	ff ff       	.word	0xffff	; ????
    64fc:	ff ff       	.word	0xffff	; ????
    64fe:	ff ff       	.word	0xffff	; ????
    6500:	ff ff       	.word	0xffff	; ????
    6502:	ff ff       	.word	0xffff	; ????
    6504:	ff ff       	.word	0xffff	; ????
    6506:	ff ff       	.word	0xffff	; ????
    6508:	ff ff       	.word	0xffff	; ????
    650a:	ff ff       	.word	0xffff	; ????
    650c:	ff ff       	.word	0xffff	; ????
    650e:	ff ff       	.word	0xffff	; ????
    6510:	ff ff       	.word	0xffff	; ????
    6512:	ff ff       	.word	0xffff	; ????
    6514:	ff ff       	.word	0xffff	; ????
    6516:	ff ff       	.word	0xffff	; ????
    6518:	ff ff       	.word	0xffff	; ????
    651a:	ff ff       	.word	0xffff	; ????
    651c:	ff ff       	.word	0xffff	; ????
    651e:	ff ff       	.word	0xffff	; ????
    6520:	ff ff       	.word	0xffff	; ????
    6522:	ff ff       	.word	0xffff	; ????
    6524:	ff ff       	.word	0xffff	; ????
    6526:	ff ff       	.word	0xffff	; ????
    6528:	ff ff       	.word	0xffff	; ????
    652a:	ff ff       	.word	0xffff	; ????
    652c:	ff ff       	.word	0xffff	; ????
    652e:	ff ff       	.word	0xffff	; ????
    6530:	ff ff       	.word	0xffff	; ????
    6532:	ff ff       	.word	0xffff	; ????
    6534:	ff ff       	.word	0xffff	; ????
    6536:	ff ff       	.word	0xffff	; ????
    6538:	ff ff       	.word	0xffff	; ????
    653a:	ff ff       	.word	0xffff	; ????
    653c:	ff ff       	.word	0xffff	; ????
    653e:	ff ff       	.word	0xffff	; ????
    6540:	ff ff       	.word	0xffff	; ????
    6542:	ff ff       	.word	0xffff	; ????
    6544:	ff ff       	.word	0xffff	; ????
    6546:	ff ff       	.word	0xffff	; ????
    6548:	ff ff       	.word	0xffff	; ????
    654a:	ff ff       	.word	0xffff	; ????
    654c:	ff ff       	.word	0xffff	; ????
    654e:	ff ff       	.word	0xffff	; ????
    6550:	ff ff       	.word	0xffff	; ????
    6552:	ff ff       	.word	0xffff	; ????
    6554:	ff ff       	.word	0xffff	; ????
    6556:	ff ff       	.word	0xffff	; ????
    6558:	ff ff       	.word	0xffff	; ????
    655a:	ff ff       	.word	0xffff	; ????
    655c:	ff ff       	.word	0xffff	; ????
    655e:	ff ff       	.word	0xffff	; ????
    6560:	ff ff       	.word	0xffff	; ????
    6562:	ff ff       	.word	0xffff	; ????
    6564:	ff ff       	.word	0xffff	; ????
    6566:	ff ff       	.word	0xffff	; ????
    6568:	ff ff       	.word	0xffff	; ????
    656a:	ff ff       	.word	0xffff	; ????
    656c:	ff ff       	.word	0xffff	; ????
    656e:	ff ff       	.word	0xffff	; ????
    6570:	ff ff       	.word	0xffff	; ????
    6572:	ff ff       	.word	0xffff	; ????
    6574:	ff ff       	.word	0xffff	; ????
    6576:	ff ff       	.word	0xffff	; ????
    6578:	ff ff       	.word	0xffff	; ????
    657a:	ff ff       	.word	0xffff	; ????
    657c:	ff ff       	.word	0xffff	; ????
    657e:	ff ff       	.word	0xffff	; ????
    6580:	ff ff       	.word	0xffff	; ????
    6582:	ff ff       	.word	0xffff	; ????
    6584:	ff ff       	.word	0xffff	; ????
    6586:	ff ff       	.word	0xffff	; ????
    6588:	ff ff       	.word	0xffff	; ????
    658a:	ff ff       	.word	0xffff	; ????
    658c:	ff ff       	.word	0xffff	; ????
    658e:	ff ff       	.word	0xffff	; ????
    6590:	ff ff       	.word	0xffff	; ????
    6592:	ff ff       	.word	0xffff	; ????
    6594:	ff ff       	.word	0xffff	; ????
    6596:	ff ff       	.word	0xffff	; ????
    6598:	ff ff       	.word	0xffff	; ????
    659a:	ff ff       	.word	0xffff	; ????
    659c:	ff ff       	.word	0xffff	; ????
    659e:	ff ff       	.word	0xffff	; ????
    65a0:	ff ff       	.word	0xffff	; ????
    65a2:	ff ff       	.word	0xffff	; ????
    65a4:	ff ff       	.word	0xffff	; ????
    65a6:	ff ff       	.word	0xffff	; ????
    65a8:	ff ff       	.word	0xffff	; ????
    65aa:	ff ff       	.word	0xffff	; ????
    65ac:	ff ff       	.word	0xffff	; ????
    65ae:	ff ff       	.word	0xffff	; ????
    65b0:	ff ff       	.word	0xffff	; ????
    65b2:	ff ff       	.word	0xffff	; ????
    65b4:	ff ff       	.word	0xffff	; ????
    65b6:	ff ff       	.word	0xffff	; ????
    65b8:	ff ff       	.word	0xffff	; ????
    65ba:	ff ff       	.word	0xffff	; ????
    65bc:	ff ff       	.word	0xffff	; ????
    65be:	ff ff       	.word	0xffff	; ????
    65c0:	ff ff       	.word	0xffff	; ????
    65c2:	ff ff       	.word	0xffff	; ????
    65c4:	ff ff       	.word	0xffff	; ????
    65c6:	ff ff       	.word	0xffff	; ????
    65c8:	ff ff       	.word	0xffff	; ????
    65ca:	ff ff       	.word	0xffff	; ????
    65cc:	ff ff       	.word	0xffff	; ????
    65ce:	ff ff       	.word	0xffff	; ????
    65d0:	ff ff       	.word	0xffff	; ????
    65d2:	ff ff       	.word	0xffff	; ????
    65d4:	ff ff       	.word	0xffff	; ????
    65d6:	ff ff       	.word	0xffff	; ????
    65d8:	ff ff       	.word	0xffff	; ????
    65da:	ff ff       	.word	0xffff	; ????
    65dc:	ff ff       	.word	0xffff	; ????
    65de:	ff ff       	.word	0xffff	; ????
    65e0:	ff ff       	.word	0xffff	; ????
    65e2:	ff ff       	.word	0xffff	; ????
    65e4:	ff ff       	.word	0xffff	; ????
    65e6:	ff ff       	.word	0xffff	; ????
    65e8:	ff ff       	.word	0xffff	; ????
    65ea:	ff ff       	.word	0xffff	; ????
    65ec:	ff ff       	.word	0xffff	; ????
    65ee:	ff ff       	.word	0xffff	; ????
    65f0:	ff ff       	.word	0xffff	; ????
    65f2:	ff ff       	.word	0xffff	; ????
    65f4:	ff ff       	.word	0xffff	; ????
    65f6:	ff ff       	.word	0xffff	; ????
    65f8:	ff ff       	.word	0xffff	; ????
    65fa:	ff ff       	.word	0xffff	; ????
    65fc:	ff ff       	.word	0xffff	; ????
    65fe:	ff ff       	.word	0xffff	; ????
    6600:	ff ff       	.word	0xffff	; ????
    6602:	ff ff       	.word	0xffff	; ????
    6604:	ff ff       	.word	0xffff	; ????
    6606:	ff ff       	.word	0xffff	; ????
    6608:	ff ff       	.word	0xffff	; ????
    660a:	ff ff       	.word	0xffff	; ????
    660c:	ff ff       	.word	0xffff	; ????
    660e:	ff ff       	.word	0xffff	; ????
    6610:	ff ff       	.word	0xffff	; ????
    6612:	ff ff       	.word	0xffff	; ????
    6614:	ff ff       	.word	0xffff	; ????
    6616:	ff ff       	.word	0xffff	; ????
    6618:	ff ff       	.word	0xffff	; ????
    661a:	ff ff       	.word	0xffff	; ????
    661c:	ff ff       	.word	0xffff	; ????
    661e:	ff ff       	.word	0xffff	; ????
    6620:	ff ff       	.word	0xffff	; ????
    6622:	ff ff       	.word	0xffff	; ????
    6624:	ff ff       	.word	0xffff	; ????
    6626:	ff ff       	.word	0xffff	; ????
    6628:	ff ff       	.word	0xffff	; ????
    662a:	ff ff       	.word	0xffff	; ????
    662c:	ff ff       	.word	0xffff	; ????
    662e:	ff ff       	.word	0xffff	; ????
    6630:	ff ff       	.word	0xffff	; ????
    6632:	ff ff       	.word	0xffff	; ????
    6634:	ff ff       	.word	0xffff	; ????
    6636:	ff ff       	.word	0xffff	; ????
    6638:	ff ff       	.word	0xffff	; ????
    663a:	ff ff       	.word	0xffff	; ????
    663c:	ff ff       	.word	0xffff	; ????
    663e:	ff ff       	.word	0xffff	; ????
    6640:	ff ff       	.word	0xffff	; ????
    6642:	ff ff       	.word	0xffff	; ????
    6644:	ff ff       	.word	0xffff	; ????
    6646:	ff ff       	.word	0xffff	; ????
    6648:	ff ff       	.word	0xffff	; ????
    664a:	ff ff       	.word	0xffff	; ????
    664c:	ff ff       	.word	0xffff	; ????
    664e:	ff ff       	.word	0xffff	; ????
    6650:	ff ff       	.word	0xffff	; ????
    6652:	ff ff       	.word	0xffff	; ????
    6654:	ff ff       	.word	0xffff	; ????
    6656:	ff ff       	.word	0xffff	; ????
    6658:	ff ff       	.word	0xffff	; ????
    665a:	ff ff       	.word	0xffff	; ????
    665c:	ff ff       	.word	0xffff	; ????
    665e:	ff ff       	.word	0xffff	; ????
    6660:	ff ff       	.word	0xffff	; ????
    6662:	ff ff       	.word	0xffff	; ????
    6664:	ff ff       	.word	0xffff	; ????
    6666:	ff ff       	.word	0xffff	; ????
    6668:	ff ff       	.word	0xffff	; ????
    666a:	ff ff       	.word	0xffff	; ????
    666c:	ff ff       	.word	0xffff	; ????
    666e:	ff ff       	.word	0xffff	; ????
    6670:	ff ff       	.word	0xffff	; ????
    6672:	ff ff       	.word	0xffff	; ????
    6674:	ff ff       	.word	0xffff	; ????
    6676:	ff ff       	.word	0xffff	; ????
    6678:	ff ff       	.word	0xffff	; ????
    667a:	ff ff       	.word	0xffff	; ????
    667c:	ff ff       	.word	0xffff	; ????
    667e:	ff ff       	.word	0xffff	; ????
    6680:	ff ff       	.word	0xffff	; ????
    6682:	ff ff       	.word	0xffff	; ????
    6684:	ff ff       	.word	0xffff	; ????
    6686:	ff ff       	.word	0xffff	; ????
    6688:	ff ff       	.word	0xffff	; ????
    668a:	ff ff       	.word	0xffff	; ????
    668c:	ff ff       	.word	0xffff	; ????
    668e:	ff ff       	.word	0xffff	; ????
    6690:	ff ff       	.word	0xffff	; ????
    6692:	ff ff       	.word	0xffff	; ????
    6694:	ff ff       	.word	0xffff	; ????
    6696:	ff ff       	.word	0xffff	; ????
    6698:	ff ff       	.word	0xffff	; ????
    669a:	ff ff       	.word	0xffff	; ????
    669c:	ff ff       	.word	0xffff	; ????
    669e:	ff ff       	.word	0xffff	; ????
    66a0:	ff ff       	.word	0xffff	; ????
    66a2:	ff ff       	.word	0xffff	; ????
    66a4:	ff ff       	.word	0xffff	; ????
    66a6:	ff ff       	.word	0xffff	; ????
    66a8:	ff ff       	.word	0xffff	; ????
    66aa:	ff ff       	.word	0xffff	; ????
    66ac:	ff ff       	.word	0xffff	; ????
    66ae:	ff ff       	.word	0xffff	; ????
    66b0:	ff ff       	.word	0xffff	; ????
    66b2:	ff ff       	.word	0xffff	; ????
    66b4:	ff ff       	.word	0xffff	; ????
    66b6:	ff ff       	.word	0xffff	; ????
    66b8:	ff ff       	.word	0xffff	; ????
    66ba:	ff ff       	.word	0xffff	; ????
    66bc:	ff ff       	.word	0xffff	; ????
    66be:	ff ff       	.word	0xffff	; ????
    66c0:	ff ff       	.word	0xffff	; ????
    66c2:	ff ff       	.word	0xffff	; ????
    66c4:	ff ff       	.word	0xffff	; ????
    66c6:	ff ff       	.word	0xffff	; ????
    66c8:	ff ff       	.word	0xffff	; ????
    66ca:	ff ff       	.word	0xffff	; ????
    66cc:	ff ff       	.word	0xffff	; ????
    66ce:	ff ff       	.word	0xffff	; ????
    66d0:	ff ff       	.word	0xffff	; ????
    66d2:	ff ff       	.word	0xffff	; ????
    66d4:	ff ff       	.word	0xffff	; ????
    66d6:	ff ff       	.word	0xffff	; ????
    66d8:	ff ff       	.word	0xffff	; ????
    66da:	ff ff       	.word	0xffff	; ????
    66dc:	ff ff       	.word	0xffff	; ????
    66de:	ff ff       	.word	0xffff	; ????
    66e0:	ff ff       	.word	0xffff	; ????
    66e2:	ff ff       	.word	0xffff	; ????
    66e4:	ff ff       	.word	0xffff	; ????
    66e6:	ff ff       	.word	0xffff	; ????
    66e8:	ff ff       	.word	0xffff	; ????
    66ea:	ff ff       	.word	0xffff	; ????
    66ec:	ff ff       	.word	0xffff	; ????
    66ee:	ff ff       	.word	0xffff	; ????
    66f0:	ff ff       	.word	0xffff	; ????
    66f2:	ff ff       	.word	0xffff	; ????
    66f4:	ff ff       	.word	0xffff	; ????
    66f6:	ff ff       	.word	0xffff	; ????
    66f8:	ff ff       	.word	0xffff	; ????
    66fa:	ff ff       	.word	0xffff	; ????
    66fc:	ff ff       	.word	0xffff	; ????
    66fe:	ff ff       	.word	0xffff	; ????
    6700:	ff ff       	.word	0xffff	; ????
    6702:	ff ff       	.word	0xffff	; ????
    6704:	ff ff       	.word	0xffff	; ????
    6706:	ff ff       	.word	0xffff	; ????
    6708:	ff ff       	.word	0xffff	; ????
    670a:	ff ff       	.word	0xffff	; ????
    670c:	ff ff       	.word	0xffff	; ????
    670e:	ff ff       	.word	0xffff	; ????
    6710:	ff ff       	.word	0xffff	; ????
    6712:	ff ff       	.word	0xffff	; ????
    6714:	ff ff       	.word	0xffff	; ????
    6716:	ff ff       	.word	0xffff	; ????
    6718:	ff ff       	.word	0xffff	; ????
    671a:	ff ff       	.word	0xffff	; ????
    671c:	ff ff       	.word	0xffff	; ????
    671e:	ff ff       	.word	0xffff	; ????
    6720:	ff ff       	.word	0xffff	; ????
    6722:	ff ff       	.word	0xffff	; ????
    6724:	ff ff       	.word	0xffff	; ????
    6726:	ff ff       	.word	0xffff	; ????
    6728:	ff ff       	.word	0xffff	; ????
    672a:	ff ff       	.word	0xffff	; ????
    672c:	ff ff       	.word	0xffff	; ????
    672e:	ff ff       	.word	0xffff	; ????
    6730:	ff ff       	.word	0xffff	; ????
    6732:	ff ff       	.word	0xffff	; ????
    6734:	ff ff       	.word	0xffff	; ????
    6736:	ff ff       	.word	0xffff	; ????
    6738:	ff ff       	.word	0xffff	; ????
    673a:	ff ff       	.word	0xffff	; ????
    673c:	ff ff       	.word	0xffff	; ????
    673e:	ff ff       	.word	0xffff	; ????
    6740:	ff ff       	.word	0xffff	; ????
    6742:	ff ff       	.word	0xffff	; ????
    6744:	ff ff       	.word	0xffff	; ????
    6746:	ff ff       	.word	0xffff	; ????
    6748:	ff ff       	.word	0xffff	; ????
    674a:	ff ff       	.word	0xffff	; ????
    674c:	ff ff       	.word	0xffff	; ????
    674e:	ff ff       	.word	0xffff	; ????
    6750:	ff ff       	.word	0xffff	; ????
    6752:	ff ff       	.word	0xffff	; ????
    6754:	ff ff       	.word	0xffff	; ????
    6756:	ff ff       	.word	0xffff	; ????
    6758:	ff ff       	.word	0xffff	; ????
    675a:	ff ff       	.word	0xffff	; ????
    675c:	ff ff       	.word	0xffff	; ????
    675e:	ff ff       	.word	0xffff	; ????
    6760:	ff ff       	.word	0xffff	; ????
    6762:	ff ff       	.word	0xffff	; ????
    6764:	ff ff       	.word	0xffff	; ????
    6766:	ff ff       	.word	0xffff	; ????
    6768:	ff ff       	.word	0xffff	; ????
    676a:	ff ff       	.word	0xffff	; ????
    676c:	ff ff       	.word	0xffff	; ????
    676e:	ff ff       	.word	0xffff	; ????
    6770:	ff ff       	.word	0xffff	; ????
    6772:	ff ff       	.word	0xffff	; ????
    6774:	ff ff       	.word	0xffff	; ????
    6776:	ff ff       	.word	0xffff	; ????
    6778:	ff ff       	.word	0xffff	; ????
    677a:	ff ff       	.word	0xffff	; ????
    677c:	ff ff       	.word	0xffff	; ????
    677e:	ff ff       	.word	0xffff	; ????
    6780:	ff ff       	.word	0xffff	; ????
    6782:	ff ff       	.word	0xffff	; ????
    6784:	ff ff       	.word	0xffff	; ????
    6786:	ff ff       	.word	0xffff	; ????
    6788:	ff ff       	.word	0xffff	; ????
    678a:	ff ff       	.word	0xffff	; ????
    678c:	ff ff       	.word	0xffff	; ????
    678e:	ff ff       	.word	0xffff	; ????
    6790:	ff ff       	.word	0xffff	; ????
    6792:	ff ff       	.word	0xffff	; ????
    6794:	ff ff       	.word	0xffff	; ????
    6796:	ff ff       	.word	0xffff	; ????
    6798:	ff ff       	.word	0xffff	; ????
    679a:	ff ff       	.word	0xffff	; ????
    679c:	ff ff       	.word	0xffff	; ????
    679e:	ff ff       	.word	0xffff	; ????
    67a0:	ff ff       	.word	0xffff	; ????
    67a2:	ff ff       	.word	0xffff	; ????
    67a4:	ff ff       	.word	0xffff	; ????
    67a6:	ff ff       	.word	0xffff	; ????
    67a8:	ff ff       	.word	0xffff	; ????
    67aa:	ff ff       	.word	0xffff	; ????
    67ac:	ff ff       	.word	0xffff	; ????
    67ae:	ff ff       	.word	0xffff	; ????
    67b0:	ff ff       	.word	0xffff	; ????
    67b2:	ff ff       	.word	0xffff	; ????
    67b4:	ff ff       	.word	0xffff	; ????
    67b6:	ff ff       	.word	0xffff	; ????
    67b8:	ff ff       	.word	0xffff	; ????
    67ba:	ff ff       	.word	0xffff	; ????
    67bc:	ff ff       	.word	0xffff	; ????
    67be:	ff ff       	.word	0xffff	; ????
    67c0:	ff ff       	.word	0xffff	; ????
    67c2:	ff ff       	.word	0xffff	; ????
    67c4:	ff ff       	.word	0xffff	; ????
    67c6:	ff ff       	.word	0xffff	; ????
    67c8:	ff ff       	.word	0xffff	; ????
    67ca:	ff ff       	.word	0xffff	; ????
    67cc:	ff ff       	.word	0xffff	; ????
    67ce:	ff ff       	.word	0xffff	; ????
    67d0:	ff ff       	.word	0xffff	; ????
    67d2:	ff ff       	.word	0xffff	; ????
    67d4:	ff ff       	.word	0xffff	; ????
    67d6:	ff ff       	.word	0xffff	; ????
    67d8:	ff ff       	.word	0xffff	; ????
    67da:	ff ff       	.word	0xffff	; ????
    67dc:	ff ff       	.word	0xffff	; ????
    67de:	ff ff       	.word	0xffff	; ????
    67e0:	ff ff       	.word	0xffff	; ????
    67e2:	ff ff       	.word	0xffff	; ????
    67e4:	ff ff       	.word	0xffff	; ????
    67e6:	ff ff       	.word	0xffff	; ????
    67e8:	ff ff       	.word	0xffff	; ????
    67ea:	ff ff       	.word	0xffff	; ????
    67ec:	ff ff       	.word	0xffff	; ????
    67ee:	ff ff       	.word	0xffff	; ????
    67f0:	ff ff       	.word	0xffff	; ????
    67f2:	ff ff       	.word	0xffff	; ????
    67f4:	ff ff       	.word	0xffff	; ????
    67f6:	ff ff       	.word	0xffff	; ????
    67f8:	ff ff       	.word	0xffff	; ????
    67fa:	ff ff       	.word	0xffff	; ????
    67fc:	ff ff       	.word	0xffff	; ????
    67fe:	ff ff       	.word	0xffff	; ????
    6800:	ff ff       	.word	0xffff	; ????
    6802:	ff ff       	.word	0xffff	; ????
    6804:	ff ff       	.word	0xffff	; ????
    6806:	ff ff       	.word	0xffff	; ????
    6808:	ff ff       	.word	0xffff	; ????
    680a:	ff ff       	.word	0xffff	; ????
    680c:	ff ff       	.word	0xffff	; ????
    680e:	ff ff       	.word	0xffff	; ????
    6810:	ff ff       	.word	0xffff	; ????
    6812:	ff ff       	.word	0xffff	; ????
    6814:	ff ff       	.word	0xffff	; ????
    6816:	ff ff       	.word	0xffff	; ????
    6818:	ff ff       	.word	0xffff	; ????
    681a:	ff ff       	.word	0xffff	; ????
    681c:	ff ff       	.word	0xffff	; ????
    681e:	ff ff       	.word	0xffff	; ????
    6820:	ff ff       	.word	0xffff	; ????
    6822:	ff ff       	.word	0xffff	; ????
    6824:	ff ff       	.word	0xffff	; ????
    6826:	ff ff       	.word	0xffff	; ????
    6828:	ff ff       	.word	0xffff	; ????
    682a:	ff ff       	.word	0xffff	; ????
    682c:	ff ff       	.word	0xffff	; ????
    682e:	ff ff       	.word	0xffff	; ????
    6830:	ff ff       	.word	0xffff	; ????
    6832:	ff ff       	.word	0xffff	; ????
    6834:	ff ff       	.word	0xffff	; ????
    6836:	ff ff       	.word	0xffff	; ????
    6838:	ff ff       	.word	0xffff	; ????
    683a:	ff ff       	.word	0xffff	; ????
    683c:	ff ff       	.word	0xffff	; ????
    683e:	ff ff       	.word	0xffff	; ????
    6840:	ff ff       	.word	0xffff	; ????
    6842:	ff ff       	.word	0xffff	; ????
    6844:	ff ff       	.word	0xffff	; ????
    6846:	ff ff       	.word	0xffff	; ????
    6848:	ff ff       	.word	0xffff	; ????
    684a:	ff ff       	.word	0xffff	; ????
    684c:	ff ff       	.word	0xffff	; ????
    684e:	ff ff       	.word	0xffff	; ????
    6850:	ff ff       	.word	0xffff	; ????
    6852:	ff ff       	.word	0xffff	; ????
    6854:	ff ff       	.word	0xffff	; ????
    6856:	ff ff       	.word	0xffff	; ????
    6858:	ff ff       	.word	0xffff	; ????
    685a:	ff ff       	.word	0xffff	; ????
    685c:	ff ff       	.word	0xffff	; ????
    685e:	ff ff       	.word	0xffff	; ????
    6860:	ff ff       	.word	0xffff	; ????
    6862:	ff ff       	.word	0xffff	; ????
    6864:	ff ff       	.word	0xffff	; ????
    6866:	ff ff       	.word	0xffff	; ????
    6868:	ff ff       	.word	0xffff	; ????
    686a:	ff ff       	.word	0xffff	; ????
    686c:	ff ff       	.word	0xffff	; ????
    686e:	ff ff       	.word	0xffff	; ????
    6870:	ff ff       	.word	0xffff	; ????
    6872:	ff ff       	.word	0xffff	; ????
    6874:	ff ff       	.word	0xffff	; ????
    6876:	ff ff       	.word	0xffff	; ????
    6878:	ff ff       	.word	0xffff	; ????
    687a:	ff ff       	.word	0xffff	; ????
    687c:	ff ff       	.word	0xffff	; ????
    687e:	ff ff       	.word	0xffff	; ????
    6880:	ff ff       	.word	0xffff	; ????
    6882:	ff ff       	.word	0xffff	; ????
    6884:	ff ff       	.word	0xffff	; ????
    6886:	ff ff       	.word	0xffff	; ????
    6888:	ff ff       	.word	0xffff	; ????
    688a:	ff ff       	.word	0xffff	; ????
    688c:	ff ff       	.word	0xffff	; ????
    688e:	ff ff       	.word	0xffff	; ????
    6890:	ff ff       	.word	0xffff	; ????
    6892:	ff ff       	.word	0xffff	; ????
    6894:	ff ff       	.word	0xffff	; ????
    6896:	ff ff       	.word	0xffff	; ????
    6898:	ff ff       	.word	0xffff	; ????
    689a:	ff ff       	.word	0xffff	; ????
    689c:	ff ff       	.word	0xffff	; ????
    689e:	ff ff       	.word	0xffff	; ????
    68a0:	ff ff       	.word	0xffff	; ????
    68a2:	ff ff       	.word	0xffff	; ????
    68a4:	ff ff       	.word	0xffff	; ????
    68a6:	ff ff       	.word	0xffff	; ????
    68a8:	ff ff       	.word	0xffff	; ????
    68aa:	ff ff       	.word	0xffff	; ????
    68ac:	ff ff       	.word	0xffff	; ????
    68ae:	ff ff       	.word	0xffff	; ????
    68b0:	ff ff       	.word	0xffff	; ????
    68b2:	ff ff       	.word	0xffff	; ????
    68b4:	ff ff       	.word	0xffff	; ????
    68b6:	ff ff       	.word	0xffff	; ????
    68b8:	ff ff       	.word	0xffff	; ????
    68ba:	ff ff       	.word	0xffff	; ????
    68bc:	ff ff       	.word	0xffff	; ????
    68be:	ff ff       	.word	0xffff	; ????
    68c0:	ff ff       	.word	0xffff	; ????
    68c2:	ff ff       	.word	0xffff	; ????
    68c4:	ff ff       	.word	0xffff	; ????
    68c6:	ff ff       	.word	0xffff	; ????
    68c8:	ff ff       	.word	0xffff	; ????
    68ca:	ff ff       	.word	0xffff	; ????
    68cc:	ff ff       	.word	0xffff	; ????
    68ce:	ff ff       	.word	0xffff	; ????
    68d0:	ff ff       	.word	0xffff	; ????
    68d2:	ff ff       	.word	0xffff	; ????
    68d4:	ff ff       	.word	0xffff	; ????
    68d6:	ff ff       	.word	0xffff	; ????
    68d8:	ff ff       	.word	0xffff	; ????
    68da:	ff ff       	.word	0xffff	; ????
    68dc:	ff ff       	.word	0xffff	; ????
    68de:	ff ff       	.word	0xffff	; ????
    68e0:	ff ff       	.word	0xffff	; ????
    68e2:	ff ff       	.word	0xffff	; ????
    68e4:	ff ff       	.word	0xffff	; ????
    68e6:	ff ff       	.word	0xffff	; ????
    68e8:	ff ff       	.word	0xffff	; ????
    68ea:	ff ff       	.word	0xffff	; ????
    68ec:	ff ff       	.word	0xffff	; ????
    68ee:	ff ff       	.word	0xffff	; ????
    68f0:	ff ff       	.word	0xffff	; ????
    68f2:	ff ff       	.word	0xffff	; ????
    68f4:	ff ff       	.word	0xffff	; ????
    68f6:	ff ff       	.word	0xffff	; ????
    68f8:	ff ff       	.word	0xffff	; ????
    68fa:	ff ff       	.word	0xffff	; ????
    68fc:	ff ff       	.word	0xffff	; ????
    68fe:	ff ff       	.word	0xffff	; ????
    6900:	ff ff       	.word	0xffff	; ????
    6902:	ff ff       	.word	0xffff	; ????
    6904:	ff ff       	.word	0xffff	; ????
    6906:	ff ff       	.word	0xffff	; ????
    6908:	ff ff       	.word	0xffff	; ????
    690a:	ff ff       	.word	0xffff	; ????
    690c:	ff ff       	.word	0xffff	; ????
    690e:	ff ff       	.word	0xffff	; ????
    6910:	ff ff       	.word	0xffff	; ????
    6912:	ff ff       	.word	0xffff	; ????
    6914:	ff ff       	.word	0xffff	; ????
    6916:	ff ff       	.word	0xffff	; ????
    6918:	ff ff       	.word	0xffff	; ????
    691a:	ff ff       	.word	0xffff	; ????
    691c:	ff ff       	.word	0xffff	; ????
    691e:	ff ff       	.word	0xffff	; ????
    6920:	ff ff       	.word	0xffff	; ????
    6922:	ff ff       	.word	0xffff	; ????
    6924:	ff ff       	.word	0xffff	; ????
    6926:	ff ff       	.word	0xffff	; ????
    6928:	ff ff       	.word	0xffff	; ????
    692a:	ff ff       	.word	0xffff	; ????
    692c:	ff ff       	.word	0xffff	; ????
    692e:	ff ff       	.word	0xffff	; ????
    6930:	ff ff       	.word	0xffff	; ????
    6932:	ff ff       	.word	0xffff	; ????
    6934:	ff ff       	.word	0xffff	; ????
    6936:	ff ff       	.word	0xffff	; ????
    6938:	ff ff       	.word	0xffff	; ????
    693a:	ff ff       	.word	0xffff	; ????
    693c:	ff ff       	.word	0xffff	; ????
    693e:	ff ff       	.word	0xffff	; ????
    6940:	ff ff       	.word	0xffff	; ????
    6942:	ff ff       	.word	0xffff	; ????
    6944:	ff ff       	.word	0xffff	; ????
    6946:	ff ff       	.word	0xffff	; ????
    6948:	ff ff       	.word	0xffff	; ????
    694a:	ff ff       	.word	0xffff	; ????
    694c:	ff ff       	.word	0xffff	; ????
    694e:	ff ff       	.word	0xffff	; ????
    6950:	ff ff       	.word	0xffff	; ????
    6952:	ff ff       	.word	0xffff	; ????
    6954:	ff ff       	.word	0xffff	; ????
    6956:	ff ff       	.word	0xffff	; ????
    6958:	ff ff       	.word	0xffff	; ????
    695a:	ff ff       	.word	0xffff	; ????
    695c:	ff ff       	.word	0xffff	; ????
    695e:	ff ff       	.word	0xffff	; ????
    6960:	ff ff       	.word	0xffff	; ????
    6962:	ff ff       	.word	0xffff	; ????
    6964:	ff ff       	.word	0xffff	; ????
    6966:	ff ff       	.word	0xffff	; ????
    6968:	ff ff       	.word	0xffff	; ????
    696a:	ff ff       	.word	0xffff	; ????
    696c:	ff ff       	.word	0xffff	; ????
    696e:	ff ff       	.word	0xffff	; ????
    6970:	ff ff       	.word	0xffff	; ????
    6972:	ff ff       	.word	0xffff	; ????
    6974:	ff ff       	.word	0xffff	; ????
    6976:	ff ff       	.word	0xffff	; ????
    6978:	ff ff       	.word	0xffff	; ????
    697a:	ff ff       	.word	0xffff	; ????
    697c:	ff ff       	.word	0xffff	; ????
    697e:	ff ff       	.word	0xffff	; ????
    6980:	ff ff       	.word	0xffff	; ????
    6982:	ff ff       	.word	0xffff	; ????
    6984:	ff ff       	.word	0xffff	; ????
    6986:	ff ff       	.word	0xffff	; ????
    6988:	ff ff       	.word	0xffff	; ????
    698a:	ff ff       	.word	0xffff	; ????
    698c:	ff ff       	.word	0xffff	; ????
    698e:	ff ff       	.word	0xffff	; ????
    6990:	ff ff       	.word	0xffff	; ????
    6992:	ff ff       	.word	0xffff	; ????
    6994:	ff ff       	.word	0xffff	; ????
    6996:	ff ff       	.word	0xffff	; ????
    6998:	ff ff       	.word	0xffff	; ????
    699a:	ff ff       	.word	0xffff	; ????
    699c:	ff ff       	.word	0xffff	; ????
    699e:	ff ff       	.word	0xffff	; ????
    69a0:	ff ff       	.word	0xffff	; ????
    69a2:	ff ff       	.word	0xffff	; ????
    69a4:	ff ff       	.word	0xffff	; ????
    69a6:	ff ff       	.word	0xffff	; ????
    69a8:	ff ff       	.word	0xffff	; ????
    69aa:	ff ff       	.word	0xffff	; ????
    69ac:	ff ff       	.word	0xffff	; ????
    69ae:	ff ff       	.word	0xffff	; ????
    69b0:	ff ff       	.word	0xffff	; ????
    69b2:	ff ff       	.word	0xffff	; ????
    69b4:	ff ff       	.word	0xffff	; ????
    69b6:	ff ff       	.word	0xffff	; ????
    69b8:	ff ff       	.word	0xffff	; ????
    69ba:	ff ff       	.word	0xffff	; ????
    69bc:	ff ff       	.word	0xffff	; ????
    69be:	ff ff       	.word	0xffff	; ????
    69c0:	ff ff       	.word	0xffff	; ????
    69c2:	ff ff       	.word	0xffff	; ????
    69c4:	ff ff       	.word	0xffff	; ????
    69c6:	ff ff       	.word	0xffff	; ????
    69c8:	ff ff       	.word	0xffff	; ????
    69ca:	ff ff       	.word	0xffff	; ????
    69cc:	ff ff       	.word	0xffff	; ????
    69ce:	ff ff       	.word	0xffff	; ????
    69d0:	ff ff       	.word	0xffff	; ????
    69d2:	ff ff       	.word	0xffff	; ????
    69d4:	ff ff       	.word	0xffff	; ????
    69d6:	ff ff       	.word	0xffff	; ????
    69d8:	ff ff       	.word	0xffff	; ????
    69da:	ff ff       	.word	0xffff	; ????
    69dc:	ff ff       	.word	0xffff	; ????
    69de:	ff ff       	.word	0xffff	; ????
    69e0:	ff ff       	.word	0xffff	; ????
    69e2:	ff ff       	.word	0xffff	; ????
    69e4:	ff ff       	.word	0xffff	; ????
    69e6:	ff ff       	.word	0xffff	; ????
    69e8:	ff ff       	.word	0xffff	; ????
    69ea:	ff ff       	.word	0xffff	; ????
    69ec:	ff ff       	.word	0xffff	; ????
    69ee:	ff ff       	.word	0xffff	; ????
    69f0:	ff ff       	.word	0xffff	; ????
    69f2:	ff ff       	.word	0xffff	; ????
    69f4:	ff ff       	.word	0xffff	; ????
    69f6:	ff ff       	.word	0xffff	; ????
    69f8:	ff ff       	.word	0xffff	; ????
    69fa:	ff ff       	.word	0xffff	; ????
    69fc:	ff ff       	.word	0xffff	; ????
    69fe:	ff ff       	.word	0xffff	; ????
    6a00:	ff ff       	.word	0xffff	; ????
    6a02:	ff ff       	.word	0xffff	; ????
    6a04:	ff ff       	.word	0xffff	; ????
    6a06:	ff ff       	.word	0xffff	; ????
    6a08:	ff ff       	.word	0xffff	; ????
    6a0a:	ff ff       	.word	0xffff	; ????
    6a0c:	ff ff       	.word	0xffff	; ????
    6a0e:	ff ff       	.word	0xffff	; ????
    6a10:	ff ff       	.word	0xffff	; ????
    6a12:	ff ff       	.word	0xffff	; ????
    6a14:	ff ff       	.word	0xffff	; ????
    6a16:	ff ff       	.word	0xffff	; ????
    6a18:	ff ff       	.word	0xffff	; ????
    6a1a:	ff ff       	.word	0xffff	; ????
    6a1c:	ff ff       	.word	0xffff	; ????
    6a1e:	ff ff       	.word	0xffff	; ????
    6a20:	ff ff       	.word	0xffff	; ????
    6a22:	ff ff       	.word	0xffff	; ????
    6a24:	ff ff       	.word	0xffff	; ????
    6a26:	ff ff       	.word	0xffff	; ????
    6a28:	ff ff       	.word	0xffff	; ????
    6a2a:	ff ff       	.word	0xffff	; ????
    6a2c:	ff ff       	.word	0xffff	; ????
    6a2e:	ff ff       	.word	0xffff	; ????
    6a30:	ff ff       	.word	0xffff	; ????
    6a32:	ff ff       	.word	0xffff	; ????
    6a34:	ff ff       	.word	0xffff	; ????
    6a36:	ff ff       	.word	0xffff	; ????
    6a38:	ff ff       	.word	0xffff	; ????
    6a3a:	ff ff       	.word	0xffff	; ????
    6a3c:	ff ff       	.word	0xffff	; ????
    6a3e:	ff ff       	.word	0xffff	; ????
    6a40:	ff ff       	.word	0xffff	; ????
    6a42:	ff ff       	.word	0xffff	; ????
    6a44:	ff ff       	.word	0xffff	; ????
    6a46:	ff ff       	.word	0xffff	; ????
    6a48:	ff ff       	.word	0xffff	; ????
    6a4a:	ff ff       	.word	0xffff	; ????
    6a4c:	ff ff       	.word	0xffff	; ????
    6a4e:	ff ff       	.word	0xffff	; ????
    6a50:	ff ff       	.word	0xffff	; ????
    6a52:	ff ff       	.word	0xffff	; ????
    6a54:	ff ff       	.word	0xffff	; ????
    6a56:	ff ff       	.word	0xffff	; ????
    6a58:	ff ff       	.word	0xffff	; ????
    6a5a:	ff ff       	.word	0xffff	; ????
    6a5c:	ff ff       	.word	0xffff	; ????
    6a5e:	ff ff       	.word	0xffff	; ????
    6a60:	ff ff       	.word	0xffff	; ????
    6a62:	ff ff       	.word	0xffff	; ????
    6a64:	ff ff       	.word	0xffff	; ????
    6a66:	ff ff       	.word	0xffff	; ????
    6a68:	ff ff       	.word	0xffff	; ????
    6a6a:	ff ff       	.word	0xffff	; ????
    6a6c:	ff ff       	.word	0xffff	; ????
    6a6e:	ff ff       	.word	0xffff	; ????
    6a70:	ff ff       	.word	0xffff	; ????
    6a72:	ff ff       	.word	0xffff	; ????
    6a74:	ff ff       	.word	0xffff	; ????
    6a76:	ff ff       	.word	0xffff	; ????
    6a78:	ff ff       	.word	0xffff	; ????
    6a7a:	ff ff       	.word	0xffff	; ????
    6a7c:	ff ff       	.word	0xffff	; ????
    6a7e:	ff ff       	.word	0xffff	; ????
    6a80:	ff ff       	.word	0xffff	; ????
    6a82:	ff ff       	.word	0xffff	; ????
    6a84:	ff ff       	.word	0xffff	; ????
    6a86:	ff ff       	.word	0xffff	; ????
    6a88:	ff ff       	.word	0xffff	; ????
    6a8a:	ff ff       	.word	0xffff	; ????
    6a8c:	ff ff       	.word	0xffff	; ????
    6a8e:	ff ff       	.word	0xffff	; ????
    6a90:	ff ff       	.word	0xffff	; ????
    6a92:	ff ff       	.word	0xffff	; ????
    6a94:	ff ff       	.word	0xffff	; ????
    6a96:	ff ff       	.word	0xffff	; ????
    6a98:	ff ff       	.word	0xffff	; ????
    6a9a:	ff ff       	.word	0xffff	; ????
    6a9c:	ff ff       	.word	0xffff	; ????
    6a9e:	ff ff       	.word	0xffff	; ????
    6aa0:	ff ff       	.word	0xffff	; ????
    6aa2:	ff ff       	.word	0xffff	; ????
    6aa4:	ff ff       	.word	0xffff	; ????
    6aa6:	ff ff       	.word	0xffff	; ????
    6aa8:	ff ff       	.word	0xffff	; ????
    6aaa:	ff ff       	.word	0xffff	; ????
    6aac:	ff ff       	.word	0xffff	; ????
    6aae:	ff ff       	.word	0xffff	; ????
    6ab0:	ff ff       	.word	0xffff	; ????
    6ab2:	ff ff       	.word	0xffff	; ????
    6ab4:	ff ff       	.word	0xffff	; ????
    6ab6:	ff ff       	.word	0xffff	; ????
    6ab8:	ff ff       	.word	0xffff	; ????
    6aba:	ff ff       	.word	0xffff	; ????
    6abc:	ff ff       	.word	0xffff	; ????
    6abe:	ff ff       	.word	0xffff	; ????
    6ac0:	ff ff       	.word	0xffff	; ????
    6ac2:	ff ff       	.word	0xffff	; ????
    6ac4:	ff ff       	.word	0xffff	; ????
    6ac6:	ff ff       	.word	0xffff	; ????
    6ac8:	ff ff       	.word	0xffff	; ????
    6aca:	ff ff       	.word	0xffff	; ????
    6acc:	ff ff       	.word	0xffff	; ????
    6ace:	ff ff       	.word	0xffff	; ????
    6ad0:	ff ff       	.word	0xffff	; ????
    6ad2:	ff ff       	.word	0xffff	; ????
    6ad4:	ff ff       	.word	0xffff	; ????
    6ad6:	ff ff       	.word	0xffff	; ????
    6ad8:	ff ff       	.word	0xffff	; ????
    6ada:	ff ff       	.word	0xffff	; ????
    6adc:	ff ff       	.word	0xffff	; ????
    6ade:	ff ff       	.word	0xffff	; ????
    6ae0:	ff ff       	.word	0xffff	; ????
    6ae2:	ff ff       	.word	0xffff	; ????
    6ae4:	ff ff       	.word	0xffff	; ????
    6ae6:	ff ff       	.word	0xffff	; ????
    6ae8:	ff ff       	.word	0xffff	; ????
    6aea:	ff ff       	.word	0xffff	; ????
    6aec:	ff ff       	.word	0xffff	; ????
    6aee:	ff ff       	.word	0xffff	; ????
    6af0:	ff ff       	.word	0xffff	; ????
    6af2:	ff ff       	.word	0xffff	; ????
    6af4:	ff ff       	.word	0xffff	; ????
    6af6:	ff ff       	.word	0xffff	; ????
    6af8:	ff ff       	.word	0xffff	; ????
    6afa:	ff ff       	.word	0xffff	; ????
    6afc:	ff ff       	.word	0xffff	; ????
    6afe:	ff ff       	.word	0xffff	; ????
    6b00:	ff ff       	.word	0xffff	; ????
    6b02:	ff ff       	.word	0xffff	; ????
    6b04:	ff ff       	.word	0xffff	; ????
    6b06:	ff ff       	.word	0xffff	; ????
    6b08:	ff ff       	.word	0xffff	; ????
    6b0a:	ff ff       	.word	0xffff	; ????
    6b0c:	ff ff       	.word	0xffff	; ????
    6b0e:	ff ff       	.word	0xffff	; ????
    6b10:	ff ff       	.word	0xffff	; ????
    6b12:	ff ff       	.word	0xffff	; ????
    6b14:	ff ff       	.word	0xffff	; ????
    6b16:	ff ff       	.word	0xffff	; ????
    6b18:	ff ff       	.word	0xffff	; ????
    6b1a:	ff ff       	.word	0xffff	; ????
    6b1c:	ff ff       	.word	0xffff	; ????
    6b1e:	ff ff       	.word	0xffff	; ????
    6b20:	ff ff       	.word	0xffff	; ????
    6b22:	ff ff       	.word	0xffff	; ????
    6b24:	ff ff       	.word	0xffff	; ????
    6b26:	ff ff       	.word	0xffff	; ????
    6b28:	ff ff       	.word	0xffff	; ????
    6b2a:	ff ff       	.word	0xffff	; ????
    6b2c:	ff ff       	.word	0xffff	; ????
    6b2e:	ff ff       	.word	0xffff	; ????
    6b30:	ff ff       	.word	0xffff	; ????
    6b32:	ff ff       	.word	0xffff	; ????
    6b34:	ff ff       	.word	0xffff	; ????
    6b36:	ff ff       	.word	0xffff	; ????
    6b38:	ff ff       	.word	0xffff	; ????
    6b3a:	ff ff       	.word	0xffff	; ????
    6b3c:	ff ff       	.word	0xffff	; ????
    6b3e:	ff ff       	.word	0xffff	; ????
    6b40:	ff ff       	.word	0xffff	; ????
    6b42:	ff ff       	.word	0xffff	; ????
    6b44:	ff ff       	.word	0xffff	; ????
    6b46:	ff ff       	.word	0xffff	; ????
    6b48:	ff ff       	.word	0xffff	; ????
    6b4a:	ff ff       	.word	0xffff	; ????
    6b4c:	ff ff       	.word	0xffff	; ????
    6b4e:	ff ff       	.word	0xffff	; ????
    6b50:	ff ff       	.word	0xffff	; ????
    6b52:	ff ff       	.word	0xffff	; ????
    6b54:	ff ff       	.word	0xffff	; ????
    6b56:	ff ff       	.word	0xffff	; ????
    6b58:	ff ff       	.word	0xffff	; ????
    6b5a:	ff ff       	.word	0xffff	; ????
    6b5c:	ff ff       	.word	0xffff	; ????
    6b5e:	ff ff       	.word	0xffff	; ????
    6b60:	ff ff       	.word	0xffff	; ????
    6b62:	ff ff       	.word	0xffff	; ????
    6b64:	ff ff       	.word	0xffff	; ????
    6b66:	ff ff       	.word	0xffff	; ????
    6b68:	ff ff       	.word	0xffff	; ????
    6b6a:	ff ff       	.word	0xffff	; ????
    6b6c:	ff ff       	.word	0xffff	; ????
    6b6e:	ff ff       	.word	0xffff	; ????
    6b70:	ff ff       	.word	0xffff	; ????
    6b72:	ff ff       	.word	0xffff	; ????
    6b74:	ff ff       	.word	0xffff	; ????
    6b76:	ff ff       	.word	0xffff	; ????
    6b78:	ff ff       	.word	0xffff	; ????
    6b7a:	ff ff       	.word	0xffff	; ????
    6b7c:	ff ff       	.word	0xffff	; ????
    6b7e:	ff ff       	.word	0xffff	; ????
    6b80:	ff ff       	.word	0xffff	; ????
    6b82:	ff ff       	.word	0xffff	; ????
    6b84:	ff ff       	.word	0xffff	; ????
    6b86:	ff ff       	.word	0xffff	; ????
    6b88:	ff ff       	.word	0xffff	; ????
    6b8a:	ff ff       	.word	0xffff	; ????
    6b8c:	ff ff       	.word	0xffff	; ????
    6b8e:	ff ff       	.word	0xffff	; ????
    6b90:	ff ff       	.word	0xffff	; ????
    6b92:	ff ff       	.word	0xffff	; ????
    6b94:	ff ff       	.word	0xffff	; ????
    6b96:	ff ff       	.word	0xffff	; ????
    6b98:	ff ff       	.word	0xffff	; ????
    6b9a:	ff ff       	.word	0xffff	; ????
    6b9c:	ff ff       	.word	0xffff	; ????
    6b9e:	ff ff       	.word	0xffff	; ????
    6ba0:	ff ff       	.word	0xffff	; ????
    6ba2:	ff ff       	.word	0xffff	; ????
    6ba4:	ff ff       	.word	0xffff	; ????
    6ba6:	ff ff       	.word	0xffff	; ????
    6ba8:	ff ff       	.word	0xffff	; ????
    6baa:	ff ff       	.word	0xffff	; ????
    6bac:	ff ff       	.word	0xffff	; ????
    6bae:	ff ff       	.word	0xffff	; ????
    6bb0:	ff ff       	.word	0xffff	; ????
    6bb2:	ff ff       	.word	0xffff	; ????
    6bb4:	ff ff       	.word	0xffff	; ????
    6bb6:	ff ff       	.word	0xffff	; ????
    6bb8:	ff ff       	.word	0xffff	; ????
    6bba:	ff ff       	.word	0xffff	; ????
    6bbc:	ff ff       	.word	0xffff	; ????
    6bbe:	ff ff       	.word	0xffff	; ????
    6bc0:	ff ff       	.word	0xffff	; ????
    6bc2:	ff ff       	.word	0xffff	; ????
    6bc4:	ff ff       	.word	0xffff	; ????
    6bc6:	ff ff       	.word	0xffff	; ????
    6bc8:	ff ff       	.word	0xffff	; ????
    6bca:	ff ff       	.word	0xffff	; ????
    6bcc:	ff ff       	.word	0xffff	; ????
    6bce:	ff ff       	.word	0xffff	; ????
    6bd0:	ff ff       	.word	0xffff	; ????
    6bd2:	ff ff       	.word	0xffff	; ????
    6bd4:	ff ff       	.word	0xffff	; ????
    6bd6:	ff ff       	.word	0xffff	; ????
    6bd8:	ff ff       	.word	0xffff	; ????
    6bda:	ff ff       	.word	0xffff	; ????
    6bdc:	ff ff       	.word	0xffff	; ????
    6bde:	ff ff       	.word	0xffff	; ????
    6be0:	ff ff       	.word	0xffff	; ????
    6be2:	ff ff       	.word	0xffff	; ????
    6be4:	ff ff       	.word	0xffff	; ????
    6be6:	ff ff       	.word	0xffff	; ????
    6be8:	ff ff       	.word	0xffff	; ????
    6bea:	ff ff       	.word	0xffff	; ????
    6bec:	ff ff       	.word	0xffff	; ????
    6bee:	ff ff       	.word	0xffff	; ????
    6bf0:	ff ff       	.word	0xffff	; ????
    6bf2:	ff ff       	.word	0xffff	; ????
    6bf4:	ff ff       	.word	0xffff	; ????
    6bf6:	ff ff       	.word	0xffff	; ????
    6bf8:	ff ff       	.word	0xffff	; ????
    6bfa:	ff ff       	.word	0xffff	; ????
    6bfc:	ff ff       	.word	0xffff	; ????
    6bfe:	ff ff       	.word	0xffff	; ????
    6c00:	ff ff       	.word	0xffff	; ????
    6c02:	ff ff       	.word	0xffff	; ????
    6c04:	ff ff       	.word	0xffff	; ????
    6c06:	ff ff       	.word	0xffff	; ????
    6c08:	ff ff       	.word	0xffff	; ????
    6c0a:	ff ff       	.word	0xffff	; ????
    6c0c:	ff ff       	.word	0xffff	; ????
    6c0e:	ff ff       	.word	0xffff	; ????
    6c10:	ff ff       	.word	0xffff	; ????
    6c12:	ff ff       	.word	0xffff	; ????
    6c14:	ff ff       	.word	0xffff	; ????
    6c16:	ff ff       	.word	0xffff	; ????
    6c18:	ff ff       	.word	0xffff	; ????
    6c1a:	ff ff       	.word	0xffff	; ????
    6c1c:	ff ff       	.word	0xffff	; ????
    6c1e:	ff ff       	.word	0xffff	; ????
    6c20:	ff ff       	.word	0xffff	; ????
    6c22:	ff ff       	.word	0xffff	; ????
    6c24:	ff ff       	.word	0xffff	; ????
    6c26:	ff ff       	.word	0xffff	; ????
    6c28:	ff ff       	.word	0xffff	; ????
    6c2a:	ff ff       	.word	0xffff	; ????
    6c2c:	ff ff       	.word	0xffff	; ????
    6c2e:	ff ff       	.word	0xffff	; ????
    6c30:	ff ff       	.word	0xffff	; ????
    6c32:	ff ff       	.word	0xffff	; ????
    6c34:	ff ff       	.word	0xffff	; ????
    6c36:	ff ff       	.word	0xffff	; ????
    6c38:	ff ff       	.word	0xffff	; ????
    6c3a:	ff ff       	.word	0xffff	; ????
    6c3c:	ff ff       	.word	0xffff	; ????
    6c3e:	ff ff       	.word	0xffff	; ????
    6c40:	ff ff       	.word	0xffff	; ????
    6c42:	ff ff       	.word	0xffff	; ????
    6c44:	ff ff       	.word	0xffff	; ????
    6c46:	ff ff       	.word	0xffff	; ????
    6c48:	ff ff       	.word	0xffff	; ????
    6c4a:	ff ff       	.word	0xffff	; ????
    6c4c:	ff ff       	.word	0xffff	; ????
    6c4e:	ff ff       	.word	0xffff	; ????
    6c50:	ff ff       	.word	0xffff	; ????
    6c52:	ff ff       	.word	0xffff	; ????
    6c54:	ff ff       	.word	0xffff	; ????
    6c56:	ff ff       	.word	0xffff	; ????
    6c58:	ff ff       	.word	0xffff	; ????
    6c5a:	ff ff       	.word	0xffff	; ????
    6c5c:	ff ff       	.word	0xffff	; ????
    6c5e:	ff ff       	.word	0xffff	; ????
    6c60:	ff ff       	.word	0xffff	; ????
    6c62:	ff ff       	.word	0xffff	; ????
    6c64:	ff ff       	.word	0xffff	; ????
    6c66:	ff ff       	.word	0xffff	; ????
    6c68:	ff ff       	.word	0xffff	; ????
    6c6a:	ff ff       	.word	0xffff	; ????
    6c6c:	ff ff       	.word	0xffff	; ????
    6c6e:	ff ff       	.word	0xffff	; ????
    6c70:	ff ff       	.word	0xffff	; ????
    6c72:	ff ff       	.word	0xffff	; ????
    6c74:	ff ff       	.word	0xffff	; ????
    6c76:	ff ff       	.word	0xffff	; ????
    6c78:	ff ff       	.word	0xffff	; ????
    6c7a:	ff ff       	.word	0xffff	; ????
    6c7c:	ff ff       	.word	0xffff	; ????
    6c7e:	ff ff       	.word	0xffff	; ????
    6c80:	ff ff       	.word	0xffff	; ????
    6c82:	ff ff       	.word	0xffff	; ????
    6c84:	ff ff       	.word	0xffff	; ????
    6c86:	ff ff       	.word	0xffff	; ????
    6c88:	ff ff       	.word	0xffff	; ????
    6c8a:	ff ff       	.word	0xffff	; ????
    6c8c:	ff ff       	.word	0xffff	; ????
    6c8e:	ff ff       	.word	0xffff	; ????
    6c90:	ff ff       	.word	0xffff	; ????
    6c92:	ff ff       	.word	0xffff	; ????
    6c94:	ff ff       	.word	0xffff	; ????
    6c96:	ff ff       	.word	0xffff	; ????
    6c98:	ff ff       	.word	0xffff	; ????
    6c9a:	ff ff       	.word	0xffff	; ????
    6c9c:	ff ff       	.word	0xffff	; ????
    6c9e:	ff ff       	.word	0xffff	; ????
    6ca0:	ff ff       	.word	0xffff	; ????
    6ca2:	ff ff       	.word	0xffff	; ????
    6ca4:	ff ff       	.word	0xffff	; ????
    6ca6:	ff ff       	.word	0xffff	; ????
    6ca8:	ff ff       	.word	0xffff	; ????
    6caa:	ff ff       	.word	0xffff	; ????
    6cac:	ff ff       	.word	0xffff	; ????
    6cae:	ff ff       	.word	0xffff	; ????
    6cb0:	ff ff       	.word	0xffff	; ????
    6cb2:	ff ff       	.word	0xffff	; ????
    6cb4:	ff ff       	.word	0xffff	; ????
    6cb6:	ff ff       	.word	0xffff	; ????
    6cb8:	ff ff       	.word	0xffff	; ????
    6cba:	ff ff       	.word	0xffff	; ????
    6cbc:	ff ff       	.word	0xffff	; ????
    6cbe:	ff ff       	.word	0xffff	; ????
    6cc0:	ff ff       	.word	0xffff	; ????
    6cc2:	ff ff       	.word	0xffff	; ????
    6cc4:	ff ff       	.word	0xffff	; ????
    6cc6:	ff ff       	.word	0xffff	; ????
    6cc8:	ff ff       	.word	0xffff	; ????
    6cca:	ff ff       	.word	0xffff	; ????
    6ccc:	ff ff       	.word	0xffff	; ????
    6cce:	ff ff       	.word	0xffff	; ????
    6cd0:	ff ff       	.word	0xffff	; ????
    6cd2:	ff ff       	.word	0xffff	; ????
    6cd4:	ff ff       	.word	0xffff	; ????
    6cd6:	ff ff       	.word	0xffff	; ????
    6cd8:	ff ff       	.word	0xffff	; ????
    6cda:	ff ff       	.word	0xffff	; ????
    6cdc:	ff ff       	.word	0xffff	; ????
    6cde:	ff ff       	.word	0xffff	; ????
    6ce0:	ff ff       	.word	0xffff	; ????
    6ce2:	ff ff       	.word	0xffff	; ????
    6ce4:	ff ff       	.word	0xffff	; ????
    6ce6:	ff ff       	.word	0xffff	; ????
    6ce8:	ff ff       	.word	0xffff	; ????
    6cea:	ff ff       	.word	0xffff	; ????
    6cec:	ff ff       	.word	0xffff	; ????
    6cee:	ff ff       	.word	0xffff	; ????
    6cf0:	ff ff       	.word	0xffff	; ????
    6cf2:	ff ff       	.word	0xffff	; ????
    6cf4:	ff ff       	.word	0xffff	; ????
    6cf6:	ff ff       	.word	0xffff	; ????
    6cf8:	ff ff       	.word	0xffff	; ????
    6cfa:	ff ff       	.word	0xffff	; ????
    6cfc:	ff ff       	.word	0xffff	; ????
    6cfe:	ff ff       	.word	0xffff	; ????
    6d00:	ff ff       	.word	0xffff	; ????
    6d02:	ff ff       	.word	0xffff	; ????
    6d04:	ff ff       	.word	0xffff	; ????
    6d06:	ff ff       	.word	0xffff	; ????
    6d08:	ff ff       	.word	0xffff	; ????
    6d0a:	ff ff       	.word	0xffff	; ????
    6d0c:	ff ff       	.word	0xffff	; ????
    6d0e:	ff ff       	.word	0xffff	; ????
    6d10:	ff ff       	.word	0xffff	; ????
    6d12:	ff ff       	.word	0xffff	; ????
    6d14:	ff ff       	.word	0xffff	; ????
    6d16:	ff ff       	.word	0xffff	; ????
    6d18:	ff ff       	.word	0xffff	; ????
    6d1a:	ff ff       	.word	0xffff	; ????
    6d1c:	ff ff       	.word	0xffff	; ????
    6d1e:	ff ff       	.word	0xffff	; ????
    6d20:	ff ff       	.word	0xffff	; ????
    6d22:	ff ff       	.word	0xffff	; ????
    6d24:	ff ff       	.word	0xffff	; ????
    6d26:	ff ff       	.word	0xffff	; ????
    6d28:	ff ff       	.word	0xffff	; ????
    6d2a:	ff ff       	.word	0xffff	; ????
    6d2c:	ff ff       	.word	0xffff	; ????
    6d2e:	ff ff       	.word	0xffff	; ????
    6d30:	ff ff       	.word	0xffff	; ????
    6d32:	ff ff       	.word	0xffff	; ????
    6d34:	ff ff       	.word	0xffff	; ????
    6d36:	ff ff       	.word	0xffff	; ????
    6d38:	ff ff       	.word	0xffff	; ????
    6d3a:	ff ff       	.word	0xffff	; ????
    6d3c:	ff ff       	.word	0xffff	; ????
    6d3e:	ff ff       	.word	0xffff	; ????
    6d40:	ff ff       	.word	0xffff	; ????
    6d42:	ff ff       	.word	0xffff	; ????
    6d44:	ff ff       	.word	0xffff	; ????
    6d46:	ff ff       	.word	0xffff	; ????
    6d48:	ff ff       	.word	0xffff	; ????
    6d4a:	ff ff       	.word	0xffff	; ????
    6d4c:	ff ff       	.word	0xffff	; ????
    6d4e:	ff ff       	.word	0xffff	; ????
    6d50:	ff ff       	.word	0xffff	; ????
    6d52:	ff ff       	.word	0xffff	; ????
    6d54:	ff ff       	.word	0xffff	; ????
    6d56:	ff ff       	.word	0xffff	; ????
    6d58:	ff ff       	.word	0xffff	; ????
    6d5a:	ff ff       	.word	0xffff	; ????
    6d5c:	ff ff       	.word	0xffff	; ????
    6d5e:	ff ff       	.word	0xffff	; ????
    6d60:	ff ff       	.word	0xffff	; ????
    6d62:	ff ff       	.word	0xffff	; ????
    6d64:	ff ff       	.word	0xffff	; ????
    6d66:	ff ff       	.word	0xffff	; ????
    6d68:	ff ff       	.word	0xffff	; ????
    6d6a:	ff ff       	.word	0xffff	; ????
    6d6c:	ff ff       	.word	0xffff	; ????
    6d6e:	ff ff       	.word	0xffff	; ????
    6d70:	ff ff       	.word	0xffff	; ????
    6d72:	ff ff       	.word	0xffff	; ????
    6d74:	ff ff       	.word	0xffff	; ????
    6d76:	ff ff       	.word	0xffff	; ????
    6d78:	ff ff       	.word	0xffff	; ????
    6d7a:	ff ff       	.word	0xffff	; ????
    6d7c:	ff ff       	.word	0xffff	; ????
    6d7e:	ff ff       	.word	0xffff	; ????
    6d80:	ff ff       	.word	0xffff	; ????
    6d82:	ff ff       	.word	0xffff	; ????
    6d84:	ff ff       	.word	0xffff	; ????
    6d86:	ff ff       	.word	0xffff	; ????
    6d88:	ff ff       	.word	0xffff	; ????
    6d8a:	ff ff       	.word	0xffff	; ????
    6d8c:	ff ff       	.word	0xffff	; ????
    6d8e:	ff ff       	.word	0xffff	; ????
    6d90:	ff ff       	.word	0xffff	; ????
    6d92:	ff ff       	.word	0xffff	; ????
    6d94:	ff ff       	.word	0xffff	; ????
    6d96:	ff ff       	.word	0xffff	; ????
    6d98:	ff ff       	.word	0xffff	; ????
    6d9a:	ff ff       	.word	0xffff	; ????
    6d9c:	ff ff       	.word	0xffff	; ????
    6d9e:	ff ff       	.word	0xffff	; ????
    6da0:	ff ff       	.word	0xffff	; ????
    6da2:	ff ff       	.word	0xffff	; ????
    6da4:	ff ff       	.word	0xffff	; ????
    6da6:	ff ff       	.word	0xffff	; ????
    6da8:	ff ff       	.word	0xffff	; ????
    6daa:	ff ff       	.word	0xffff	; ????
    6dac:	ff ff       	.word	0xffff	; ????
    6dae:	ff ff       	.word	0xffff	; ????
    6db0:	ff ff       	.word	0xffff	; ????
    6db2:	ff ff       	.word	0xffff	; ????
    6db4:	ff ff       	.word	0xffff	; ????
    6db6:	ff ff       	.word	0xffff	; ????
    6db8:	ff ff       	.word	0xffff	; ????
    6dba:	ff ff       	.word	0xffff	; ????
    6dbc:	ff ff       	.word	0xffff	; ????
    6dbe:	ff ff       	.word	0xffff	; ????
    6dc0:	ff ff       	.word	0xffff	; ????
    6dc2:	ff ff       	.word	0xffff	; ????
    6dc4:	ff ff       	.word	0xffff	; ????
    6dc6:	ff ff       	.word	0xffff	; ????
    6dc8:	ff ff       	.word	0xffff	; ????
    6dca:	ff ff       	.word	0xffff	; ????
    6dcc:	ff ff       	.word	0xffff	; ????
    6dce:	ff ff       	.word	0xffff	; ????
    6dd0:	ff ff       	.word	0xffff	; ????
    6dd2:	ff ff       	.word	0xffff	; ????
    6dd4:	ff ff       	.word	0xffff	; ????
    6dd6:	ff ff       	.word	0xffff	; ????
    6dd8:	ff ff       	.word	0xffff	; ????
    6dda:	ff ff       	.word	0xffff	; ????
    6ddc:	ff ff       	.word	0xffff	; ????
    6dde:	ff ff       	.word	0xffff	; ????
    6de0:	ff ff       	.word	0xffff	; ????
    6de2:	ff ff       	.word	0xffff	; ????
    6de4:	ff ff       	.word	0xffff	; ????
    6de6:	ff ff       	.word	0xffff	; ????
    6de8:	ff ff       	.word	0xffff	; ????
    6dea:	ff ff       	.word	0xffff	; ????
    6dec:	ff ff       	.word	0xffff	; ????
    6dee:	ff ff       	.word	0xffff	; ????
    6df0:	ff ff       	.word	0xffff	; ????
    6df2:	ff ff       	.word	0xffff	; ????
    6df4:	ff ff       	.word	0xffff	; ????
    6df6:	ff ff       	.word	0xffff	; ????
    6df8:	ff ff       	.word	0xffff	; ????
    6dfa:	ff ff       	.word	0xffff	; ????
    6dfc:	ff ff       	.word	0xffff	; ????
    6dfe:	ff ff       	.word	0xffff	; ????
    6e00:	ff ff       	.word	0xffff	; ????
    6e02:	ff ff       	.word	0xffff	; ????
    6e04:	ff ff       	.word	0xffff	; ????
    6e06:	ff ff       	.word	0xffff	; ????
    6e08:	ff ff       	.word	0xffff	; ????
    6e0a:	ff ff       	.word	0xffff	; ????
    6e0c:	ff ff       	.word	0xffff	; ????
    6e0e:	ff ff       	.word	0xffff	; ????
    6e10:	ff ff       	.word	0xffff	; ????
    6e12:	ff ff       	.word	0xffff	; ????
    6e14:	ff ff       	.word	0xffff	; ????
    6e16:	ff ff       	.word	0xffff	; ????
    6e18:	ff ff       	.word	0xffff	; ????
    6e1a:	ff ff       	.word	0xffff	; ????
    6e1c:	ff ff       	.word	0xffff	; ????
    6e1e:	ff ff       	.word	0xffff	; ????
    6e20:	ff ff       	.word	0xffff	; ????
    6e22:	ff ff       	.word	0xffff	; ????
    6e24:	ff ff       	.word	0xffff	; ????
    6e26:	ff ff       	.word	0xffff	; ????
    6e28:	ff ff       	.word	0xffff	; ????
    6e2a:	ff ff       	.word	0xffff	; ????
    6e2c:	ff ff       	.word	0xffff	; ????
    6e2e:	ff ff       	.word	0xffff	; ????
    6e30:	ff ff       	.word	0xffff	; ????
    6e32:	ff ff       	.word	0xffff	; ????
    6e34:	ff ff       	.word	0xffff	; ????
    6e36:	ff ff       	.word	0xffff	; ????
    6e38:	ff ff       	.word	0xffff	; ????
    6e3a:	ff ff       	.word	0xffff	; ????
    6e3c:	ff ff       	.word	0xffff	; ????
    6e3e:	ff ff       	.word	0xffff	; ????
    6e40:	ff ff       	.word	0xffff	; ????
    6e42:	ff ff       	.word	0xffff	; ????
    6e44:	ff ff       	.word	0xffff	; ????
    6e46:	ff ff       	.word	0xffff	; ????
    6e48:	ff ff       	.word	0xffff	; ????
    6e4a:	ff ff       	.word	0xffff	; ????
    6e4c:	ff ff       	.word	0xffff	; ????
    6e4e:	ff ff       	.word	0xffff	; ????
    6e50:	ff ff       	.word	0xffff	; ????
    6e52:	ff ff       	.word	0xffff	; ????
    6e54:	ff ff       	.word	0xffff	; ????
    6e56:	ff ff       	.word	0xffff	; ????
    6e58:	ff ff       	.word	0xffff	; ????
    6e5a:	ff ff       	.word	0xffff	; ????
    6e5c:	ff ff       	.word	0xffff	; ????
    6e5e:	ff ff       	.word	0xffff	; ????
    6e60:	ff ff       	.word	0xffff	; ????
    6e62:	ff ff       	.word	0xffff	; ????
    6e64:	ff ff       	.word	0xffff	; ????
    6e66:	ff ff       	.word	0xffff	; ????
    6e68:	ff ff       	.word	0xffff	; ????
    6e6a:	ff ff       	.word	0xffff	; ????
    6e6c:	ff ff       	.word	0xffff	; ????
    6e6e:	ff ff       	.word	0xffff	; ????
    6e70:	ff ff       	.word	0xffff	; ????
    6e72:	ff ff       	.word	0xffff	; ????
    6e74:	ff ff       	.word	0xffff	; ????
    6e76:	ff ff       	.word	0xffff	; ????
    6e78:	ff ff       	.word	0xffff	; ????
    6e7a:	ff ff       	.word	0xffff	; ????
    6e7c:	ff ff       	.word	0xffff	; ????
    6e7e:	ff ff       	.word	0xffff	; ????
    6e80:	ff ff       	.word	0xffff	; ????
    6e82:	ff ff       	.word	0xffff	; ????
    6e84:	ff ff       	.word	0xffff	; ????
    6e86:	ff ff       	.word	0xffff	; ????
    6e88:	ff ff       	.word	0xffff	; ????
    6e8a:	ff ff       	.word	0xffff	; ????
    6e8c:	ff ff       	.word	0xffff	; ????
    6e8e:	ff ff       	.word	0xffff	; ????
    6e90:	ff ff       	.word	0xffff	; ????
    6e92:	ff ff       	.word	0xffff	; ????
    6e94:	ff ff       	.word	0xffff	; ????
    6e96:	ff ff       	.word	0xffff	; ????
    6e98:	ff ff       	.word	0xffff	; ????
    6e9a:	ff ff       	.word	0xffff	; ????
    6e9c:	ff ff       	.word	0xffff	; ????
    6e9e:	ff ff       	.word	0xffff	; ????
    6ea0:	ff ff       	.word	0xffff	; ????
    6ea2:	ff ff       	.word	0xffff	; ????
    6ea4:	ff ff       	.word	0xffff	; ????
    6ea6:	ff ff       	.word	0xffff	; ????
    6ea8:	ff ff       	.word	0xffff	; ????
    6eaa:	ff ff       	.word	0xffff	; ????
    6eac:	ff ff       	.word	0xffff	; ????
    6eae:	ff ff       	.word	0xffff	; ????
    6eb0:	ff ff       	.word	0xffff	; ????
    6eb2:	ff ff       	.word	0xffff	; ????
    6eb4:	ff ff       	.word	0xffff	; ????
    6eb6:	ff ff       	.word	0xffff	; ????
    6eb8:	ff ff       	.word	0xffff	; ????
    6eba:	ff ff       	.word	0xffff	; ????
    6ebc:	ff ff       	.word	0xffff	; ????
    6ebe:	ff ff       	.word	0xffff	; ????
    6ec0:	ff ff       	.word	0xffff	; ????
    6ec2:	ff ff       	.word	0xffff	; ????
    6ec4:	ff ff       	.word	0xffff	; ????
    6ec6:	ff ff       	.word	0xffff	; ????
    6ec8:	ff ff       	.word	0xffff	; ????
    6eca:	ff ff       	.word	0xffff	; ????
    6ecc:	ff ff       	.word	0xffff	; ????
    6ece:	ff ff       	.word	0xffff	; ????
    6ed0:	ff ff       	.word	0xffff	; ????
    6ed2:	ff ff       	.word	0xffff	; ????
    6ed4:	ff ff       	.word	0xffff	; ????
    6ed6:	ff ff       	.word	0xffff	; ????
    6ed8:	ff ff       	.word	0xffff	; ????
    6eda:	ff ff       	.word	0xffff	; ????
    6edc:	ff ff       	.word	0xffff	; ????
    6ede:	ff ff       	.word	0xffff	; ????
    6ee0:	ff ff       	.word	0xffff	; ????
    6ee2:	ff ff       	.word	0xffff	; ????
    6ee4:	ff ff       	.word	0xffff	; ????
    6ee6:	ff ff       	.word	0xffff	; ????
    6ee8:	ff ff       	.word	0xffff	; ????
    6eea:	ff ff       	.word	0xffff	; ????
    6eec:	ff ff       	.word	0xffff	; ????
    6eee:	ff ff       	.word	0xffff	; ????
    6ef0:	ff ff       	.word	0xffff	; ????
    6ef2:	ff ff       	.word	0xffff	; ????
    6ef4:	ff ff       	.word	0xffff	; ????
    6ef6:	ff ff       	.word	0xffff	; ????
    6ef8:	ff ff       	.word	0xffff	; ????
    6efa:	ff ff       	.word	0xffff	; ????
    6efc:	ff ff       	.word	0xffff	; ????
    6efe:	ff ff       	.word	0xffff	; ????
    6f00:	ff ff       	.word	0xffff	; ????
    6f02:	ff ff       	.word	0xffff	; ????
    6f04:	ff ff       	.word	0xffff	; ????
    6f06:	ff ff       	.word	0xffff	; ????
    6f08:	ff ff       	.word	0xffff	; ????
    6f0a:	ff ff       	.word	0xffff	; ????
    6f0c:	ff ff       	.word	0xffff	; ????
    6f0e:	ff ff       	.word	0xffff	; ????
    6f10:	ff ff       	.word	0xffff	; ????
    6f12:	ff ff       	.word	0xffff	; ????
    6f14:	ff ff       	.word	0xffff	; ????
    6f16:	ff ff       	.word	0xffff	; ????
    6f18:	ff ff       	.word	0xffff	; ????
    6f1a:	ff ff       	.word	0xffff	; ????
    6f1c:	ff ff       	.word	0xffff	; ????
    6f1e:	ff ff       	.word	0xffff	; ????
    6f20:	ff ff       	.word	0xffff	; ????
    6f22:	ff ff       	.word	0xffff	; ????
    6f24:	ff ff       	.word	0xffff	; ????
    6f26:	ff ff       	.word	0xffff	; ????
    6f28:	ff ff       	.word	0xffff	; ????
    6f2a:	ff ff       	.word	0xffff	; ????
    6f2c:	ff ff       	.word	0xffff	; ????
    6f2e:	ff ff       	.word	0xffff	; ????
    6f30:	ff ff       	.word	0xffff	; ????
    6f32:	ff ff       	.word	0xffff	; ????
    6f34:	ff ff       	.word	0xffff	; ????
    6f36:	ff ff       	.word	0xffff	; ????
    6f38:	ff ff       	.word	0xffff	; ????
    6f3a:	ff ff       	.word	0xffff	; ????
    6f3c:	ff ff       	.word	0xffff	; ????
    6f3e:	ff ff       	.word	0xffff	; ????
    6f40:	ff ff       	.word	0xffff	; ????
    6f42:	ff ff       	.word	0xffff	; ????
    6f44:	ff ff       	.word	0xffff	; ????
    6f46:	ff ff       	.word	0xffff	; ????
    6f48:	ff ff       	.word	0xffff	; ????
    6f4a:	ff ff       	.word	0xffff	; ????
    6f4c:	ff ff       	.word	0xffff	; ????
    6f4e:	ff ff       	.word	0xffff	; ????
    6f50:	ff ff       	.word	0xffff	; ????
    6f52:	ff ff       	.word	0xffff	; ????
    6f54:	ff ff       	.word	0xffff	; ????
    6f56:	ff ff       	.word	0xffff	; ????
    6f58:	ff ff       	.word	0xffff	; ????
    6f5a:	ff ff       	.word	0xffff	; ????
    6f5c:	ff ff       	.word	0xffff	; ????
    6f5e:	ff ff       	.word	0xffff	; ????
    6f60:	ff ff       	.word	0xffff	; ????
    6f62:	ff ff       	.word	0xffff	; ????
    6f64:	ff ff       	.word	0xffff	; ????
    6f66:	ff ff       	.word	0xffff	; ????
    6f68:	ff ff       	.word	0xffff	; ????
    6f6a:	ff ff       	.word	0xffff	; ????
    6f6c:	ff ff       	.word	0xffff	; ????
    6f6e:	ff ff       	.word	0xffff	; ????
    6f70:	ff ff       	.word	0xffff	; ????
    6f72:	ff ff       	.word	0xffff	; ????
    6f74:	ff ff       	.word	0xffff	; ????
    6f76:	ff ff       	.word	0xffff	; ????
    6f78:	ff ff       	.word	0xffff	; ????
    6f7a:	ff ff       	.word	0xffff	; ????
    6f7c:	ff ff       	.word	0xffff	; ????
    6f7e:	ff ff       	.word	0xffff	; ????
    6f80:	ff ff       	.word	0xffff	; ????
    6f82:	ff ff       	.word	0xffff	; ????
    6f84:	ff ff       	.word	0xffff	; ????
    6f86:	ff ff       	.word	0xffff	; ????
    6f88:	ff ff       	.word	0xffff	; ????
    6f8a:	ff ff       	.word	0xffff	; ????
    6f8c:	ff ff       	.word	0xffff	; ????
    6f8e:	ff ff       	.word	0xffff	; ????
    6f90:	ff ff       	.word	0xffff	; ????
    6f92:	ff ff       	.word	0xffff	; ????
    6f94:	ff ff       	.word	0xffff	; ????
    6f96:	ff ff       	.word	0xffff	; ????
    6f98:	ff ff       	.word	0xffff	; ????
    6f9a:	ff ff       	.word	0xffff	; ????
    6f9c:	ff ff       	.word	0xffff	; ????
    6f9e:	ff ff       	.word	0xffff	; ????
    6fa0:	ff ff       	.word	0xffff	; ????
    6fa2:	ff ff       	.word	0xffff	; ????
    6fa4:	ff ff       	.word	0xffff	; ????
    6fa6:	ff ff       	.word	0xffff	; ????
    6fa8:	ff ff       	.word	0xffff	; ????
    6faa:	ff ff       	.word	0xffff	; ????
    6fac:	ff ff       	.word	0xffff	; ????
    6fae:	ff ff       	.word	0xffff	; ????
    6fb0:	ff ff       	.word	0xffff	; ????
    6fb2:	ff ff       	.word	0xffff	; ????
    6fb4:	ff ff       	.word	0xffff	; ????
    6fb6:	ff ff       	.word	0xffff	; ????
    6fb8:	ff ff       	.word	0xffff	; ????
    6fba:	ff ff       	.word	0xffff	; ????
    6fbc:	ff ff       	.word	0xffff	; ????
    6fbe:	ff ff       	.word	0xffff	; ????
    6fc0:	ff ff       	.word	0xffff	; ????
    6fc2:	ff ff       	.word	0xffff	; ????
    6fc4:	ff ff       	.word	0xffff	; ????
    6fc6:	ff ff       	.word	0xffff	; ????
    6fc8:	ff ff       	.word	0xffff	; ????
    6fca:	ff ff       	.word	0xffff	; ????
    6fcc:	ff ff       	.word	0xffff	; ????
    6fce:	ff ff       	.word	0xffff	; ????
    6fd0:	ff ff       	.word	0xffff	; ????
    6fd2:	ff ff       	.word	0xffff	; ????
    6fd4:	ff ff       	.word	0xffff	; ????
    6fd6:	ff ff       	.word	0xffff	; ????
    6fd8:	ff ff       	.word	0xffff	; ????
    6fda:	ff ff       	.word	0xffff	; ????
    6fdc:	ff ff       	.word	0xffff	; ????
    6fde:	ff ff       	.word	0xffff	; ????
    6fe0:	ff ff       	.word	0xffff	; ????
    6fe2:	ff ff       	.word	0xffff	; ????
    6fe4:	ff ff       	.word	0xffff	; ????
    6fe6:	ff ff       	.word	0xffff	; ????
    6fe8:	ff ff       	.word	0xffff	; ????
    6fea:	ff ff       	.word	0xffff	; ????
    6fec:	ff ff       	.word	0xffff	; ????
    6fee:	ff ff       	.word	0xffff	; ????
    6ff0:	ff ff       	.word	0xffff	; ????
    6ff2:	ff ff       	.word	0xffff	; ????
    6ff4:	ff ff       	.word	0xffff	; ????
    6ff6:	ff ff       	.word	0xffff	; ????
    6ff8:	ff ff       	.word	0xffff	; ????
    6ffa:	ff ff       	.word	0xffff	; ????
    6ffc:	ff ff       	.word	0xffff	; ????
    6ffe:	ff ff       	.word	0xffff	; ????
    7000:	55 c0       	rjmp	.+170    	;  0x70ac
    7002:	00 00       	nop
    7004:	6e c0       	rjmp	.+220    	;  0x70e2
    7006:	00 00       	nop
    7008:	6c c0       	rjmp	.+216    	;  0x70e2
    700a:	00 00       	nop
    700c:	6a c0       	rjmp	.+212    	;  0x70e2
    700e:	00 00       	nop
    7010:	68 c0       	rjmp	.+208    	;  0x70e2
    7012:	00 00       	nop
    7014:	66 c0       	rjmp	.+204    	;  0x70e2
    7016:	00 00       	nop
    7018:	64 c0       	rjmp	.+200    	;  0x70e2
    701a:	00 00       	nop
    701c:	62 c0       	rjmp	.+196    	;  0x70e2
    701e:	00 00       	nop
    7020:	60 c0       	rjmp	.+192    	;  0x70e2
    7022:	00 00       	nop
    7024:	5e c0       	rjmp	.+188    	;  0x70e2
    7026:	00 00       	nop
    7028:	f2 c4       	rjmp	.+2532   	;  0x7a0e
    702a:	00 00       	nop
    702c:	5a c0       	rjmp	.+180    	;  0x70e2
    702e:	00 00       	nop
    7030:	58 c0       	rjmp	.+176    	;  0x70e2
    7032:	00 00       	nop
    7034:	56 c0       	rjmp	.+172    	;  0x70e2
    7036:	00 00       	nop
    7038:	54 c0       	rjmp	.+168    	;  0x70e2
    703a:	00 00       	nop
    703c:	52 c0       	rjmp	.+164    	;  0x70e2
    703e:	00 00       	nop
    7040:	50 c0       	rjmp	.+160    	;  0x70e2
    7042:	00 00       	nop
    7044:	78 c0       	rjmp	.+240    	;  0x7136
    7046:	00 00       	nop
    7048:	4c c0       	rjmp	.+152    	;  0x70e2
    704a:	00 00       	nop
    704c:	4a c0       	rjmp	.+148    	;  0x70e2
    704e:	00 00       	nop
    7050:	48 c0       	rjmp	.+144    	;  0x70e2
    7052:	00 00       	nop
    7054:	46 c0       	rjmp	.+140    	;  0x70e2
    7056:	00 00       	nop
    7058:	44 c0       	rjmp	.+136    	;  0x70e2
    705a:	00 00       	nop
    705c:	42 c0       	rjmp	.+132    	;  0x70e2
    705e:	00 00       	nop
    7060:	40 c0       	rjmp	.+128    	;  0x70e2
    7062:	00 00       	nop
    7064:	3e c0       	rjmp	.+124    	;  0x70e2
    7066:	00 00       	nop
    7068:	3c c0       	rjmp	.+120    	;  0x70e2
    706a:	00 00       	nop
    706c:	3a c0       	rjmp	.+116    	;  0x70e2
    706e:	00 00       	nop
    7070:	38 c0       	rjmp	.+112    	;  0x70e2
    7072:	00 00       	nop
    7074:	36 c0       	rjmp	.+108    	;  0x70e2
    7076:	00 00       	nop
    7078:	34 c0       	rjmp	.+104    	;  0x70e2
    707a:	00 00       	nop
    707c:	32 c0       	rjmp	.+100    	;  0x70e2
    707e:	00 00       	nop
    7080:	30 c0       	rjmp	.+96     	;  0x70e2
    7082:	00 00       	nop
    7084:	2e c0       	rjmp	.+92     	;  0x70e2
    7086:	00 00       	nop
    7088:	2c c0       	rjmp	.+88     	;  0x70e2
    708a:	00 00       	nop
    708c:	2a c0       	rjmp	.+84     	;  0x70e2
    708e:	00 00       	nop
    7090:	28 c0       	rjmp	.+80     	;  0x70e2
    7092:	00 00       	nop
    7094:	26 c0       	rjmp	.+76     	;  0x70e2
    7096:	00 00       	nop
    7098:	24 c0       	rjmp	.+72     	;  0x70e2
    709a:	00 00       	nop
    709c:	22 c0       	rjmp	.+68     	;  0x70e2
    709e:	00 00       	nop
    70a0:	20 c0       	rjmp	.+64     	;  0x70e2
    70a2:	00 00       	nop
    70a4:	1e c0       	rjmp	.+60     	;  0x70e2
    70a6:	00 00       	nop
    70a8:	1c c0       	rjmp	.+56     	;  0x70e2
    70aa:	00 00       	nop
    70ac:	11 24       	eor	r1, r1
    70ae:	1f be       	out	0x3f, r1	; 63
    70b0:	cf ef       	ldi	r28, 0xFF	; 255
    70b2:	da e0       	ldi	r29, 0x0A	; 10
    70b4:	de bf       	out	0x3e, r29	; 62
    70b6:	cd bf       	out	0x3d, r28	; 61
    70b8:	11 e0       	ldi	r17, 0x01	; 1
    70ba:	a0 e0       	ldi	r26, 0x00	; 0
    70bc:	b1 e0       	ldi	r27, 0x01	; 1
    70be:	e2 e3       	ldi	r30, 0x32	; 50
    70c0:	ff e7       	ldi	r31, 0x7F	; 127
    70c2:	02 c0       	rjmp	.+4      	;  0x70c8
    70c4:	05 90       	lpm	r0, Z+
    70c6:	0d 92       	st	X+, r0
    70c8:	a8 3a       	cpi	r26, 0xA8	; 168
    70ca:	b1 07       	cpc	r27, r17
    70cc:	d9 f7       	brne	.-10     	;  0x70c4
    70ce:	11 e0       	ldi	r17, 0x01	; 1
    70d0:	a8 ea       	ldi	r26, 0xA8	; 168
    70d2:	b1 e0       	ldi	r27, 0x01	; 1
    70d4:	01 c0       	rjmp	.+2      	;  0x70d8
    70d6:	1d 92       	st	X+, r1
    70d8:	ae 3b       	cpi	r26, 0xBE	; 190
    70da:	b1 07       	cpc	r27, r17
    70dc:	e1 f7       	brne	.-8      	;  0x70d6
    70de:	8f d3       	rcall	.+1822   	;  0x77fe
    70e0:	26 c7       	rjmp	.+3660   	;  0x7f2e
    70e2:	8e cf       	rjmp	.-228    	;  0x7000
    70e4:	f8 94       	cli
    70e6:	10 92 6f 00 	sts	0x006F, r1	;  0x80006f
    70ea:	10 92 81 00 	sts	0x0081, r1	;  0x800081
    70ee:	10 92 85 00 	sts	0x0085, r1	;  0x800085
    70f2:	10 92 84 00 	sts	0x0084, r1	;  0x800084
    70f6:	81 e0       	ldi	r24, 0x01	; 1
    70f8:	85 bf       	out	0x35, r24	; 53
    70fa:	15 be       	out	0x35, r1	; 53
    70fc:	47 98       	cbi	0x08, 7	; 8
    70fe:	5d 98       	cbi	0x0b, 5	; 11
    7100:	28 98       	cbi	0x05, 0	; 5
    7102:	0c 94 00 00 	jmp	0	;  0x0
    7106:	08 95       	ret
    7108:	20 91 b2 01 	lds	r18, 0x01B2	;  0x8001b2
    710c:	30 91 b3 01 	lds	r19, 0x01B3	;  0x8001b3
    7110:	2f 5f       	subi	r18, 0xFF	; 255
    7112:	3f 4f       	sbci	r19, 0xFF	; 255
    7114:	30 93 b3 01 	sts	0x01B3, r19	;  0x8001b3
    7118:	20 93 b2 01 	sts	0x01B2, r18	;  0x8001b2
    711c:	93 2f       	mov	r25, r19
    711e:	37 ff       	sbrs	r19, 7
    7120:	03 c0       	rjmp	.+6      	;  0x7128
    7122:	8e ef       	ldi	r24, 0xFE	; 254
    7124:	83 1b       	sub	r24, r19
    7126:	98 2f       	mov	r25, r24
    7128:	99 0f       	add	r25, r25
    712a:	92 17       	cp	r25, r18
    712c:	10 f4       	brcc	.+4      	;  0x7132
    712e:	47 98       	cbi	0x08, 7	; 8
    7130:	08 95       	ret
    7132:	47 9a       	sbi	0x08, 7	; 8
    7134:	08 95       	ret
    7136:	1f 92       	push	r1
    7138:	0f 92       	push	r0
    713a:	0f b6       	in	r0, 0x3f	; 63
    713c:	0f 92       	push	r0
    713e:	11 24       	eor	r1, r1
    7140:	2f 93       	push	r18
    7142:	8f 93       	push	r24
    7144:	9f 93       	push	r25
    7146:	ef 93       	push	r30
    7148:	ff 93       	push	r31
    714a:	10 92 85 00 	sts	0x0085, r1	;  0x800085
    714e:	10 92 84 00 	sts	0x0084, r1	;  0x800084
    7152:	80 91 a8 01 	lds	r24, 0x01A8	;  0x8001a8
    7156:	90 91 a9 01 	lds	r25, 0x01A9	;  0x8001a9
    715a:	00 97       	sbiw	r24, 0x00	; 0
    715c:	41 f0       	breq	.+16     	;  0x716e
    715e:	01 97       	sbiw	r24, 0x01	; 1
    7160:	90 93 a9 01 	sts	0x01A9, r25	;  0x8001a9
    7164:	80 93 a8 01 	sts	0x01A8, r24	;  0x8001a8
    7168:	89 2b       	or	r24, r25
    716a:	09 f4       	brne	.+2      	;  0x716e
    716c:	5d 98       	cbi	0x0b, 5	; 11
    716e:	80 91 aa 01 	lds	r24, 0x01AA	;  0x8001aa
    7172:	90 91 ab 01 	lds	r25, 0x01AB	;  0x8001ab
    7176:	00 97       	sbiw	r24, 0x00	; 0
    7178:	41 f0       	breq	.+16     	;  0x718a
    717a:	01 97       	sbiw	r24, 0x01	; 1
    717c:	90 93 ab 01 	sts	0x01AB, r25	;  0x8001ab
    7180:	80 93 aa 01 	sts	0x01AA, r24	;  0x8001aa
    7184:	89 2b       	or	r24, r25
    7186:	09 f4       	brne	.+2      	;  0x718a
    7188:	28 98       	cbi	0x05, 0	; 5
    718a:	e0 e0       	ldi	r30, 0x00	; 0
    718c:	f0 e0       	ldi	r31, 0x00	; 0
    718e:	85 91       	lpm	r24, Z+
    7190:	94 91       	lpm	r25, Z
    7192:	8f 5f       	subi	r24, 0xFF	; 255
    7194:	9f 4f       	sbci	r25, 0xFF	; 255
    7196:	49 f0       	breq	.+18     	;  0x71aa
    7198:	80 91 ac 01 	lds	r24, 0x01AC	;  0x8001ac
    719c:	90 91 ad 01 	lds	r25, 0x01AD	;  0x8001ad
    71a0:	01 96       	adiw	r24, 0x01	; 1
    71a2:	90 93 ad 01 	sts	0x01AD, r25	;  0x8001ad
    71a6:	80 93 ac 01 	sts	0x01AC, r24	;  0x8001ac
    71aa:	ff 91       	pop	r31
    71ac:	ef 91       	pop	r30
    71ae:	9f 91       	pop	r25
    71b0:	8f 91       	pop	r24
    71b2:	2f 91       	pop	r18
    71b4:	0f 90       	pop	r0
    71b6:	0f be       	out	0x3f, r0	; 63
    71b8:	0f 90       	pop	r0
    71ba:	1f 90       	pop	r1
    71bc:	18 95       	reti
    71be:	84 e0       	ldi	r24, 0x04	; 4
    71c0:	80 93 e9 00 	sts	0x00E9, r24	;  0x8000e9
    71c4:	0d c0       	rjmp	.+26     	;  0x71e0
    71c6:	80 91 e8 00 	lds	r24, 0x00E8	;  0x8000e8
    71ca:	8b 77       	andi	r24, 0x7B	; 123
    71cc:	80 93 e8 00 	sts	0x00E8, r24	;  0x8000e8
    71d0:	03 c0       	rjmp	.+6      	;  0x71d8
    71d2:	8e b3       	in	r24, 0x1e	; 30
    71d4:	88 23       	and	r24, r24
    71d6:	51 f0       	breq	.+20     	;  0x71ec
    71d8:	80 91 e8 00 	lds	r24, 0x00E8	;  0x8000e8
    71dc:	82 ff       	sbrs	r24, 2
    71de:	f9 cf       	rjmp	.-14     	;  0x71d2
    71e0:	80 91 e8 00 	lds	r24, 0x00E8	;  0x8000e8
    71e4:	85 ff       	sbrs	r24, 5
    71e6:	ef cf       	rjmp	.-34     	;  0x71c6
    71e8:	80 91 f1 00 	lds	r24, 0x00F1	;  0x8000f1
    71ec:	08 95       	ret
    71ee:	98 2f       	mov	r25, r24
    71f0:	83 e0       	ldi	r24, 0x03	; 3
    71f2:	80 93 e9 00 	sts	0x00E9, r24	;  0x8000e9
    71f6:	80 91 e8 00 	lds	r24, 0x00E8	;  0x8000e8
    71fa:	85 fd       	sbrc	r24, 5
    71fc:	0d c0       	rjmp	.+26     	;  0x7218
    71fe:	80 91 e8 00 	lds	r24, 0x00E8	;  0x8000e8
    7202:	8e 77       	andi	r24, 0x7E	; 126
    7204:	80 93 e8 00 	sts	0x00E8, r24	;  0x8000e8
    7208:	03 c0       	rjmp	.+6      	;  0x7210
    720a:	8e b3       	in	r24, 0x1e	; 30
    720c:	88 23       	and	r24, r24
    720e:	69 f0       	breq	.+26     	;  0x722a
    7210:	80 91 e8 00 	lds	r24, 0x00E8	;  0x8000e8
    7214:	80 ff       	sbrs	r24, 0
    7216:	f9 cf       	rjmp	.-14     	;  0x720a
    7218:	90 93 f1 00 	sts	0x00F1, r25	;  0x8000f1
    721c:	5d 9a       	sbi	0x0b, 5	; 11
    721e:	84 e6       	ldi	r24, 0x64	; 100
    7220:	90 e0       	ldi	r25, 0x00	; 0
    7222:	90 93 a9 01 	sts	0x01A9, r25	;  0x8001a9
    7226:	80 93 a8 01 	sts	0x01A8, r24	;  0x8001a8
    722a:	08 95       	ret
    722c:	4f 92       	push	r4
    722e:	5f 92       	push	r5
    7230:	6f 92       	push	r6
    7232:	7f 92       	push	r7
    7234:	8f 92       	push	r8
    7236:	9f 92       	push	r9
    7238:	af 92       	push	r10
    723a:	bf 92       	push	r11
    723c:	cf 92       	push	r12
    723e:	df 92       	push	r13
    7240:	ef 92       	push	r14
    7242:	ff 92       	push	r15
    7244:	0f 93       	push	r16
    7246:	1f 93       	push	r17
    7248:	cf 93       	push	r28
    724a:	df 93       	push	r29
    724c:	84 e0       	ldi	r24, 0x04	; 4
    724e:	80 93 e9 00 	sts	0x00E9, r24	;  0x8000e9
    7252:	80 91 e8 00 	lds	r24, 0x00E8	;  0x8000e8
    7256:	82 ff       	sbrs	r24, 2
    7258:	57 c2       	rjmp	.+1198   	;  0x7708
    725a:	28 9a       	sbi	0x05, 0	; 5
    725c:	84 e6       	ldi	r24, 0x64	; 100
    725e:	90 e0       	ldi	r25, 0x00	; 0
    7260:	90 93 ab 01 	sts	0x01AB, r25	;  0x8001ab
    7264:	80 93 aa 01 	sts	0x01AA, r24	;  0x8001aa
    7268:	aa df       	rcall	.-172    	;  0x71be
    726a:	18 2f       	mov	r17, r24
    726c:	85 34       	cpi	r24, 0x45	; 69
    726e:	81 f4       	brne	.+32     	;  0x7290
    7270:	8c e4       	ldi	r24, 0x4C	; 76
    7272:	9d e1       	ldi	r25, 0x1D	; 29
    7274:	90 93 ad 01 	sts	0x01AD, r25	;  0x8001ad
    7278:	80 93 ac 01 	sts	0x01AC, r24	;  0x8001ac
    727c:	07 b6       	in	r0, 0x37	; 55
    727e:	00 fc       	sbrc	r0, 0
    7280:	fd cf       	rjmp	.-6      	;  0x727c
    7282:	f9 99       	sbic	0x1f, 1	; 31
    7284:	fe cf       	rjmp	.-4      	;  0x7282
    7286:	81 e1       	ldi	r24, 0x11	; 17
    7288:	80 93 57 00 	sts	0x0057, r24	;  0x800057
    728c:	e8 95       	spm
    728e:	03 c0       	rjmp	.+6      	;  0x7296
    7290:	84 35       	cpi	r24, 0x54	; 84
    7292:	19 f4       	brne	.+6      	;  0x729a
    7294:	94 df       	rcall	.-216    	;  0x71be
    7296:	8d e0       	ldi	r24, 0x0D	; 13
    7298:	0d c2       	rjmp	.+1050   	;  0x76b4
    729a:	8c 34       	cpi	r24, 0x4C	; 76
    729c:	e1 f3       	breq	.-8      	;  0x7296
    729e:	80 35       	cpi	r24, 0x50	; 80
    72a0:	d1 f3       	breq	.-12     	;  0x7296
    72a2:	84 37       	cpi	r24, 0x74	; 116
    72a4:	21 f4       	brne	.+8      	;  0x72ae
    72a6:	84 e4       	ldi	r24, 0x44	; 68
    72a8:	a2 df       	rcall	.-188    	;  0x71ee
    72aa:	80 e0       	ldi	r24, 0x00	; 0
    72ac:	03 c2       	rjmp	.+1030   	;  0x76b4
    72ae:	81 36       	cpi	r24, 0x61	; 97
    72b0:	11 f4       	brne	.+4      	;  0x72b6
    72b2:	89 e5       	ldi	r24, 0x59	; 89
    72b4:	ff c1       	rjmp	.+1022   	;  0x76b4
    72b6:	81 34       	cpi	r24, 0x41	; 65
    72b8:	b1 f4       	brne	.+44     	;  0x72e6
    72ba:	81 df       	rcall	.-254    	;  0x71be
    72bc:	18 2f       	mov	r17, r24
    72be:	7f df       	rcall	.-258    	;  0x71be
    72c0:	90 e0       	ldi	r25, 0x00	; 0
    72c2:	88 0f       	add	r24, r24
    72c4:	99 1f       	adc	r25, r25
    72c6:	aa 27       	eor	r26, r26
    72c8:	97 fd       	sbrc	r25, 7
    72ca:	a0 95       	com	r26
    72cc:	ba 2f       	mov	r27, r26
    72ce:	31 2f       	mov	r19, r17
    72d0:	33 0f       	add	r19, r19
    72d2:	20 e0       	ldi	r18, 0x00	; 0
    72d4:	44 27       	eor	r20, r20
    72d6:	37 fd       	sbrc	r19, 7
    72d8:	40 95       	com	r20
    72da:	54 2f       	mov	r21, r20
    72dc:	82 2b       	or	r24, r18
    72de:	93 2b       	or	r25, r19
    72e0:	a4 2b       	or	r26, r20
    72e2:	b5 2b       	or	r27, r21
    72e4:	b8 c1       	rjmp	.+880    	;  0x7656
    72e6:	80 37       	cpi	r24, 0x70	; 112
    72e8:	11 f4       	brne	.+4      	;  0x72ee
    72ea:	83 e5       	ldi	r24, 0x53	; 83
    72ec:	e3 c1       	rjmp	.+966    	;  0x76b4
    72ee:	83 35       	cpi	r24, 0x53	; 83
    72f0:	49 f4       	brne	.+18     	;  0x7304
    72f2:	c0 e0       	ldi	r28, 0x00	; 0
    72f4:	d1 e0       	ldi	r29, 0x01	; 1
    72f6:	89 91       	ld	r24, Y+
    72f8:	7a df       	rcall	.-268    	;  0x71ee
    72fa:	21 e0       	ldi	r18, 0x01	; 1
    72fc:	c7 30       	cpi	r28, 0x07	; 7
    72fe:	d2 07       	cpc	r29, r18
    7300:	d1 f7       	brne	.-12     	;  0x72f6
    7302:	d9 c1       	rjmp	.+946    	;  0x76b6
    7304:	86 35       	cpi	r24, 0x56	; 86
    7306:	21 f4       	brne	.+8      	;  0x7310
    7308:	81 e3       	ldi	r24, 0x31	; 49
    730a:	71 df       	rcall	.-286    	;  0x71ee
    730c:	80 e3       	ldi	r24, 0x30	; 48
    730e:	d2 c1       	rjmp	.+932    	;  0x76b4
    7310:	83 37       	cpi	r24, 0x73	; 115
    7312:	31 f4       	brne	.+12     	;  0x7320
    7314:	87 e8       	ldi	r24, 0x87	; 135
    7316:	6b df       	rcall	.-298    	;  0x71ee
    7318:	85 e9       	ldi	r24, 0x95	; 149
    731a:	69 df       	rcall	.-302    	;  0x71ee
    731c:	8e e1       	ldi	r24, 0x1E	; 30
    731e:	ca c1       	rjmp	.+916    	;  0x76b4
    7320:	85 36       	cpi	r24, 0x65	; 101
    7322:	b9 f4       	brne	.+46     	;  0x7352
    7324:	e0 e0       	ldi	r30, 0x00	; 0
    7326:	f0 e0       	ldi	r31, 0x00	; 0
    7328:	93 e0       	ldi	r25, 0x03	; 3
    732a:	85 e0       	ldi	r24, 0x05	; 5
    732c:	90 93 57 00 	sts	0x0057, r25	;  0x800057
    7330:	e8 95       	spm
    7332:	07 b6       	in	r0, 0x37	; 55
    7334:	00 fc       	sbrc	r0, 0
    7336:	fd cf       	rjmp	.-6      	;  0x7332
    7338:	80 93 57 00 	sts	0x0057, r24	;  0x800057
    733c:	e8 95       	spm
    733e:	07 b6       	in	r0, 0x37	; 55
    7340:	00 fc       	sbrc	r0, 0
    7342:	fd cf       	rjmp	.-6      	;  0x733e
    7344:	e0 58       	subi	r30, 0x80	; 128
    7346:	ff 4f       	sbci	r31, 0xFF	; 255
    7348:	a0 e7       	ldi	r26, 0x70	; 112
    734a:	e0 30       	cpi	r30, 0x00	; 0
    734c:	fa 07       	cpc	r31, r26
    734e:	71 f7       	brne	.-36     	;  0x732c
    7350:	a2 cf       	rjmp	.-188    	;  0x7296
    7352:	82 37       	cpi	r24, 0x72	; 114
    7354:	39 f4       	brne	.+14     	;  0x7364
    7356:	e1 e0       	ldi	r30, 0x01	; 1
    7358:	f0 e0       	ldi	r31, 0x00	; 0
    735a:	89 e0       	ldi	r24, 0x09	; 9
    735c:	80 93 57 00 	sts	0x0057, r24	;  0x800057
    7360:	84 91       	lpm	r24, Z
    7362:	a8 c1       	rjmp	.+848    	;  0x76b4
    7364:	86 34       	cpi	r24, 0x46	; 70
    7366:	39 f4       	brne	.+14     	;  0x7376
    7368:	e0 e0       	ldi	r30, 0x00	; 0
    736a:	f0 e0       	ldi	r31, 0x00	; 0
    736c:	89 e0       	ldi	r24, 0x09	; 9
    736e:	80 93 57 00 	sts	0x0057, r24	;  0x800057
    7372:	84 91       	lpm	r24, Z
    7374:	9f c1       	rjmp	.+830    	;  0x76b4
    7376:	8e 34       	cpi	r24, 0x4E	; 78
    7378:	39 f4       	brne	.+14     	;  0x7388
    737a:	e3 e0       	ldi	r30, 0x03	; 3
    737c:	f0 e0       	ldi	r31, 0x00	; 0
    737e:	89 e0       	ldi	r24, 0x09	; 9
    7380:	80 93 57 00 	sts	0x0057, r24	;  0x800057
    7384:	84 91       	lpm	r24, Z
    7386:	96 c1       	rjmp	.+812    	;  0x76b4
    7388:	81 35       	cpi	r24, 0x51	; 81
    738a:	39 f4       	brne	.+14     	;  0x739a
    738c:	e2 e0       	ldi	r30, 0x02	; 2
    738e:	f0 e0       	ldi	r31, 0x00	; 0
    7390:	89 e0       	ldi	r24, 0x09	; 9
    7392:	80 93 57 00 	sts	0x0057, r24	;  0x800057
    7396:	84 91       	lpm	r24, Z
    7398:	8d c1       	rjmp	.+794    	;  0x76b4
    739a:	82 36       	cpi	r24, 0x62	; 98
    739c:	31 f4       	brne	.+12     	;  0x73aa
    739e:	89 e5       	ldi	r24, 0x59	; 89
    73a0:	26 df       	rcall	.-436    	;  0x71ee
    73a2:	80 e0       	ldi	r24, 0x00	; 0
    73a4:	24 df       	rcall	.-440    	;  0x71ee
    73a6:	80 e8       	ldi	r24, 0x80	; 128
    73a8:	85 c1       	rjmp	.+778    	;  0x76b4
    73aa:	82 34       	cpi	r24, 0x42	; 66
    73ac:	19 f0       	breq	.+6      	;  0x73b4
    73ae:	87 36       	cpi	r24, 0x67	; 103
    73b0:	09 f0       	breq	.+2      	;  0x73b4
    73b2:	e5 c0       	rjmp	.+458    	;  0x757e
    73b4:	10 92 ad 01 	sts	0x01AD, r1	;  0x8001ad
    73b8:	10 92 ac 01 	sts	0x01AC, r1	;  0x8001ac
    73bc:	00 df       	rcall	.-512    	;  0x71be
    73be:	08 2f       	mov	r16, r24
    73c0:	fe de       	rcall	.-516    	;  0x71be
    73c2:	f8 2e       	mov	r15, r24
    73c4:	fc de       	rcall	.-520    	;  0x71be
    73c6:	68 2e       	mov	r6, r24
    73c8:	85 54       	subi	r24, 0x45	; 69
    73ca:	82 30       	cpi	r24, 0x02	; 2
    73cc:	08 f0       	brcs	.+2      	;  0x73d0
    73ce:	71 c1       	rjmp	.+738    	;  0x76b2
    73d0:	90 2f       	mov	r25, r16
    73d2:	80 e0       	ldi	r24, 0x00	; 0
    73d4:	cf 2d       	mov	r28, r15
    73d6:	d0 e0       	ldi	r29, 0x00	; 0
    73d8:	c8 2b       	or	r28, r24
    73da:	d9 2b       	or	r29, r25
    73dc:	10 92 6f 00 	sts	0x006F, r1	;  0x80006f
    73e0:	17 36       	cpi	r17, 0x67	; 103
    73e2:	09 f0       	breq	.+2      	;  0x73e6
    73e4:	4b c0       	rjmp	.+150    	;  0x747c
    73e6:	81 e1       	ldi	r24, 0x11	; 17
    73e8:	80 93 57 00 	sts	0x0057, r24	;  0x800057
    73ec:	e8 95       	spm
    73ee:	dd 24       	eor	r13, r13
    73f0:	cc 24       	eor	r12, r12
    73f2:	c3 94       	inc	r12
    73f4:	3f c0       	rjmp	.+126    	;  0x7474
    73f6:	e0 90 ae 01 	lds	r14, 0x01AE	;  0x8001ae
    73fa:	f0 90 af 01 	lds	r15, 0x01AF	;  0x8001af
    73fe:	00 91 b0 01 	lds	r16, 0x01B0	;  0x8001b0
    7402:	10 91 b1 01 	lds	r17, 0x01B1	;  0x8001b1
    7406:	b6 e4       	ldi	r27, 0x46	; 70
    7408:	6b 16       	cp	r6, r27
    740a:	d9 f4       	brne	.+54     	;  0x7442
    740c:	ed 2d       	mov	r30, r13
    740e:	f0 e0       	ldi	r31, 0x00	; 0
    7410:	ee 29       	or	r30, r14
    7412:	ff 29       	or	r31, r15
    7414:	e4 91       	lpm	r30, Z
    7416:	8e 2f       	mov	r24, r30
    7418:	ea de       	rcall	.-556    	;  0x71ee
    741a:	dd 20       	and	r13, r13
    741c:	81 f0       	breq	.+32     	;  0x743e
    741e:	82 e0       	ldi	r24, 0x02	; 2
    7420:	90 e0       	ldi	r25, 0x00	; 0
    7422:	a0 e0       	ldi	r26, 0x00	; 0
    7424:	b0 e0       	ldi	r27, 0x00	; 0
    7426:	e8 0e       	add	r14, r24
    7428:	f9 1e       	adc	r15, r25
    742a:	0a 1f       	adc	r16, r26
    742c:	1b 1f       	adc	r17, r27
    742e:	e0 92 ae 01 	sts	0x01AE, r14	;  0x8001ae
    7432:	f0 92 af 01 	sts	0x01AF, r15	;  0x8001af
    7436:	00 93 b0 01 	sts	0x01B0, r16	;  0x8001b0
    743a:	10 93 b1 01 	sts	0x01B1, r17	;  0x8001b1
    743e:	dc 24       	eor	r13, r12
    7440:	18 c0       	rjmp	.+48     	;  0x7472
    7442:	d8 01       	movw	r26, r16
    7444:	c7 01       	movw	r24, r14
    7446:	b6 95       	lsr	r27
    7448:	a7 95       	ror	r26
    744a:	97 95       	ror	r25
    744c:	87 95       	ror	r24
    744e:	59 d5       	rcall	.+2738   	;  0x7f02
    7450:	ce de       	rcall	.-612    	;  0x71ee
    7452:	82 e0       	ldi	r24, 0x02	; 2
    7454:	90 e0       	ldi	r25, 0x00	; 0
    7456:	a0 e0       	ldi	r26, 0x00	; 0
    7458:	b0 e0       	ldi	r27, 0x00	; 0
    745a:	e8 0e       	add	r14, r24
    745c:	f9 1e       	adc	r15, r25
    745e:	0a 1f       	adc	r16, r26
    7460:	1b 1f       	adc	r17, r27
    7462:	e0 92 ae 01 	sts	0x01AE, r14	;  0x8001ae
    7466:	f0 92 af 01 	sts	0x01AF, r15	;  0x8001af
    746a:	00 93 b0 01 	sts	0x01B0, r16	;  0x8001b0
    746e:	10 93 b1 01 	sts	0x01B1, r17	;  0x8001b1
    7472:	21 97       	sbiw	r28, 0x01	; 1
    7474:	20 97       	sbiw	r28, 0x00	; 0
    7476:	09 f0       	breq	.+2      	;  0x747a
    7478:	be cf       	rjmp	.-132    	;  0x73f6
    747a:	7d c0       	rjmp	.+250    	;  0x7576
    747c:	80 90 ae 01 	lds	r8, 0x01AE	;  0x8001ae
    7480:	90 90 af 01 	lds	r9, 0x01AF	;  0x8001af
    7484:	a0 90 b0 01 	lds	r10, 0x01B0	;  0x8001b0
    7488:	b0 90 b1 01 	lds	r11, 0x01B1	;  0x8001b1
    748c:	96 e4       	ldi	r25, 0x46	; 70
    748e:	69 16       	cp	r6, r25
    7490:	09 f0       	breq	.+2      	;  0x7494
    7492:	5d c0       	rjmp	.+186    	;  0x754e
    7494:	83 e0       	ldi	r24, 0x03	; 3
    7496:	f4 01       	movw	r30, r8
    7498:	80 93 57 00 	sts	0x0057, r24	;  0x800057
    749c:	e8 95       	spm
    749e:	07 b6       	in	r0, 0x37	; 55
    74a0:	00 fc       	sbrc	r0, 0
    74a2:	fd cf       	rjmp	.-6      	;  0x749e
    74a4:	54 c0       	rjmp	.+168    	;  0x754e
    74a6:	f6 e4       	ldi	r31, 0x46	; 70
    74a8:	6f 16       	cp	r6, r31
    74aa:	61 f5       	brne	.+88     	;  0x7504
    74ac:	77 20       	and	r7, r7
    74ae:	31 f1       	breq	.+76     	;  0x74fc
    74b0:	e0 90 ae 01 	lds	r14, 0x01AE	;  0x8001ae
    74b4:	f0 90 af 01 	lds	r15, 0x01AF	;  0x8001af
    74b8:	00 91 b0 01 	lds	r16, 0x01B0	;  0x8001b0
    74bc:	10 91 b1 01 	lds	r17, 0x01B1	;  0x8001b1
    74c0:	7e de       	rcall	.-772    	;  0x71be
    74c2:	d8 2e       	mov	r13, r24
    74c4:	cc 24       	eor	r12, r12
    74c6:	85 2d       	mov	r24, r5
    74c8:	90 e0       	ldi	r25, 0x00	; 0
    74ca:	8c 29       	or	r24, r12
    74cc:	9d 29       	or	r25, r13
    74ce:	f7 01       	movw	r30, r14
    74d0:	0c 01       	movw	r0, r24
    74d2:	40 92 57 00 	sts	0x0057, r4	;  0x800057
    74d6:	e8 95       	spm
    74d8:	11 24       	eor	r1, r1
    74da:	82 e0       	ldi	r24, 0x02	; 2
    74dc:	90 e0       	ldi	r25, 0x00	; 0
    74de:	a0 e0       	ldi	r26, 0x00	; 0
    74e0:	b0 e0       	ldi	r27, 0x00	; 0
    74e2:	e8 0e       	add	r14, r24
    74e4:	f9 1e       	adc	r15, r25
    74e6:	0a 1f       	adc	r16, r26
    74e8:	1b 1f       	adc	r17, r27
    74ea:	e0 92 ae 01 	sts	0x01AE, r14	;  0x8001ae
    74ee:	f0 92 af 01 	sts	0x01AF, r15	;  0x8001af
    74f2:	00 93 b0 01 	sts	0x01B0, r16	;  0x8001b0
    74f6:	10 93 b1 01 	sts	0x01B1, r17	;  0x8001b1
    74fa:	02 c0       	rjmp	.+4      	;  0x7500
    74fc:	60 de       	rcall	.-832    	;  0x71be
    74fe:	58 2e       	mov	r5, r24
    7500:	74 24       	eor	r7, r4
    7502:	23 c0       	rjmp	.+70     	;  0x754a
    7504:	e0 90 ae 01 	lds	r14, 0x01AE	;  0x8001ae
    7508:	f0 90 af 01 	lds	r15, 0x01AF	;  0x8001af
    750c:	00 91 b0 01 	lds	r16, 0x01B0	;  0x8001b0
    7510:	10 91 b1 01 	lds	r17, 0x01B1	;  0x8001b1
    7514:	16 95       	lsr	r17
    7516:	07 95       	ror	r16
    7518:	f7 94       	ror	r15
    751a:	e7 94       	ror	r14
    751c:	50 de       	rcall	.-864    	;  0x71be
    751e:	68 2f       	mov	r22, r24
    7520:	c7 01       	movw	r24, r14
    7522:	f7 d4       	rcall	.+2542   	;  0x7f12
    7524:	80 91 ae 01 	lds	r24, 0x01AE	;  0x8001ae
    7528:	90 91 af 01 	lds	r25, 0x01AF	;  0x8001af
    752c:	a0 91 b0 01 	lds	r26, 0x01B0	;  0x8001b0
    7530:	b0 91 b1 01 	lds	r27, 0x01B1	;  0x8001b1
    7534:	02 96       	adiw	r24, 0x02	; 2
    7536:	a1 1d       	adc	r26, r1
    7538:	b1 1d       	adc	r27, r1
    753a:	80 93 ae 01 	sts	0x01AE, r24	;  0x8001ae
    753e:	90 93 af 01 	sts	0x01AF, r25	;  0x8001af
    7542:	a0 93 b0 01 	sts	0x01B0, r26	;  0x8001b0
    7546:	b0 93 b1 01 	sts	0x01B1, r27	;  0x8001b1
    754a:	21 97       	sbiw	r28, 0x01	; 1
    754c:	04 c0       	rjmp	.+8      	;  0x7556
    754e:	55 24       	eor	r5, r5
    7550:	77 24       	eor	r7, r7
    7552:	44 24       	eor	r4, r4
    7554:	43 94       	inc	r4
    7556:	20 97       	sbiw	r28, 0x00	; 0
    7558:	09 f0       	breq	.+2      	;  0x755c
    755a:	a5 cf       	rjmp	.-182    	;  0x74a6
    755c:	96 e4       	ldi	r25, 0x46	; 70
    755e:	69 16       	cp	r6, r25
    7560:	41 f4       	brne	.+16     	;  0x7572
    7562:	85 e0       	ldi	r24, 0x05	; 5
    7564:	f4 01       	movw	r30, r8
    7566:	80 93 57 00 	sts	0x0057, r24	;  0x800057
    756a:	e8 95       	spm
    756c:	07 b6       	in	r0, 0x37	; 55
    756e:	00 fc       	sbrc	r0, 0
    7570:	fd cf       	rjmp	.-6      	;  0x756c
    7572:	8d e0       	ldi	r24, 0x0D	; 13
    7574:	3c de       	rcall	.-904    	;  0x71ee
    7576:	82 e0       	ldi	r24, 0x02	; 2
    7578:	80 93 6f 00 	sts	0x006F, r24	;  0x80006f
    757c:	9c c0       	rjmp	.+312    	;  0x76b6
    757e:	83 34       	cpi	r24, 0x43	; 67
    7580:	71 f4       	brne	.+28     	;  0x759e
    7582:	00 91 ae 01 	lds	r16, 0x01AE	;  0x8001ae
    7586:	10 91 af 01 	lds	r17, 0x01AF	;  0x8001af
    758a:	19 de       	rcall	.-974    	;  0x71be
    758c:	90 e0       	ldi	r25, 0x00	; 0
    758e:	21 e0       	ldi	r18, 0x01	; 1
    7590:	f8 01       	movw	r30, r16
    7592:	0c 01       	movw	r0, r24
    7594:	20 93 57 00 	sts	0x0057, r18	;  0x800057
    7598:	e8 95       	spm
    759a:	11 24       	eor	r1, r1
    759c:	7c ce       	rjmp	.-776    	;  0x7296
    759e:	83 36       	cpi	r24, 0x63	; 99
    75a0:	19 f5       	brne	.+70     	;  0x75e8
    75a2:	e0 90 ae 01 	lds	r14, 0x01AE	;  0x8001ae
    75a6:	f0 90 af 01 	lds	r15, 0x01AF	;  0x8001af
    75aa:	00 91 b0 01 	lds	r16, 0x01B0	;  0x8001b0
    75ae:	10 91 b1 01 	lds	r17, 0x01B1	;  0x8001b1
    75b2:	05 de       	rcall	.-1014   	;  0x71be
    75b4:	f7 01       	movw	r30, r14
    75b6:	e1 60       	ori	r30, 0x01	; 1
    75b8:	90 e0       	ldi	r25, 0x00	; 0
    75ba:	21 e0       	ldi	r18, 0x01	; 1
    75bc:	0c 01       	movw	r0, r24
    75be:	20 93 57 00 	sts	0x0057, r18	;  0x800057
    75c2:	e8 95       	spm
    75c4:	11 24       	eor	r1, r1
    75c6:	82 e0       	ldi	r24, 0x02	; 2
    75c8:	90 e0       	ldi	r25, 0x00	; 0
    75ca:	a0 e0       	ldi	r26, 0x00	; 0
    75cc:	b0 e0       	ldi	r27, 0x00	; 0
    75ce:	e8 0e       	add	r14, r24
    75d0:	f9 1e       	adc	r15, r25
    75d2:	0a 1f       	adc	r16, r26
    75d4:	1b 1f       	adc	r17, r27
    75d6:	e0 92 ae 01 	sts	0x01AE, r14	;  0x8001ae
    75da:	f0 92 af 01 	sts	0x01AF, r15	;  0x8001af
    75de:	00 93 b0 01 	sts	0x01B0, r16	;  0x8001b0
    75e2:	10 93 b1 01 	sts	0x01B1, r17	;  0x8001b1
    75e6:	57 ce       	rjmp	.-850    	;  0x7296
    75e8:	8d 36       	cpi	r24, 0x6D	; 109
    75ea:	61 f4       	brne	.+24     	;  0x7604
    75ec:	e0 91 ae 01 	lds	r30, 0x01AE	;  0x8001ae
    75f0:	f0 91 af 01 	lds	r31, 0x01AF	;  0x8001af
    75f4:	85 e0       	ldi	r24, 0x05	; 5
    75f6:	80 93 57 00 	sts	0x0057, r24	;  0x800057
    75fa:	e8 95       	spm
    75fc:	07 b6       	in	r0, 0x37	; 55
    75fe:	00 fc       	sbrc	r0, 0
    7600:	fd cf       	rjmp	.-6      	;  0x75fc
    7602:	49 ce       	rjmp	.-878    	;  0x7296
    7604:	82 35       	cpi	r24, 0x52	; 82
    7606:	51 f4       	brne	.+20     	;  0x761c
    7608:	e0 91 ae 01 	lds	r30, 0x01AE	;  0x8001ae
    760c:	f0 91 af 01 	lds	r31, 0x01AF	;  0x8001af
    7610:	05 91       	lpm	r16, Z+
    7612:	14 91       	lpm	r17, Z
    7614:	81 2f       	mov	r24, r17
    7616:	eb dd       	rcall	.-1066   	;  0x71ee
    7618:	80 2f       	mov	r24, r16
    761a:	4c c0       	rjmp	.+152    	;  0x76b4
    761c:	84 34       	cpi	r24, 0x44	; 68
    761e:	21 f5       	brne	.+72     	;  0x7668
    7620:	e0 90 ae 01 	lds	r14, 0x01AE	;  0x8001ae
    7624:	f0 90 af 01 	lds	r15, 0x01AF	;  0x8001af
    7628:	00 91 b0 01 	lds	r16, 0x01B0	;  0x8001b0
    762c:	10 91 b1 01 	lds	r17, 0x01B1	;  0x8001b1
    7630:	16 95       	lsr	r17
    7632:	07 95       	ror	r16
    7634:	f7 94       	ror	r15
    7636:	e7 94       	ror	r14
    7638:	c2 dd       	rcall	.-1148   	;  0x71be
    763a:	68 2f       	mov	r22, r24
    763c:	c7 01       	movw	r24, r14
    763e:	69 d4       	rcall	.+2258   	;  0x7f12
    7640:	80 91 ae 01 	lds	r24, 0x01AE	;  0x8001ae
    7644:	90 91 af 01 	lds	r25, 0x01AF	;  0x8001af
    7648:	a0 91 b0 01 	lds	r26, 0x01B0	;  0x8001b0
    764c:	b0 91 b1 01 	lds	r27, 0x01B1	;  0x8001b1
    7650:	02 96       	adiw	r24, 0x02	; 2
    7652:	a1 1d       	adc	r26, r1
    7654:	b1 1d       	adc	r27, r1
    7656:	80 93 ae 01 	sts	0x01AE, r24	;  0x8001ae
    765a:	90 93 af 01 	sts	0x01AF, r25	;  0x8001af
    765e:	a0 93 b0 01 	sts	0x01B0, r26	;  0x8001b0
    7662:	b0 93 b1 01 	sts	0x01B1, r27	;  0x8001b1
    7666:	17 ce       	rjmp	.-978    	;  0x7296
    7668:	84 36       	cpi	r24, 0x64	; 100
    766a:	09 f5       	brne	.+66     	;  0x76ae
    766c:	e0 90 ae 01 	lds	r14, 0x01AE	;  0x8001ae
    7670:	f0 90 af 01 	lds	r15, 0x01AF	;  0x8001af
    7674:	00 91 b0 01 	lds	r16, 0x01B0	;  0x8001b0
    7678:	10 91 b1 01 	lds	r17, 0x01B1	;  0x8001b1
    767c:	d8 01       	movw	r26, r16
    767e:	c7 01       	movw	r24, r14
    7680:	b6 95       	lsr	r27
    7682:	a7 95       	ror	r26
    7684:	97 95       	ror	r25
    7686:	87 95       	ror	r24
    7688:	3c d4       	rcall	.+2168   	;  0x7f02
    768a:	b1 dd       	rcall	.-1182   	;  0x71ee
    768c:	82 e0       	ldi	r24, 0x02	; 2
    768e:	90 e0       	ldi	r25, 0x00	; 0
    7690:	a0 e0       	ldi	r26, 0x00	; 0
    7692:	b0 e0       	ldi	r27, 0x00	; 0
    7694:	e8 0e       	add	r14, r24
    7696:	f9 1e       	adc	r15, r25
    7698:	0a 1f       	adc	r16, r26
    769a:	1b 1f       	adc	r17, r27
    769c:	e0 92 ae 01 	sts	0x01AE, r14	;  0x8001ae
    76a0:	f0 92 af 01 	sts	0x01AF, r15	;  0x8001af
    76a4:	00 93 b0 01 	sts	0x01B0, r16	;  0x8001b0
    76a8:	10 93 b1 01 	sts	0x01B1, r17	;  0x8001b1
    76ac:	04 c0       	rjmp	.+8      	;  0x76b6
    76ae:	8b 31       	cpi	r24, 0x1B	; 27
    76b0:	11 f0       	breq	.+4      	;  0x76b6
    76b2:	8f e3       	ldi	r24, 0x3F	; 63
    76b4:	9c dd       	rcall	.-1224   	;  0x71ee
    76b6:	83 e0       	ldi	r24, 0x03	; 3
    76b8:	80 93 e9 00 	sts	0x00E9, r24	;  0x8000e9
    76bc:	90 91 e8 00 	lds	r25, 0x00E8	;  0x8000e8
    76c0:	80 91 e8 00 	lds	r24, 0x00E8	;  0x8000e8
    76c4:	8e 77       	andi	r24, 0x7E	; 126
    76c6:	80 93 e8 00 	sts	0x00E8, r24	;  0x8000e8
    76ca:	95 ff       	sbrs	r25, 5
    76cc:	04 c0       	rjmp	.+8      	;  0x76d6
    76ce:	10 c0       	rjmp	.+32     	;  0x76f0
    76d0:	8e b3       	in	r24, 0x1e	; 30
    76d2:	88 23       	and	r24, r24
    76d4:	c9 f0       	breq	.+50     	;  0x7708
    76d6:	80 91 e8 00 	lds	r24, 0x00E8	;  0x8000e8
    76da:	80 ff       	sbrs	r24, 0
    76dc:	f9 cf       	rjmp	.-14     	;  0x76d0
    76de:	80 91 e8 00 	lds	r24, 0x00E8	;  0x8000e8
    76e2:	8e 77       	andi	r24, 0x7E	; 126
    76e4:	80 93 e8 00 	sts	0x00E8, r24	;  0x8000e8
    76e8:	03 c0       	rjmp	.+6      	;  0x76f0
    76ea:	8e b3       	in	r24, 0x1e	; 30
    76ec:	88 23       	and	r24, r24
    76ee:	61 f0       	breq	.+24     	;  0x7708
    76f0:	80 91 e8 00 	lds	r24, 0x00E8	;  0x8000e8
    76f4:	80 ff       	sbrs	r24, 0
    76f6:	f9 cf       	rjmp	.-14     	;  0x76ea
    76f8:	84 e0       	ldi	r24, 0x04	; 4
    76fa:	80 93 e9 00 	sts	0x00E9, r24	;  0x8000e9
    76fe:	80 91 e8 00 	lds	r24, 0x00E8	;  0x8000e8
    7702:	8b 77       	andi	r24, 0x7B	; 123
    7704:	80 93 e8 00 	sts	0x00E8, r24	;  0x8000e8
    7708:	df 91       	pop	r29
    770a:	cf 91       	pop	r28
    770c:	1f 91       	pop	r17
    770e:	0f 91       	pop	r16
    7710:	ff 90       	pop	r15
    7712:	ef 90       	pop	r14
    7714:	df 90       	pop	r13
    7716:	cf 90       	pop	r12
    7718:	bf 90       	pop	r11
    771a:	af 90       	pop	r10
    771c:	9f 90       	pop	r9
    771e:	8f 90       	pop	r8
    7720:	7f 90       	pop	r7
    7722:	6f 90       	pop	r6
    7724:	5f 90       	pop	r5
    7726:	4f 90       	pop	r4
    7728:	08 95       	ret
    772a:	90 91 b6 01 	lds	r25, 0x01B6	;  0x8001b6
    772e:	89 2f       	mov	r24, r25
    7730:	8f 77       	andi	r24, 0x7F	; 127
    7732:	81 32       	cpi	r24, 0x21	; 33
    7734:	49 f5       	brne	.+82     	;  0x7788
    7736:	80 91 b7 01 	lds	r24, 0x01B7	;  0x8001b7
    773a:	80 32       	cpi	r24, 0x20	; 32
    773c:	a1 f0       	breq	.+40     	;  0x7766
    773e:	81 32       	cpi	r24, 0x21	; 33
    7740:	19 f5       	brne	.+70     	;  0x7788
    7742:	91 3a       	cpi	r25, 0xA1	; 161
    7744:	09 f5       	brne	.+66     	;  0x7788
    7746:	80 91 e8 00 	lds	r24, 0x00E8	;  0x8000e8
    774a:	87 7f       	andi	r24, 0xF7	; 247
    774c:	80 93 e8 00 	sts	0x00E8, r24	;  0x8000e8
    7750:	8d e0       	ldi	r24, 0x0D	; 13
    7752:	91 e0       	ldi	r25, 0x01	; 1
    7754:	67 e0       	ldi	r22, 0x07	; 7
    7756:	70 e0       	ldi	r23, 0x00	; 0
    7758:	0b d2       	rcall	.+1046   	;  0x7b70
    775a:	80 91 e8 00 	lds	r24, 0x00E8	;  0x8000e8
    775e:	8b 77       	andi	r24, 0x7B	; 123
    7760:	80 93 e8 00 	sts	0x00E8, r24	;  0x8000e8
    7764:	08 95       	ret
    7766:	91 32       	cpi	r25, 0x21	; 33
    7768:	79 f4       	brne	.+30     	;  0x7788
    776a:	80 91 e8 00 	lds	r24, 0x00E8	;  0x8000e8
    776e:	87 7f       	andi	r24, 0xF7	; 247
    7770:	80 93 e8 00 	sts	0x00E8, r24	;  0x8000e8
    7774:	8d e0       	ldi	r24, 0x0D	; 13
    7776:	91 e0       	ldi	r25, 0x01	; 1
    7778:	67 e0       	ldi	r22, 0x07	; 7
    777a:	70 e0       	ldi	r23, 0x00	; 0
    777c:	5d d2       	rcall	.+1210   	;  0x7c38
    777e:	80 91 e8 00 	lds	r24, 0x00E8	;  0x8000e8
    7782:	8e 77       	andi	r24, 0x7E	; 126
    7784:	80 93 e8 00 	sts	0x00E8, r24	;  0x8000e8
    7788:	08 95       	ret
    778a:	82 e0       	ldi	r24, 0x02	; 2
    778c:	61 ec       	ldi	r22, 0xC1	; 193
    778e:	42 e0       	ldi	r20, 0x02	; 2
    7790:	b5 d0       	rcall	.+362    	;  0x78fc
    7792:	83 e0       	ldi	r24, 0x03	; 3
    7794:	61 e8       	ldi	r22, 0x81	; 129
    7796:	42 e1       	ldi	r20, 0x12	; 18
    7798:	b1 d0       	rcall	.+354    	;  0x78fc
    779a:	84 e0       	ldi	r24, 0x04	; 4
    779c:	60 e8       	ldi	r22, 0x80	; 128
    779e:	42 e1       	ldi	r20, 0x12	; 18
    77a0:	ad c0       	rjmp	.+346    	;  0x78fc
    77a2:	84 b7       	in	r24, 0x34	; 52
    77a4:	87 7f       	andi	r24, 0xF7	; 247
    77a6:	84 bf       	out	0x34, r24	; 52
    77a8:	88 e1       	ldi	r24, 0x18	; 24
    77aa:	0f b6       	in	r0, 0x3f	; 63
    77ac:	f8 94       	cli
    77ae:	80 93 60 00 	sts	0x0060, r24	;  0x800060
    77b2:	10 92 60 00 	sts	0x0060, r1	;  0x800060
    77b6:	0f be       	out	0x3f, r0	; 63
    77b8:	20 e8       	ldi	r18, 0x80	; 128
    77ba:	80 e0       	ldi	r24, 0x00	; 0
    77bc:	90 e0       	ldi	r25, 0x00	; 0
    77be:	0f b6       	in	r0, 0x3f	; 63
    77c0:	f8 94       	cli
    77c2:	20 93 61 00 	sts	0x0061, r18	;  0x800061
    77c6:	80 93 61 00 	sts	0x0061, r24	;  0x800061
    77ca:	0f be       	out	0x3f, r0	; 63
    77cc:	81 e0       	ldi	r24, 0x01	; 1
    77ce:	85 bf       	out	0x35, r24	; 53
    77d0:	92 e0       	ldi	r25, 0x02	; 2
    77d2:	95 bf       	out	0x35, r25	; 53
    77d4:	3f 9a       	sbi	0x07, 7	; 7
    77d6:	20 9a       	sbi	0x04, 0	; 4
    77d8:	55 9a       	sbi	0x0a, 5	; 10
    77da:	e1 e6       	ldi	r30, 0x61	; 97
    77dc:	f0 e0       	ldi	r31, 0x00	; 0
    77de:	20 83       	st	Z, r18
    77e0:	10 82       	st	Z, r1
    77e2:	47 98       	cbi	0x08, 7	; 8
    77e4:	5d 98       	cbi	0x0b, 5	; 11
    77e6:	28 98       	cbi	0x05, 0	; 5
    77e8:	10 92 89 00 	sts	0x0089, r1	;  0x800089
    77ec:	8a ef       	ldi	r24, 0xFA	; 250
    77ee:	80 93 88 00 	sts	0x0088, r24	;  0x800088
    77f2:	90 93 6f 00 	sts	0x006F, r25	;  0x80006f
    77f6:	83 e0       	ldi	r24, 0x03	; 3
    77f8:	80 93 81 00 	sts	0x0081, r24	;  0x800081
    77fc:	f0 c0       	rjmp	.+480    	;  0x79de
    77fe:	40 91 00 08 	lds	r20, 0x0800	;  0x800800
    7802:	50 91 01 08 	lds	r21, 0x0801	;  0x800801
    7806:	10 92 01 08 	sts	0x0801, r1	;  0x800801
    780a:	10 92 00 08 	sts	0x0800, r1	;  0x800800
    780e:	94 b7       	in	r25, 0x34	; 52
    7810:	14 be       	out	0x34, r1	; 52
    7812:	88 e1       	ldi	r24, 0x18	; 24
    7814:	0f b6       	in	r0, 0x3f	; 63
    7816:	f8 94       	cli
    7818:	80 93 60 00 	sts	0x0060, r24	;  0x800060
    781c:	10 92 60 00 	sts	0x0060, r1	;  0x800060
    7820:	0f be       	out	0x3f, r0	; 63
    7822:	29 2f       	mov	r18, r25
    7824:	30 e0       	ldi	r19, 0x00	; 0
    7826:	f9 01       	movw	r30, r18
    7828:	e2 70       	andi	r30, 0x02	; 2
    782a:	f0 70       	andi	r31, 0x00	; 0
    782c:	91 fd       	sbrc	r25, 1
    782e:	18 c0       	rjmp	.+48     	;  0x7860
    7830:	90 ff       	sbrs	r25, 0
    7832:	05 c0       	rjmp	.+10     	;  0x783e
    7834:	85 91       	lpm	r24, Z+
    7836:	94 91       	lpm	r25, Z
    7838:	8f 5f       	subi	r24, 0xFF	; 255
    783a:	9f 4f       	sbci	r25, 0xFF	; 255
    783c:	81 f4       	brne	.+32     	;  0x785e
    783e:	23 ff       	sbrs	r18, 3
    7840:	0f c0       	rjmp	.+30     	;  0x7860
    7842:	80 91 09 01 	lds	r24, 0x0109	;  0x800109
    7846:	90 91 0a 01 	lds	r25, 0x010A	;  0x80010a
    784a:	48 17       	cp	r20, r24
    784c:	59 07       	cpc	r21, r25
    784e:	41 f0       	breq	.+16     	;  0x7860
    7850:	e0 e0       	ldi	r30, 0x00	; 0
    7852:	f0 e0       	ldi	r31, 0x00	; 0
    7854:	85 91       	lpm	r24, Z+
    7856:	94 91       	lpm	r25, Z
    7858:	8f 5f       	subi	r24, 0xFF	; 255
    785a:	9f 4f       	sbci	r25, 0xFF	; 255
    785c:	09 f0       	breq	.+2      	;  0x7860
    785e:	42 dc       	rcall	.-1916   	;  0x70e4
    7860:	a0 df       	rcall	.-192    	;  0x77a2
    7862:	78 94       	sei
    7864:	10 92 ad 01 	sts	0x01AD, r1	;  0x8001ad
    7868:	10 92 ac 01 	sts	0x01AC, r1	;  0x8001ac
    786c:	0c c0       	rjmp	.+24     	;  0x7886
    786e:	de dc       	rcall	.-1604   	;  0x722c
    7870:	36 d3       	rcall	.+1644   	;  0x7ede
    7872:	80 91 ac 01 	lds	r24, 0x01AC	;  0x8001ac
    7876:	90 91 ad 01 	lds	r25, 0x01AD	;  0x8001ad
    787a:	81 54       	subi	r24, 0x41	; 65
    787c:	9f 41       	sbci	r25, 0x1F	; 31
    787e:	10 f0       	brcs	.+4      	;  0x7884
    7880:	10 92 14 01 	sts	0x0114, r1	;  0x800114
    7884:	41 dc       	rcall	.-1918   	;  0x7108
    7886:	80 91 14 01 	lds	r24, 0x0114	;  0x800114
    788a:	88 23       	and	r24, r24
    788c:	81 f7       	brne	.-32     	;  0x786e
    788e:	80 91 e0 00 	lds	r24, 0x00E0	;  0x8000e0
    7892:	81 60       	ori	r24, 0x01	; 1
    7894:	80 93 e0 00 	sts	0x00E0, r24	;  0x8000e0
    7898:	25 dc       	rcall	.-1974   	;  0x70e4
    789a:	80 e0       	ldi	r24, 0x00	; 0
    789c:	90 e0       	ldi	r25, 0x00	; 0
    789e:	08 95       	ret
    78a0:	fa 01       	movw	r30, r20
    78a2:	92 30       	cpi	r25, 0x02	; 2
    78a4:	49 f0       	breq	.+18     	;  0x78b8
    78a6:	93 30       	cpi	r25, 0x03	; 3
    78a8:	61 f0       	breq	.+24     	;  0x78c2
    78aa:	91 30       	cpi	r25, 0x01	; 1
    78ac:	f9 f4       	brne	.+62     	;  0x78ec
    78ae:	85 e1       	ldi	r24, 0x15	; 21
    78b0:	91 e0       	ldi	r25, 0x01	; 1
    78b2:	22 e1       	ldi	r18, 0x12	; 18
    78b4:	30 e0       	ldi	r19, 0x00	; 0
    78b6:	1e c0       	rjmp	.+60     	;  0x78f4
    78b8:	87 e2       	ldi	r24, 0x27	; 39
    78ba:	91 e0       	ldi	r25, 0x01	; 1
    78bc:	2e e3       	ldi	r18, 0x3E	; 62
    78be:	30 e0       	ldi	r19, 0x00	; 0
    78c0:	19 c0       	rjmp	.+50     	;  0x78f4
    78c2:	88 23       	and	r24, r24
    78c4:	29 f4       	brne	.+10     	;  0x78d0
    78c6:	85 e6       	ldi	r24, 0x65	; 101
    78c8:	91 e0       	ldi	r25, 0x01	; 1
    78ca:	24 e0       	ldi	r18, 0x04	; 4
    78cc:	30 e0       	ldi	r19, 0x00	; 0
    78ce:	12 c0       	rjmp	.+36     	;  0x78f4
    78d0:	81 30       	cpi	r24, 0x01	; 1
    78d2:	29 f4       	brne	.+10     	;  0x78de
    78d4:	89 e6       	ldi	r24, 0x69	; 105
    78d6:	91 e0       	ldi	r25, 0x01	; 1
    78d8:	22 e2       	ldi	r18, 0x22	; 34
    78da:	30 e0       	ldi	r19, 0x00	; 0
    78dc:	0b c0       	rjmp	.+22     	;  0x78f4
    78de:	82 30       	cpi	r24, 0x02	; 2
    78e0:	29 f4       	brne	.+10     	;  0x78ec
    78e2:	8d e8       	ldi	r24, 0x8D	; 141
    78e4:	91 e0       	ldi	r25, 0x01	; 1
    78e6:	28 e1       	ldi	r18, 0x18	; 24
    78e8:	30 e0       	ldi	r19, 0x00	; 0
    78ea:	04 c0       	rjmp	.+8      	;  0x78f4
    78ec:	80 e0       	ldi	r24, 0x00	; 0
    78ee:	90 e0       	ldi	r25, 0x00	; 0
    78f0:	20 e0       	ldi	r18, 0x00	; 0
    78f2:	30 e0       	ldi	r19, 0x00	; 0
    78f4:	91 83       	std	Z+1, r25	; 0x01
    78f6:	80 83       	st	Z, r24
    78f8:	c9 01       	movw	r24, r18
    78fa:	08 95       	ret
    78fc:	80 93 e9 00 	sts	0x00E9, r24	;  0x8000e9
    7900:	80 91 eb 00 	lds	r24, 0x00EB	;  0x8000eb
    7904:	81 60       	ori	r24, 0x01	; 1
    7906:	80 93 eb 00 	sts	0x00EB, r24	;  0x8000eb
    790a:	10 92 ed 00 	sts	0x00ED, r1	;  0x8000ed
    790e:	60 93 ec 00 	sts	0x00EC, r22	;  0x8000ec
    7912:	40 93 ed 00 	sts	0x00ED, r20	;  0x8000ed
    7916:	80 91 ee 00 	lds	r24, 0x00EE	;  0x8000ee
    791a:	88 1f       	adc	r24, r24
    791c:	88 27       	eor	r24, r24
    791e:	88 1f       	adc	r24, r24
    7920:	08 95       	ret
    7922:	80 91 b6 01 	lds	r24, 0x01B6	;  0x8001b6
    7926:	88 23       	and	r24, r24
    7928:	8c f4       	brge	.+34     	;  0x794c
    792a:	03 c0       	rjmp	.+6      	;  0x7932
    792c:	8e b3       	in	r24, 0x1e	; 30
    792e:	88 23       	and	r24, r24
    7930:	b1 f0       	breq	.+44     	;  0x795e
    7932:	80 91 e8 00 	lds	r24, 0x00E8	;  0x8000e8
    7936:	82 ff       	sbrs	r24, 2
    7938:	f9 cf       	rjmp	.-14     	;  0x792c
    793a:	80 91 e8 00 	lds	r24, 0x00E8	;  0x8000e8
    793e:	8b 77       	andi	r24, 0x7B	; 123
    7940:	80 93 e8 00 	sts	0x00E8, r24	;  0x8000e8
    7944:	08 95       	ret
    7946:	8e b3       	in	r24, 0x1e	; 30
    7948:	88 23       	and	r24, r24
    794a:	49 f0       	breq	.+18     	;  0x795e
    794c:	80 91 e8 00 	lds	r24, 0x00E8	;  0x8000e8
    7950:	80 ff       	sbrs	r24, 0
    7952:	f9 cf       	rjmp	.-14     	;  0x7946
    7954:	80 91 e8 00 	lds	r24, 0x00E8	;  0x8000e8
    7958:	8e 77       	andi	r24, 0x7E	; 126
    795a:	80 93 e8 00 	sts	0x00E8, r24	;  0x8000e8
    795e:	08 95       	ret
    7960:	ef 92       	push	r14
    7962:	ff 92       	push	r15
    7964:	0f 93       	push	r16
    7966:	1f 93       	push	r17
    7968:	45 d0       	rcall	.+138    	;  0x79f4
    796a:	4c d0       	rcall	.+152    	;  0x7a04
    796c:	08 ed       	ldi	r16, 0xD8	; 216
    796e:	10 e0       	ldi	r17, 0x00	; 0
    7970:	f8 01       	movw	r30, r16
    7972:	80 81       	ld	r24, Z
    7974:	8f 77       	andi	r24, 0x7F	; 127
    7976:	80 83       	st	Z, r24
    7978:	80 81       	ld	r24, Z
    797a:	80 68       	ori	r24, 0x80	; 128
    797c:	80 83       	st	Z, r24
    797e:	80 81       	ld	r24, Z
    7980:	8f 7d       	andi	r24, 0xDF	; 223
    7982:	80 83       	st	Z, r24
    7984:	19 bc       	out	0x29, r1	; 41
    7986:	1e ba       	out	0x1e, r1	; 30
    7988:	10 92 b4 01 	sts	0x01B4, r1	;  0x8001b4
    798c:	80 ee       	ldi	r24, 0xE0	; 224
    798e:	e8 2e       	mov	r14, r24
    7990:	f1 2c       	mov	r15, r1
    7992:	f7 01       	movw	r30, r14
    7994:	80 81       	ld	r24, Z
    7996:	8b 7f       	andi	r24, 0xFB	; 251
    7998:	80 83       	st	Z, r24
    799a:	f8 01       	movw	r30, r16
    799c:	80 81       	ld	r24, Z
    799e:	81 60       	ori	r24, 0x01	; 1
    79a0:	80 83       	st	Z, r24
    79a2:	80 e0       	ldi	r24, 0x00	; 0
    79a4:	60 e0       	ldi	r22, 0x00	; 0
    79a6:	42 e0       	ldi	r20, 0x02	; 2
    79a8:	a9 df       	rcall	.-174    	;  0x78fc
    79aa:	e1 ee       	ldi	r30, 0xE1	; 225
    79ac:	f0 e0       	ldi	r31, 0x00	; 0
    79ae:	80 81       	ld	r24, Z
    79b0:	8e 7f       	andi	r24, 0xFE	; 254
    79b2:	80 83       	st	Z, r24
    79b4:	e2 ee       	ldi	r30, 0xE2	; 226
    79b6:	f0 e0       	ldi	r31, 0x00	; 0
    79b8:	80 81       	ld	r24, Z
    79ba:	81 60       	ori	r24, 0x01	; 1
    79bc:	80 83       	st	Z, r24
    79be:	80 81       	ld	r24, Z
    79c0:	88 60       	ori	r24, 0x08	; 8
    79c2:	80 83       	st	Z, r24
    79c4:	f7 01       	movw	r30, r14
    79c6:	80 81       	ld	r24, Z
    79c8:	8e 7f       	andi	r24, 0xFE	; 254
    79ca:	80 83       	st	Z, r24
    79cc:	f8 01       	movw	r30, r16
    79ce:	80 81       	ld	r24, Z
    79d0:	80 61       	ori	r24, 0x10	; 16
    79d2:	80 83       	st	Z, r24
    79d4:	1f 91       	pop	r17
    79d6:	0f 91       	pop	r16
    79d8:	ff 90       	pop	r15
    79da:	ef 90       	pop	r14
    79dc:	08 95       	ret
    79de:	e7 ed       	ldi	r30, 0xD7	; 215
    79e0:	f0 e0       	ldi	r31, 0x00	; 0
    79e2:	80 81       	ld	r24, Z
    79e4:	81 60       	ori	r24, 0x01	; 1
    79e6:	80 83       	st	Z, r24
    79e8:	8a e4       	ldi	r24, 0x4A	; 74
    79ea:	82 bf       	out	0x32, r24	; 50
    79ec:	81 e0       	ldi	r24, 0x01	; 1
    79ee:	80 93 b5 01 	sts	0x01B5, r24	;  0x8001b5
    79f2:	b6 cf       	rjmp	.-148    	;  0x7960
    79f4:	e8 ed       	ldi	r30, 0xD8	; 216
    79f6:	f0 e0       	ldi	r31, 0x00	; 0
    79f8:	80 81       	ld	r24, Z
    79fa:	8e 7f       	andi	r24, 0xFE	; 254
    79fc:	80 83       	st	Z, r24
    79fe:	10 92 e2 00 	sts	0x00E2, r1	;  0x8000e2
    7a02:	08 95       	ret
    7a04:	10 92 da 00 	sts	0x00DA, r1	;  0x8000da
    7a08:	10 92 e1 00 	sts	0x00E1, r1	;  0x8000e1
    7a0c:	08 95       	ret
    7a0e:	1f 92       	push	r1
    7a10:	0f 92       	push	r0
    7a12:	0f b6       	in	r0, 0x3f	; 63
    7a14:	0f 92       	push	r0
    7a16:	11 24       	eor	r1, r1
    7a18:	2f 93       	push	r18
    7a1a:	3f 93       	push	r19
    7a1c:	4f 93       	push	r20
    7a1e:	5f 93       	push	r21
    7a20:	6f 93       	push	r22
    7a22:	7f 93       	push	r23
    7a24:	8f 93       	push	r24
    7a26:	9f 93       	push	r25
    7a28:	af 93       	push	r26
    7a2a:	bf 93       	push	r27
    7a2c:	ef 93       	push	r30
    7a2e:	ff 93       	push	r31
    7a30:	80 91 da 00 	lds	r24, 0x00DA	;  0x8000da
    7a34:	80 ff       	sbrs	r24, 0
    7a36:	1b c0       	rjmp	.+54     	;  0x7a6e
    7a38:	80 91 d8 00 	lds	r24, 0x00D8	;  0x8000d8
    7a3c:	80 ff       	sbrs	r24, 0
    7a3e:	17 c0       	rjmp	.+46     	;  0x7a6e
    7a40:	80 91 da 00 	lds	r24, 0x00DA	;  0x8000da
    7a44:	8e 7f       	andi	r24, 0xFE	; 254
    7a46:	80 93 da 00 	sts	0x00DA, r24	;  0x8000da
    7a4a:	80 91 d9 00 	lds	r24, 0x00D9	;  0x8000d9
    7a4e:	80 ff       	sbrs	r24, 0
    7a50:	0b c0       	rjmp	.+22     	;  0x7a68
    7a52:	80 e1       	ldi	r24, 0x10	; 16
    7a54:	89 bd       	out	0x29, r24	; 41
    7a56:	82 e1       	ldi	r24, 0x12	; 18
    7a58:	89 bd       	out	0x29, r24	; 41
    7a5a:	09 b4       	in	r0, 0x29	; 41
    7a5c:	00 fe       	sbrs	r0, 0
    7a5e:	fd cf       	rjmp	.-6      	;  0x7a5a
    7a60:	81 e0       	ldi	r24, 0x01	; 1
    7a62:	8e bb       	out	0x1e, r24	; 30
    7a64:	3b d2       	rcall	.+1142   	;  0x7edc
    7a66:	03 c0       	rjmp	.+6      	;  0x7a6e
    7a68:	19 bc       	out	0x29, r1	; 41
    7a6a:	1e ba       	out	0x1e, r1	; 30
    7a6c:	37 d2       	rcall	.+1134   	;  0x7edc
    7a6e:	80 91 e1 00 	lds	r24, 0x00E1	;  0x8000e1
    7a72:	80 ff       	sbrs	r24, 0
    7a74:	17 c0       	rjmp	.+46     	;  0x7aa4
    7a76:	80 91 e2 00 	lds	r24, 0x00E2	;  0x8000e2
    7a7a:	80 ff       	sbrs	r24, 0
    7a7c:	13 c0       	rjmp	.+38     	;  0x7aa4
    7a7e:	80 91 e2 00 	lds	r24, 0x00E2	;  0x8000e2
    7a82:	8e 7f       	andi	r24, 0xFE	; 254
    7a84:	80 93 e2 00 	sts	0x00E2, r24	;  0x8000e2
    7a88:	80 91 e2 00 	lds	r24, 0x00E2	;  0x8000e2
    7a8c:	80 61       	ori	r24, 0x10	; 16
    7a8e:	80 93 e2 00 	sts	0x00E2, r24	;  0x8000e2
    7a92:	80 91 d8 00 	lds	r24, 0x00D8	;  0x8000d8
    7a96:	80 62       	ori	r24, 0x20	; 32
    7a98:	80 93 d8 00 	sts	0x00D8, r24	;  0x8000d8
    7a9c:	19 bc       	out	0x29, r1	; 41
    7a9e:	85 e0       	ldi	r24, 0x05	; 5
    7aa0:	8e bb       	out	0x1e, r24	; 30
    7aa2:	1c d2       	rcall	.+1080   	;  0x7edc
    7aa4:	80 91 e1 00 	lds	r24, 0x00E1	;  0x8000e1
    7aa8:	84 ff       	sbrs	r24, 4
    7aaa:	2c c0       	rjmp	.+88     	;  0x7b04
    7aac:	80 91 e2 00 	lds	r24, 0x00E2	;  0x8000e2
    7ab0:	84 ff       	sbrs	r24, 4
    7ab2:	28 c0       	rjmp	.+80     	;  0x7b04
    7ab4:	80 e1       	ldi	r24, 0x10	; 16
    7ab6:	89 bd       	out	0x29, r24	; 41
    7ab8:	82 e1       	ldi	r24, 0x12	; 18
    7aba:	89 bd       	out	0x29, r24	; 41
    7abc:	09 b4       	in	r0, 0x29	; 41
    7abe:	00 fe       	sbrs	r0, 0
    7ac0:	fd cf       	rjmp	.-6      	;  0x7abc
    7ac2:	80 91 d8 00 	lds	r24, 0x00D8	;  0x8000d8
    7ac6:	8f 7d       	andi	r24, 0xDF	; 223
    7ac8:	80 93 d8 00 	sts	0x00D8, r24	;  0x8000d8
    7acc:	80 91 e1 00 	lds	r24, 0x00E1	;  0x8000e1
    7ad0:	8f 7e       	andi	r24, 0xEF	; 239
    7ad2:	80 93 e1 00 	sts	0x00E1, r24	;  0x8000e1
    7ad6:	80 91 e2 00 	lds	r24, 0x00E2	;  0x8000e2
    7ada:	8f 7e       	andi	r24, 0xEF	; 239
    7adc:	80 93 e2 00 	sts	0x00E2, r24	;  0x8000e2
    7ae0:	80 91 e2 00 	lds	r24, 0x00E2	;  0x8000e2
    7ae4:	81 60       	ori	r24, 0x01	; 1
    7ae6:	80 93 e2 00 	sts	0x00E2, r24	;  0x8000e2
    7aea:	80 91 b4 01 	lds	r24, 0x01B4	;  0x8001b4
    7aee:	88 23       	and	r24, r24
    7af0:	31 f4       	brne	.+12     	;  0x7afe
    7af2:	80 91 e3 00 	lds	r24, 0x00E3	;  0x8000e3
    7af6:	87 fd       	sbrc	r24, 7
    7af8:	02 c0       	rjmp	.+4      	;  0x7afe
    7afa:	81 e0       	ldi	r24, 0x01	; 1
    7afc:	01 c0       	rjmp	.+2      	;  0x7b00
    7afe:	84 e0       	ldi	r24, 0x04	; 4
    7b00:	8e bb       	out	0x1e, r24	; 30
    7b02:	ec d1       	rcall	.+984    	;  0x7edc
    7b04:	80 91 e1 00 	lds	r24, 0x00E1	;  0x8000e1
    7b08:	83 ff       	sbrs	r24, 3
    7b0a:	21 c0       	rjmp	.+66     	;  0x7b4e
    7b0c:	80 91 e2 00 	lds	r24, 0x00E2	;  0x8000e2
    7b10:	83 ff       	sbrs	r24, 3
    7b12:	1d c0       	rjmp	.+58     	;  0x7b4e
    7b14:	80 91 e1 00 	lds	r24, 0x00E1	;  0x8000e1
    7b18:	87 7f       	andi	r24, 0xF7	; 247
    7b1a:	80 93 e1 00 	sts	0x00E1, r24	;  0x8000e1
    7b1e:	82 e0       	ldi	r24, 0x02	; 2
    7b20:	8e bb       	out	0x1e, r24	; 30
    7b22:	10 92 b4 01 	sts	0x01B4, r1	;  0x8001b4
    7b26:	80 91 e1 00 	lds	r24, 0x00E1	;  0x8000e1
    7b2a:	8e 7f       	andi	r24, 0xFE	; 254
    7b2c:	80 93 e1 00 	sts	0x00E1, r24	;  0x8000e1
    7b30:	80 91 e2 00 	lds	r24, 0x00E2	;  0x8000e2
    7b34:	8e 7f       	andi	r24, 0xFE	; 254
    7b36:	80 93 e2 00 	sts	0x00E2, r24	;  0x8000e2
    7b3a:	80 91 e2 00 	lds	r24, 0x00E2	;  0x8000e2
    7b3e:	80 61       	ori	r24, 0x10	; 16
    7b40:	80 93 e2 00 	sts	0x00E2, r24	;  0x8000e2
    7b44:	80 e0       	ldi	r24, 0x00	; 0
    7b46:	60 e0       	ldi	r22, 0x00	; 0
    7b48:	42 e0       	ldi	r20, 0x02	; 2
    7b4a:	d8 de       	rcall	.-592    	;  0x78fc
    7b4c:	c7 d1       	rcall	.+910    	;  0x7edc
    7b4e:	ff 91       	pop	r31
    7b50:	ef 91       	pop	r30
    7b52:	bf 91       	pop	r27
    7b54:	af 91       	pop	r26
    7b56:	9f 91       	pop	r25
    7b58:	8f 91       	pop	r24
    7b5a:	7f 91       	pop	r23
    7b5c:	6f 91       	pop	r22
    7b5e:	5f 91       	pop	r21
    7b60:	4f 91       	pop	r20
    7b62:	3f 91       	pop	r19
    7b64:	2f 91       	pop	r18
    7b66:	0f 90       	pop	r0
    7b68:	0f be       	out	0x3f, r0	; 63
    7b6a:	0f 90       	pop	r0
    7b6c:	1f 90       	pop	r1
    7b6e:	18 95       	reti
    7b70:	9c 01       	movw	r18, r24
    7b72:	40 91 bc 01 	lds	r20, 0x01BC	;  0x8001bc
    7b76:	50 91 bd 01 	lds	r21, 0x01BD	;  0x8001bd
    7b7a:	46 17       	cp	r20, r22
    7b7c:	57 07       	cpc	r21, r23
    7b7e:	18 f4       	brcc	.+6      	;  0x7b86
    7b80:	f9 01       	movw	r30, r18
    7b82:	90 e0       	ldi	r25, 0x00	; 0
    7b84:	44 c0       	rjmp	.+136    	;  0x7c0e
    7b86:	61 15       	cp	r22, r1
    7b88:	71 05       	cpc	r23, r1
    7b8a:	11 f0       	breq	.+4      	;  0x7b90
    7b8c:	ab 01       	movw	r20, r22
    7b8e:	f8 cf       	rjmp	.-16     	;  0x7b80
    7b90:	80 91 e8 00 	lds	r24, 0x00E8	;  0x8000e8
    7b94:	8e 77       	andi	r24, 0x7E	; 126
    7b96:	80 93 e8 00 	sts	0x00E8, r24	;  0x8000e8
    7b9a:	40 e0       	ldi	r20, 0x00	; 0
    7b9c:	50 e0       	ldi	r21, 0x00	; 0
    7b9e:	f0 cf       	rjmp	.-32     	;  0x7b80
    7ba0:	8e b3       	in	r24, 0x1e	; 30
    7ba2:	88 23       	and	r24, r24
    7ba4:	09 f4       	brne	.+2      	;  0x7ba8
    7ba6:	44 c0       	rjmp	.+136    	;  0x7c30
    7ba8:	85 30       	cpi	r24, 0x05	; 5
    7baa:	09 f4       	brne	.+2      	;  0x7bae
    7bac:	43 c0       	rjmp	.+134    	;  0x7c34
    7bae:	80 91 e8 00 	lds	r24, 0x00E8	;  0x8000e8
    7bb2:	83 ff       	sbrs	r24, 3
    7bb4:	02 c0       	rjmp	.+4      	;  0x7bba
    7bb6:	81 e0       	ldi	r24, 0x01	; 1
    7bb8:	08 95       	ret
    7bba:	80 91 e8 00 	lds	r24, 0x00E8	;  0x8000e8
    7bbe:	82 fd       	sbrc	r24, 2
    7bc0:	31 c0       	rjmp	.+98     	;  0x7c24
    7bc2:	80 91 e8 00 	lds	r24, 0x00E8	;  0x8000e8
    7bc6:	80 ff       	sbrs	r24, 0
    7bc8:	22 c0       	rjmp	.+68     	;  0x7c0e
    7bca:	80 91 f3 00 	lds	r24, 0x00F3	;  0x8000f3
    7bce:	90 91 f2 00 	lds	r25, 0x00F2	;  0x8000f2
    7bd2:	78 2f       	mov	r23, r24
    7bd4:	60 e0       	ldi	r22, 0x00	; 0
    7bd6:	29 2f       	mov	r18, r25
    7bd8:	30 e0       	ldi	r19, 0x00	; 0
    7bda:	26 2b       	or	r18, r22
    7bdc:	37 2b       	or	r19, r23
    7bde:	07 c0       	rjmp	.+14     	;  0x7bee
    7be0:	81 91       	ld	r24, Z+
    7be2:	80 93 f1 00 	sts	0x00F1, r24	;  0x8000f1
    7be6:	41 50       	subi	r20, 0x01	; 1
    7be8:	50 40       	sbci	r21, 0x00	; 0
    7bea:	2f 5f       	subi	r18, 0xFF	; 255
    7bec:	3f 4f       	sbci	r19, 0xFF	; 255
    7bee:	41 15       	cp	r20, r1
    7bf0:	51 05       	cpc	r21, r1
    7bf2:	19 f0       	breq	.+6      	;  0x7bfa
    7bf4:	28 30       	cpi	r18, 0x08	; 8
    7bf6:	31 05       	cpc	r19, r1
    7bf8:	98 f3       	brcs	.-26     	;  0x7be0
    7bfa:	90 e0       	ldi	r25, 0x00	; 0
    7bfc:	28 30       	cpi	r18, 0x08	; 8
    7bfe:	31 05       	cpc	r19, r1
    7c00:	09 f4       	brne	.+2      	;  0x7c04
    7c02:	91 e0       	ldi	r25, 0x01	; 1
    7c04:	80 91 e8 00 	lds	r24, 0x00E8	;  0x8000e8
    7c08:	8e 77       	andi	r24, 0x7E	; 126
    7c0a:	80 93 e8 00 	sts	0x00E8, r24	;  0x8000e8
    7c0e:	41 15       	cp	r20, r1
    7c10:	51 05       	cpc	r21, r1
    7c12:	31 f6       	brne	.-116    	;  0x7ba0
    7c14:	99 23       	and	r25, r25
    7c16:	21 f6       	brne	.-120    	;  0x7ba0
    7c18:	05 c0       	rjmp	.+10     	;  0x7c24
    7c1a:	8e b3       	in	r24, 0x1e	; 30
    7c1c:	88 23       	and	r24, r24
    7c1e:	41 f0       	breq	.+16     	;  0x7c30
    7c20:	85 30       	cpi	r24, 0x05	; 5
    7c22:	41 f0       	breq	.+16     	;  0x7c34
    7c24:	80 91 e8 00 	lds	r24, 0x00E8	;  0x8000e8
    7c28:	82 ff       	sbrs	r24, 2
    7c2a:	f7 cf       	rjmp	.-18     	;  0x7c1a
    7c2c:	80 e0       	ldi	r24, 0x00	; 0
    7c2e:	08 95       	ret
    7c30:	82 e0       	ldi	r24, 0x02	; 2
    7c32:	08 95       	ret
    7c34:	83 e0       	ldi	r24, 0x03	; 3
    7c36:	08 95       	ret
    7c38:	9c 01       	movw	r18, r24
    7c3a:	61 15       	cp	r22, r1
    7c3c:	71 05       	cpc	r23, r1
    7c3e:	29 f4       	brne	.+10     	;  0x7c4a
    7c40:	80 91 e8 00 	lds	r24, 0x00E8	;  0x8000e8
    7c44:	8b 77       	andi	r24, 0x7B	; 123
    7c46:	80 93 e8 00 	sts	0x00E8, r24	;  0x8000e8
    7c4a:	f9 01       	movw	r30, r18
    7c4c:	26 c0       	rjmp	.+76     	;  0x7c9a
    7c4e:	8e b3       	in	r24, 0x1e	; 30
    7c50:	88 23       	and	r24, r24
    7c52:	91 f1       	breq	.+100    	;  0x7cb8
    7c54:	85 30       	cpi	r24, 0x05	; 5
    7c56:	91 f1       	breq	.+100    	;  0x7cbc
    7c58:	80 91 e8 00 	lds	r24, 0x00E8	;  0x8000e8
    7c5c:	83 ff       	sbrs	r24, 3
    7c5e:	02 c0       	rjmp	.+4      	;  0x7c64
    7c60:	81 e0       	ldi	r24, 0x01	; 1
    7c62:	08 95       	ret
    7c64:	80 91 e8 00 	lds	r24, 0x00E8	;  0x8000e8
    7c68:	82 ff       	sbrs	r24, 2
    7c6a:	f1 cf       	rjmp	.-30     	;  0x7c4e
    7c6c:	06 c0       	rjmp	.+12     	;  0x7c7a
    7c6e:	80 91 f1 00 	lds	r24, 0x00F1	;  0x8000f1
    7c72:	81 93       	st	Z+, r24
    7c74:	61 50       	subi	r22, 0x01	; 1
    7c76:	70 40       	sbci	r23, 0x00	; 0
    7c78:	59 f0       	breq	.+22     	;  0x7c90
    7c7a:	20 91 f3 00 	lds	r18, 0x00F3	;  0x8000f3
    7c7e:	80 91 f2 00 	lds	r24, 0x00F2	;  0x8000f2
    7c82:	32 2f       	mov	r19, r18
    7c84:	20 e0       	ldi	r18, 0x00	; 0
    7c86:	90 e0       	ldi	r25, 0x00	; 0
    7c88:	82 2b       	or	r24, r18
    7c8a:	93 2b       	or	r25, r19
    7c8c:	89 2b       	or	r24, r25
    7c8e:	79 f7       	brne	.-34     	;  0x7c6e
    7c90:	80 91 e8 00 	lds	r24, 0x00E8	;  0x8000e8
    7c94:	8b 77       	andi	r24, 0x7B	; 123
    7c96:	80 93 e8 00 	sts	0x00E8, r24	;  0x8000e8
    7c9a:	61 15       	cp	r22, r1
    7c9c:	71 05       	cpc	r23, r1
    7c9e:	b9 f6       	brne	.-82     	;  0x7c4e
    7ca0:	05 c0       	rjmp	.+10     	;  0x7cac
    7ca2:	8e b3       	in	r24, 0x1e	; 30
    7ca4:	88 23       	and	r24, r24
    7ca6:	41 f0       	breq	.+16     	;  0x7cb8
    7ca8:	85 30       	cpi	r24, 0x05	; 5
    7caa:	41 f0       	breq	.+16     	;  0x7cbc
    7cac:	80 91 e8 00 	lds	r24, 0x00E8	;  0x8000e8
    7cb0:	80 ff       	sbrs	r24, 0
    7cb2:	f7 cf       	rjmp	.-18     	;  0x7ca2
    7cb4:	80 e0       	ldi	r24, 0x00	; 0
    7cb6:	08 95       	ret
    7cb8:	82 e0       	ldi	r24, 0x02	; 2
    7cba:	08 95       	ret
    7cbc:	83 e0       	ldi	r24, 0x03	; 3
    7cbe:	08 95       	ret
    7cc0:	0f 93       	push	r16
    7cc2:	1f 93       	push	r17
    7cc4:	df 93       	push	r29
    7cc6:	cf 93       	push	r28
    7cc8:	00 d0       	rcall	.+0      	;  0x7cca
    7cca:	cd b7       	in	r28, 0x3d	; 61
    7ccc:	de b7       	in	r29, 0x3e	; 62
    7cce:	e6 eb       	ldi	r30, 0xB6	; 182
    7cd0:	f1 e0       	ldi	r31, 0x01	; 1
    7cd2:	80 91 f1 00 	lds	r24, 0x00F1	;  0x8000f1
    7cd6:	81 93       	st	Z+, r24
    7cd8:	81 e0       	ldi	r24, 0x01	; 1
    7cda:	ee 3b       	cpi	r30, 0xBE	; 190
    7cdc:	f8 07       	cpc	r31, r24
    7cde:	c9 f7       	brne	.-14     	;  0x7cd2
    7ce0:	24 dd       	rcall	.-1464   	;  0x772a
    7ce2:	80 91 e8 00 	lds	r24, 0x00E8	;  0x8000e8
    7ce6:	83 ff       	sbrs	r24, 3
    7ce8:	e4 c0       	rjmp	.+456    	;  0x7eb2
    7cea:	80 91 b6 01 	lds	r24, 0x01B6	;  0x8001b6
    7cee:	90 91 b7 01 	lds	r25, 0x01B7	;  0x8001b7
    7cf2:	95 30       	cpi	r25, 0x05	; 5
    7cf4:	09 f4       	brne	.+2      	;  0x7cf8
    7cf6:	6d c0       	rjmp	.+218    	;  0x7dd2
    7cf8:	96 30       	cpi	r25, 0x06	; 6
    7cfa:	40 f4       	brcc	.+16     	;  0x7d0c
    7cfc:	91 30       	cpi	r25, 0x01	; 1
    7cfe:	81 f1       	breq	.+96     	;  0x7d60
    7d00:	91 30       	cpi	r25, 0x01	; 1
    7d02:	70 f0       	brcs	.+28     	;  0x7d20
    7d04:	93 30       	cpi	r25, 0x03	; 3
    7d06:	09 f0       	breq	.+2      	;  0x7d0a
    7d08:	d4 c0       	rjmp	.+424    	;  0x7eb2
    7d0a:	2a c0       	rjmp	.+84     	;  0x7d60
    7d0c:	98 30       	cpi	r25, 0x08	; 8
    7d0e:	09 f4       	brne	.+2      	;  0x7d12
    7d10:	a3 c0       	rjmp	.+326    	;  0x7e58
    7d12:	99 30       	cpi	r25, 0x09	; 9
    7d14:	09 f4       	brne	.+2      	;  0x7d18
    7d16:	b2 c0       	rjmp	.+356    	;  0x7e7c
    7d18:	96 30       	cpi	r25, 0x06	; 6
    7d1a:	09 f0       	breq	.+2      	;  0x7d1e
    7d1c:	ca c0       	rjmp	.+404    	;  0x7eb2
    7d1e:	7c c0       	rjmp	.+248    	;  0x7e18
    7d20:	80 38       	cpi	r24, 0x80	; 128
    7d22:	09 f4       	brne	.+2      	;  0x7d26
    7d24:	c6 c0       	rjmp	.+396    	;  0x7eb2
    7d26:	82 38       	cpi	r24, 0x82	; 130
    7d28:	09 f0       	breq	.+2      	;  0x7d2c
    7d2a:	c3 c0       	rjmp	.+390    	;  0x7eb2
    7d2c:	80 91 ba 01 	lds	r24, 0x01BA	;  0x8001ba
    7d30:	87 70       	andi	r24, 0x07	; 7
    7d32:	80 93 e9 00 	sts	0x00E9, r24	;  0x8000e9
    7d36:	80 91 eb 00 	lds	r24, 0x00EB	;  0x8000eb
    7d3a:	10 92 e9 00 	sts	0x00E9, r1	;  0x8000e9
    7d3e:	20 91 e8 00 	lds	r18, 0x00E8	;  0x8000e8
    7d42:	27 7f       	andi	r18, 0xF7	; 247
    7d44:	20 93 e8 00 	sts	0x00E8, r18	;  0x8000e8
    7d48:	90 e0       	ldi	r25, 0x00	; 0
    7d4a:	25 e0       	ldi	r18, 0x05	; 5
    7d4c:	96 95       	lsr	r25
    7d4e:	87 95       	ror	r24
    7d50:	2a 95       	dec	r18
    7d52:	e1 f7       	brne	.-8      	;  0x7d4c
    7d54:	81 70       	andi	r24, 0x01	; 1
    7d56:	80 93 f1 00 	sts	0x00F1, r24	;  0x8000f1
    7d5a:	10 92 f1 00 	sts	0x00F1, r1	;  0x8000f1
    7d5e:	87 c0       	rjmp	.+270    	;  0x7e6e
    7d60:	88 23       	and	r24, r24
    7d62:	19 f0       	breq	.+6      	;  0x7d6a
    7d64:	82 30       	cpi	r24, 0x02	; 2
    7d66:	09 f0       	breq	.+2      	;  0x7d6a
    7d68:	a4 c0       	rjmp	.+328    	;  0x7eb2
    7d6a:	8f 71       	andi	r24, 0x1F	; 31
    7d6c:	82 30       	cpi	r24, 0x02	; 2
    7d6e:	09 f0       	breq	.+2      	;  0x7d72
    7d70:	a0 c0       	rjmp	.+320    	;  0x7eb2
    7d72:	80 91 b8 01 	lds	r24, 0x01B8	;  0x8001b8
    7d76:	88 23       	and	r24, r24
    7d78:	31 f5       	brne	.+76     	;  0x7dc6
    7d7a:	20 91 ba 01 	lds	r18, 0x01BA	;  0x8001ba
    7d7e:	27 70       	andi	r18, 0x07	; 7
    7d80:	09 f4       	brne	.+2      	;  0x7d84
    7d82:	97 c0       	rjmp	.+302    	;  0x7eb2
    7d84:	20 93 e9 00 	sts	0x00E9, r18	;  0x8000e9
    7d88:	80 91 eb 00 	lds	r24, 0x00EB	;  0x8000eb
    7d8c:	80 ff       	sbrs	r24, 0
    7d8e:	1b c0       	rjmp	.+54     	;  0x7dc6
    7d90:	93 30       	cpi	r25, 0x03	; 3
    7d92:	21 f4       	brne	.+8      	;  0x7d9c
    7d94:	80 91 eb 00 	lds	r24, 0x00EB	;  0x8000eb
    7d98:	80 62       	ori	r24, 0x20	; 32
    7d9a:	13 c0       	rjmp	.+38     	;  0x7dc2
    7d9c:	80 91 eb 00 	lds	r24, 0x00EB	;  0x8000eb
    7da0:	80 61       	ori	r24, 0x10	; 16
    7da2:	80 93 eb 00 	sts	0x00EB, r24	;  0x8000eb
    7da6:	81 e0       	ldi	r24, 0x01	; 1
    7da8:	90 e0       	ldi	r25, 0x00	; 0
    7daa:	02 c0       	rjmp	.+4      	;  0x7db0
    7dac:	88 0f       	add	r24, r24
    7dae:	99 1f       	adc	r25, r25
    7db0:	2a 95       	dec	r18
    7db2:	e2 f7       	brpl	.-8      	;  0x7dac
    7db4:	80 93 ea 00 	sts	0x00EA, r24	;  0x8000ea
    7db8:	10 92 ea 00 	sts	0x00EA, r1	;  0x8000ea
    7dbc:	80 91 eb 00 	lds	r24, 0x00EB	;  0x8000eb
    7dc0:	88 60       	ori	r24, 0x08	; 8
    7dc2:	80 93 eb 00 	sts	0x00EB, r24	;  0x8000eb
    7dc6:	10 92 e9 00 	sts	0x00E9, r1	;  0x8000e9
    7dca:	80 91 e8 00 	lds	r24, 0x00E8	;  0x8000e8
    7dce:	87 7f       	andi	r24, 0xF7	; 247
    7dd0:	51 c0       	rjmp	.+162    	;  0x7e74
    7dd2:	88 23       	and	r24, r24
    7dd4:	09 f0       	breq	.+2      	;  0x7dd8
    7dd6:	6d c0       	rjmp	.+218    	;  0x7eb2
    7dd8:	10 91 b8 01 	lds	r17, 0x01B8	;  0x8001b8
    7ddc:	1f 77       	andi	r17, 0x7F	; 127
    7dde:	0f b7       	in	r16, 0x3f	; 63
    7de0:	f8 94       	cli
    7de2:	80 91 e8 00 	lds	r24, 0x00E8	;  0x8000e8
    7de6:	87 7f       	andi	r24, 0xF7	; 247
    7de8:	80 93 e8 00 	sts	0x00E8, r24	;  0x8000e8
    7dec:	9a dd       	rcall	.-1228   	;  0x7922
    7dee:	80 91 e8 00 	lds	r24, 0x00E8	;  0x8000e8
    7df2:	80 ff       	sbrs	r24, 0
    7df4:	fc cf       	rjmp	.-8      	;  0x7dee
    7df6:	80 91 e3 00 	lds	r24, 0x00E3	;  0x8000e3
    7dfa:	80 78       	andi	r24, 0x80	; 128
    7dfc:	81 2b       	or	r24, r17
    7dfe:	80 93 e3 00 	sts	0x00E3, r24	;  0x8000e3
    7e02:	80 68       	ori	r24, 0x80	; 128
    7e04:	80 93 e3 00 	sts	0x00E3, r24	;  0x8000e3
    7e08:	11 23       	and	r17, r17
    7e0a:	11 f4       	brne	.+4      	;  0x7e10
    7e0c:	82 e0       	ldi	r24, 0x02	; 2
    7e0e:	01 c0       	rjmp	.+2      	;  0x7e12
    7e10:	83 e0       	ldi	r24, 0x03	; 3
    7e12:	8e bb       	out	0x1e, r24	; 30
    7e14:	0f bf       	out	0x3f, r16	; 63
    7e16:	4d c0       	rjmp	.+154    	;  0x7eb2
    7e18:	80 58       	subi	r24, 0x80	; 128
    7e1a:	82 30       	cpi	r24, 0x02	; 2
    7e1c:	08 f0       	brcs	.+2      	;  0x7e20
    7e1e:	49 c0       	rjmp	.+146    	;  0x7eb2
    7e20:	80 91 b8 01 	lds	r24, 0x01B8	;  0x8001b8
    7e24:	90 91 b9 01 	lds	r25, 0x01B9	;  0x8001b9
    7e28:	60 91 ba 01 	lds	r22, 0x01BA	;  0x8001ba
    7e2c:	ae 01       	movw	r20, r28
    7e2e:	4f 5f       	subi	r20, 0xFF	; 255
    7e30:	5f 4f       	sbci	r21, 0xFF	; 255
    7e32:	36 dd       	rcall	.-1428   	;  0x78a0
    7e34:	bc 01       	movw	r22, r24
    7e36:	00 97       	sbiw	r24, 0x00	; 0
    7e38:	09 f4       	brne	.+2      	;  0x7e3c
    7e3a:	3b c0       	rjmp	.+118    	;  0x7eb2
    7e3c:	80 91 e8 00 	lds	r24, 0x00E8	;  0x8000e8
    7e40:	87 7f       	andi	r24, 0xF7	; 247
    7e42:	80 93 e8 00 	sts	0x00E8, r24	;  0x8000e8
    7e46:	89 81       	ldd	r24, Y+1	; 0x01
    7e48:	9a 81       	ldd	r25, Y+2	; 0x02
    7e4a:	92 de       	rcall	.-732    	;  0x7b70
    7e4c:	80 91 e8 00 	lds	r24, 0x00E8	;  0x8000e8
    7e50:	8b 77       	andi	r24, 0x7B	; 123
    7e52:	80 93 e8 00 	sts	0x00E8, r24	;  0x8000e8
    7e56:	2d c0       	rjmp	.+90     	;  0x7eb2
    7e58:	80 38       	cpi	r24, 0x80	; 128
    7e5a:	59 f5       	brne	.+86     	;  0x7eb2
    7e5c:	80 91 e8 00 	lds	r24, 0x00E8	;  0x8000e8
    7e60:	87 7f       	andi	r24, 0xF7	; 247
    7e62:	80 93 e8 00 	sts	0x00E8, r24	;  0x8000e8
    7e66:	80 91 b4 01 	lds	r24, 0x01B4	;  0x8001b4
    7e6a:	80 93 f1 00 	sts	0x00F1, r24	;  0x8000f1
    7e6e:	80 91 e8 00 	lds	r24, 0x00E8	;  0x8000e8
    7e72:	8e 77       	andi	r24, 0x7E	; 126
    7e74:	80 93 e8 00 	sts	0x00E8, r24	;  0x8000e8
    7e78:	54 dd       	rcall	.-1368   	;  0x7922
    7e7a:	1b c0       	rjmp	.+54     	;  0x7eb2
    7e7c:	88 23       	and	r24, r24
    7e7e:	c9 f4       	brne	.+50     	;  0x7eb2
    7e80:	90 91 b8 01 	lds	r25, 0x01B8	;  0x8001b8
    7e84:	92 30       	cpi	r25, 0x02	; 2
    7e86:	a8 f4       	brcc	.+42     	;  0x7eb2
    7e88:	80 91 e8 00 	lds	r24, 0x00E8	;  0x8000e8
    7e8c:	87 7f       	andi	r24, 0xF7	; 247
    7e8e:	80 93 e8 00 	sts	0x00E8, r24	;  0x8000e8
    7e92:	90 93 b4 01 	sts	0x01B4, r25	;  0x8001b4
    7e96:	45 dd       	rcall	.-1398   	;  0x7922
    7e98:	80 91 b4 01 	lds	r24, 0x01B4	;  0x8001b4
    7e9c:	88 23       	and	r24, r24
    7e9e:	31 f4       	brne	.+12     	;  0x7eac
    7ea0:	80 91 e3 00 	lds	r24, 0x00E3	;  0x8000e3
    7ea4:	87 fd       	sbrc	r24, 7
    7ea6:	02 c0       	rjmp	.+4      	;  0x7eac
    7ea8:	81 e0       	ldi	r24, 0x01	; 1
    7eaa:	01 c0       	rjmp	.+2      	;  0x7eae
    7eac:	84 e0       	ldi	r24, 0x04	; 4
    7eae:	8e bb       	out	0x1e, r24	; 30
    7eb0:	6c dc       	rcall	.-1832   	;  0x778a
    7eb2:	80 91 e8 00 	lds	r24, 0x00E8	;  0x8000e8
    7eb6:	83 ff       	sbrs	r24, 3
    7eb8:	0a c0       	rjmp	.+20     	;  0x7ece
    7eba:	80 91 eb 00 	lds	r24, 0x00EB	;  0x8000eb
    7ebe:	80 62       	ori	r24, 0x20	; 32
    7ec0:	80 93 eb 00 	sts	0x00EB, r24	;  0x8000eb
    7ec4:	80 91 e8 00 	lds	r24, 0x00E8	;  0x8000e8
    7ec8:	87 7f       	andi	r24, 0xF7	; 247
    7eca:	80 93 e8 00 	sts	0x00E8, r24	;  0x8000e8
    7ece:	0f 90       	pop	r0
    7ed0:	0f 90       	pop	r0
    7ed2:	cf 91       	pop	r28
    7ed4:	df 91       	pop	r29
    7ed6:	1f 91       	pop	r17
    7ed8:	0f 91       	pop	r16
    7eda:	08 95       	ret
    7edc:	08 95       	ret
    7ede:	1f 93       	push	r17
    7ee0:	8e b3       	in	r24, 0x1e	; 30
    7ee2:	88 23       	and	r24, r24
    7ee4:	61 f0       	breq	.+24     	;  0x7efe
    7ee6:	10 91 e9 00 	lds	r17, 0x00E9	;  0x8000e9
    7eea:	10 92 e9 00 	sts	0x00E9, r1	;  0x8000e9
    7eee:	80 91 e8 00 	lds	r24, 0x00E8	;  0x8000e8
    7ef2:	83 ff       	sbrs	r24, 3
    7ef4:	01 c0       	rjmp	.+2      	;  0x7ef8
    7ef6:	e4 de       	rcall	.-568    	;  0x7cc0
    7ef8:	17 70       	andi	r17, 0x07	; 7
    7efa:	10 93 e9 00 	sts	0x00E9, r17	;  0x8000e9
    7efe:	1f 91       	pop	r17
    7f00:	08 95       	ret
    7f02:	f9 99       	sbic	0x1f, 1	; 31
    7f04:	fe cf       	rjmp	.-4      	;  0x7f02
    7f06:	92 bd       	out	0x22, r25	; 34
    7f08:	81 bd       	out	0x21, r24	; 33
    7f0a:	f8 9a       	sbi	0x1f, 0	; 31
    7f0c:	99 27       	eor	r25, r25
    7f0e:	80 b5       	in	r24, 0x20	; 32
    7f10:	08 95       	ret
    7f12:	26 2f       	mov	r18, r22
    7f14:	f9 99       	sbic	0x1f, 1	; 31
    7f16:	fe cf       	rjmp	.-4      	;  0x7f14
    7f18:	1f ba       	out	0x1f, r1	; 31
    7f1a:	92 bd       	out	0x22, r25	; 34
    7f1c:	81 bd       	out	0x21, r24	; 33
    7f1e:	20 bd       	out	0x20, r18	; 32
    7f20:	0f b6       	in	r0, 0x3f	; 63
    7f22:	f8 94       	cli
    7f24:	fa 9a       	sbi	0x1f, 2	; 31
    7f26:	f9 9a       	sbi	0x1f, 1	; 31
    7f28:	0f be       	out	0x3f, r0	; 63
    7f2a:	01 96       	adiw	r24, 0x01	; 1
    7f2c:	08 95       	ret
    7f2e:	f8 94       	cli
    7f30:	ff cf       	rjmp	.-2      	;  0x7f30
    7f32:	43 41       	sbci	r20, 0x13	; 19
    7f34:	54 45       	sbci	r21, 0x54	; 84
    7f36:	52 49       	sbci	r21, 0x92	; 146
    7f38:	4e 41       	sbci	r20, 0x1E	; 30
    7f3a:	00 77       	andi	r16, 0x70	; 112
    7f3c:	77 00       	.word	0x0077	; ????
    7f3e:	08 00       	.word	0x0008	; ????
    7f40:	00 00       	nop
    7f42:	00 00       	nop
    7f44:	00 08       	sbc	r0, r0
    7f46:	01 12       	cpse	r0, r17
    7f48:	01 10       	cpse	r0, r1
    7f4a:	01 02       	muls	r16, r17
    7f4c:	00 00       	nop
    7f4e:	08 41       	sbci	r16, 0x18	; 24
    7f50:	23 37       	cpi	r18, 0x73	; 115
    7f52:	00 01       	movw	r0, r0
    7f54:	00 02       	muls	r16, r16
    7f56:	01 00       	.word	0x0001	; ????
    7f58:	01 09       	sbc	r16, r1
    7f5a:	02 3e       	cpi	r16, 0xE2	; 226
    7f5c:	00 02       	muls	r16, r16
    7f5e:	01 00       	.word	0x0001	; ????
    7f60:	80 32       	cpi	r24, 0x20	; 32
    7f62:	09 04       	cpc	r0, r9
    7f64:	00 00       	nop
    7f66:	01 02       	muls	r16, r17
    7f68:	02 01       	movw	r0, r4
    7f6a:	00 05       	cpc	r16, r0
    7f6c:	24 00       	.word	0x0024	; ????
    7f6e:	10 01       	movw	r2, r0
    7f70:	04 24       	eor	r0, r4
    7f72:	02 04       	cpc	r0, r2
    7f74:	05 24       	eor	r0, r5
    7f76:	06 00       	.word	0x0006	; ????
    7f78:	01 07       	cpc	r16, r17
    7f7a:	05 82       	std	Z+5, r0	; 0x05
    7f7c:	03 08       	sbc	r0, r3
    7f7e:	00 ff       	sbrs	r16, 0
    7f80:	09 04       	cpc	r0, r9
    7f82:	01 00       	.word	0x0001	; ????
    7f84:	02 0a       	sbc	r0, r18
    7f86:	00 00       	nop
    7f88:	00 07       	cpc	r16, r16
    7f8a:	05 04       	cpc	r0, r5
    7f8c:	02 10       	cpse	r0, r2
    7f8e:	00 01       	movw	r0, r0
    7f90:	07 05       	cpc	r16, r7
    7f92:	83 02       	muls	r24, r19
    7f94:	10 00       	.word	0x0010	; ????
    7f96:	01 04       	cpc	r0, r1
    7f98:	03 09       	sbc	r16, r3
    7f9a:	04 22       	and	r0, r20
    7f9c:	03 41       	sbci	r16, 0x13	; 19
    7f9e:	00 72       	andi	r16, 0x20	; 32
    7fa0:	00 64       	ori	r16, 0x40	; 64
    7fa2:	00 75       	andi	r16, 0x50	; 80
    7fa4:	00 69       	ori	r16, 0x90	; 144
    7fa6:	00 6e       	ori	r16, 0xE0	; 224
    7fa8:	00 6f       	ori	r16, 0xF0	; 240
    7faa:	00 20       	and	r0, r0
    7fac:	00 4d       	sbci	r16, 0xD0	; 208
    7fae:	00 69       	ori	r16, 0x90	; 144
    7fb0:	00 63       	ori	r16, 0x30	; 48
    7fb2:	00 72       	andi	r16, 0x20	; 32
    7fb4:	00 6f       	ori	r16, 0xF0	; 240
    7fb6:	00 20       	and	r0, r0
    7fb8:	00 20       	and	r0, r0
    7fba:	00 20       	and	r0, r0
    7fbc:	00 00       	nop
    7fbe:	00 18       	sub	r0, r0
    7fc0:	03 41       	sbci	r16, 0x13	; 19
    7fc2:	00 72       	andi	r16, 0x20	; 32
    7fc4:	00 64       	ori	r16, 0x40	; 64
    7fc6:	00 75       	andi	r16, 0x50	; 80
    7fc8:	00 69       	ori	r16, 0x90	; 144
    7fca:	00 6e       	ori	r16, 0xE0	; 224
    7fcc:	00 6f       	ori	r16, 0xF0	; 240
    7fce:	00 20       	and	r0, r0
    7fd0:	00 4c       	sbci	r16, 0xC0	; 192
    7fd2:	00 4c       	sbci	r16, 0xC0	; 192
    7fd4:	00 43       	sbci	r16, 0x30	; 48
    7fd6:	00 00       	nop
	...
